EXPORTS
 "_ZGVN4arma5DatumIdE3nanE"
 "_ZGVN4arma5DatumIiE3nanE"
 "_ZN4arma10solve_opts11opts_refineC1Ev"
 "_ZN4arma10solve_opts12opts_no_bandC1Ev"
 "_ZN4arma10solve_opts13opts_no_sympdC1Ev"
 "_ZN4arma10solve_opts14opts_no_approxC1Ev"
 "_ZN4arma10solve_opts14opts_no_trimatC1Ev"
 "_ZN4arma10solve_opts15opts_allow_uglyC1Ev"
 "_ZN4arma10solve_opts16opts_equilibrateC1Ev"
 "_ZN4arma10solve_opts17opts_likely_sympdC1Ev"
 "_ZN4arma10solve_opts4optsC2Ej"
 "_ZN4arma10solve_opts9opts_fastC1Ev"
 "_ZN4arma10solve_opts9opts_noneC1Ev"
 "_ZN4arma10solve_opts9opts_trilC1Ev"
 "_ZN4arma10solve_opts9opts_triuC1Ev"
 "_ZN4arma13gmm_dist_euclC1Ev"
 "_ZN4arma13gmm_dist_mahaC1Ev"
 "_ZN4arma13gmm_dist_modeC2Ej"
 "_ZN4arma13gmm_dist_probC1Ev"
 "_ZN4arma13gmm_seed_modeC2Ej"
 "_ZN4arma15get_cerr_streamEv"
 "_ZN4arma16arma_cerr_streamIcEERSoPSo"
 "_ZN4arma22gmm_seed_keep_existingC1Ev"
 "_ZN4arma22gmm_seed_random_spreadC1Ev"
 "_ZN4arma22gmm_seed_random_subsetC1Ev"
 "_ZN4arma22gmm_seed_static_spreadC1Ev"
 "_ZN4arma22gmm_seed_static_subsetC1Ev"
 "_ZN4arma4fill10fill_classINS0_10fill_randnEEC1Ev"
 "_ZN4arma4fill10fill_classINS0_10fill_randuEEC1Ev"
 "_ZN4arma4fill10fill_classINS0_10fill_zerosEEC1Ev"
 "_ZN4arma4fill10fill_classINS0_8fill_eyeEEC1Ev"
 "_ZN4arma4fill10fill_classINS0_9fill_noneEEC1Ev"
 "_ZN4arma4fill10fill_classINS0_9fill_onesEEC1Ev"
 "_ZN4arma4priv12Datum_helper3nanIdEENS_14arma_real_onlyIT_E6resultEPS6_"
 "_ZN4arma4priv12Datum_helper3nanIiEENS_18arma_integral_onlyIT_E6resultEPS6_"
 "_ZN4arma5DatumIdE3nanE"
 "_ZN4arma5DatumIiE3nanE"
 "_ZN4arma9hdf5_opts10opts_transC1Ev"
 "_ZN4arma9hdf5_opts11opts_appendC1Ev"
 "_ZN4arma9hdf5_opts12opts_replaceC1Ev"
 "_ZN4arma9hdf5_opts4optsC2Ej"
 "_ZN4arma9hdf5_opts9opts_noneC1Ev"
 "_ZN4Rcpp10RstreambufILb0EE4syncEv"
 "_ZN4Rcpp10RstreambufILb0EE6xsputnEPKcx"
 "_ZN4Rcpp10RstreambufILb0EE8overflowEi"
 "_ZN4Rcpp10RstreambufILb0EEC1Ev"
 "_ZN4Rcpp10RstreambufILb0EED0Ev"
 "_ZN4Rcpp10RstreambufILb0EED1Ev"
 "_ZN4Rcpp10RstreambufILb1EE4syncEv"
 "_ZN4Rcpp10RstreambufILb1EE6xsputnEPKcx"
 "_ZN4Rcpp10RstreambufILb1EE8overflowEi"
 "_ZN4Rcpp10RstreambufILb1EEC1Ev"
 "_ZN4Rcpp10RstreambufILb1EED0Ev"
 "_ZN4Rcpp10RstreambufILb1EED1Ev"
 "_ZN4Rcpp8internal16NamedPlaceHolderC1Ev"
 "_ZN4Rcpp8internal16NamedPlaceHolderD1Ev"
 "_ZN4Rcpp8RostreamILb0EEC1Ev"
 "_ZN4Rcpp8RostreamILb0EED0Ev"
 "_ZN4Rcpp8RostreamILb0EED1Ev"
 "_ZN4Rcpp8RostreamILb1EEC1Ev"
 "_ZN4Rcpp8RostreamILb1EED0Ev"
 "_ZN4Rcpp8RostreamILb1EED1Ev"
 "_ZNSt11char_traitsIcE12to_char_typeERKi"
 "_ZNSt11char_traitsIcE3eofEv"
 "_ZNSt14numeric_limitsIdE9quiet_NaNEv"
 "_ZNSt9bad_allocC1Ev"
 "_ZNSt9exceptionC2Ev"
 "_ZTCN4Rcpp8RostreamILb0EEE0_So"
 "_ZTCN4Rcpp8RostreamILb1EEE0_So"
 "_ZTIN4Rcpp10RstreambufILb0EEE"
 "_ZTIN4Rcpp10RstreambufILb1EEE"
 "_ZTIN4Rcpp8RostreamILb0EEE"
 "_ZTIN4Rcpp8RostreamILb1EEE"
 "_ZTISt11logic_error"
 "_ZTISt9bad_alloc"
 "_ZTISt9exception"
 "_ZTSN4Rcpp10RstreambufILb0EEE"
 "_ZTSN4Rcpp10RstreambufILb1EEE"
 "_ZTSN4Rcpp8RostreamILb0EEE"
 "_ZTSN4Rcpp8RostreamILb1EEE"
 "_ZTSSt11logic_error"
 "_ZTSSt9bad_alloc"
 "_ZTSSt9exception"
 "_ZTTN4Rcpp8RostreamILb0EEE"
 "_ZTTN4Rcpp8RostreamILb1EEE"
 "_ZTv0_n24_N4Rcpp8RostreamILb0EED0Ev"
 "_ZTv0_n24_N4Rcpp8RostreamILb0EED1Ev"
 "_ZTv0_n24_N4Rcpp8RostreamILb1EED0Ev"
 "_ZTv0_n24_N4Rcpp8RostreamILb1EED1Ev"
 "_ZTVN4Rcpp10RstreambufILb0EEE"
 "_ZTVN4Rcpp10RstreambufILb1EEE"
 "_ZTVN4Rcpp8RostreamILb0EEE"
 "_ZTVN4Rcpp8RostreamILb1EEE"
 "_ZZN4arma16arma_cerr_streamIcEERSoPSoE11cerr_stream"
 "R_init_Rvision"
 "_rcpp_module_boot_class_Image"
 "_rcpp_module_boot_class_Stream"
 "_rcpp_module_boot_class_Video"
 "_rcpp_module_boot_class_VideoWriter"
 "_rcpp_module_boot_methods_Arithmetic"
 "_rcpp_module_boot_methods_Blob"
 "_rcpp_module_boot_methods_Comparisons"
 "_rcpp_module_boot_methods_Display"
 "_rcpp_module_boot_methods_Draw"
 "_rcpp_module_boot_methods_Filters"
 "_rcpp_module_boot_methods_Geometry"
 "_rcpp_module_boot_methods_Logical"
 "_rcpp_module_boot_methods_Morphology"
 "_rcpp_module_boot_methods_OpticalFlow"
 "_rcpp_module_boot_methods_Shape"
 "_rcpp_module_boot_methods_Statistics"
 "_rcpp_module_boot_methods_Transform"
 "_Z10_boxFilter5Imageii"
 "_Z10_difScalar5Imaged"
 "_Z10_drawLines5ImageN4Rcpp6VectorILi14ENS0_15PreserveStorageEEES3_S3_S3_NS0_6MatrixILi13ES2_EENS1_ILi13ES2_EE"
 "_Z10_drawTexts5ImageN4Rcpp6VectorILi16ENS0_15PreserveStorageEEENS1_ILi14ES2_EES4_NS1_ILi13ES2_EES4_NS0_6MatrixILi13ES2_EES5_NS1_ILi10ES2_EE"
 "_Z10_farneback5ImageS_diiiid"
 "_Z10_ieqScalar5Imaged"
 "_Z10_infScalar5Imaged"
 "_Z10_laplacian5Imageid"
 "_Z10_minMaxLoc5Image"
 "_Z10_outputMat5ImageS_"
 "_Z10_readMultiSs"
 "_Z10_seqScalar5Imaged"
 "_Z10_supScalar5Imaged"
 "_Z10col2ScalarN4Rcpp6VectorILi13ENS_15PreserveStorageEEE"
 "_Z11_cloneImage5Image"
 "_Z11_computeECC5ImageS_"
 "_Z11_drawArrows5ImageN4Rcpp6VectorILi14ENS0_15PreserveStorageEEES3_S3_S3_S3_NS0_6MatrixILi13ES2_EENS1_ILi13ES2_EE"
 "_Z11_medianBlur5Imagei"
 "_Z11_newDisplaySsii"
 "_Z11_plusScalar5Imaged"
 "_Z11_warpAffine5ImageN4arma3MatIfEEN4Rcpp6VectorILi13ENS3_15PreserveStorageEEEiiS6_"
 "_Z11ImageConst1PP7SEXPRECi"
 "_Z11ImageConst2PP7SEXPRECi"
 "_Z11ImageConst3PP7SEXPRECi"
 "_Z11stack_tracePKci"
 "_Z12_addWeighted5ImagedS_d"
 "_Z12_drawCircles5ImageN4Rcpp6VectorILi14ENS0_15PreserveStorageEEES3_NS1_ILi13ES2_EENS0_6MatrixILi13ES2_EES4_"
 "_Z12_findNonZero5Image"
 "_Z12_getTextSizeSsidi"
 "_Z12_minusScalar5Imagedb"
 "_Z12_morphCustom5ImageiN4Rcpp6VectorILi14ENS0_15PreserveStorageEEEi"
 "_Z12_sepFilter2D5ImageN4Rcpp6VectorILi14ENS0_15PreserveStorageEEES3_"
 "_Z13_drawEllipses5ImageN4Rcpp6VectorILi14ENS0_15PreserveStorageEEES3_S3_S3_S3_S3_S3_NS0_6MatrixILi13ES2_EENS1_ILi13ES2_EE"
 "_Z13_findContours5ImageiiN4Rcpp6VectorILi14ENS0_15PreserveStorageEEE"
 "_Z13_gaussianBlur5Imageiidd"
 "_Z13_sqrBoxFilter5Imageiib"
 "_Z13get_last_callv"
 "_Z14_matchTemplate5ImageS_iS_"
 "_Z14make_conditionRKSsP7SEXPRECS2_S2_"
 "_Z15_copyMakeBorderR5ImageiiiiiN4Rcpp6VectorILi13ENS1_15PreserveStorageEEE"
 "_Z15_destroyDisplaySs"
 "_Z15_drawRectangles5ImageN4Rcpp6VectorILi14ENS0_15PreserveStorageEEES3_S3_S3_NS0_6MatrixILi13ES2_EENS1_ILi13ES2_EE"
 "_Z15_multiplyScalar5Imaged"
 "_Z15getCurrentScopev"
 "_Z15setCurrentScopePN4Rcpp6ModuleE"
 "_Z16_bilateralFilter5Imageidd"
 "_Z16_warpPerspective5ImageN4arma3MatIfEEN4Rcpp6VectorILi13ENS3_15PreserveStorageEEEiiS6_"
 "_Z17_findTransformECC5ImageS_iidi"
 "_Z18_adaptiveThreshold5Imagediiid"
 "_Z19_destroyAllDisplaysv"
 "_Z19_simpleBlobDetector5Imagefffyfbffbhbffbffbff"
 "_Z19string_to_try_errorRKSs"
 "_Z20_connectedComponents5Imagei"
 "_Z20_getRotationMatrix2DN4arma3ColIfEEdd"
 "_Z20_matchTemplateNoMask5ImageS_i"
 "_Z20_selectBoundingBoxes5ImageSsb"
 "_Z20rcpp_get_stack_tracev"
 "_Z20rcpp_set_stack_traceP7SEXPREC"
 "_Z21get_exception_classesRKSs"
 "_Z24exception_to_r_conditionRKSt9exception"
 "_Z29_rcpp_module_class_Image_initv"
 "_Z29_rcpp_module_class_Video_initv"
 "_Z29rcpp_exception_to_r_conditionRKN4Rcpp9exceptionE"
 "_Z3_eq5ImageS_"
 "_Z3_or5ImageS_"
 "_Z30_rcpp_module_class_Stream_initv"
 "_Z30_rcpp_module_methods_Blob_initv"
 "_Z30_rcpp_module_methods_Draw_initv"
 "_Z31_rcpp_module_methods_Shape_initv"
 "_Z31exception_to_condition_templateIN4Rcpp9exceptionEEP7SEXPRECRKT_b"
 "_Z31exception_to_condition_templateISt9exceptionEP7SEXPRECRKT_b"
 "_Z33_rcpp_module_methods_Display_initv"
 "_Z33_rcpp_module_methods_Filters_initv"
 "_Z33_rcpp_module_methods_Logical_initv"
 "_Z34_rcpp_module_methods_Geometry_initv"
 "_Z35_rcpp_module_class_VideoWriter_initv"
 "_Z35_rcpp_module_methods_Transform_initv"
 "_Z36_rcpp_module_methods_Arithmetic_initv"
 "_Z36_rcpp_module_methods_Morphology_initv"
 "_Z36_rcpp_module_methods_Statistics_initv"
 "_Z37_rcpp_module_methods_Comparisons_initv"
 "_Z37_rcpp_module_methods_OpticalFlow_initv"
 "_Z4_and5ImageS_"
 "_Z4_dif5ImageS_"
 "_Z4_ieq5ImageS_"
 "_Z4_inf5ImageS_"
 "_Z4_max5Image"
 "_Z4_min5Image"
 "_Z4_not5Image"
 "_Z4_seq5ImageS_"
 "_Z4_sumN4Rcpp6VectorILi19ENS_15PreserveStorageEEE"
 "_Z4_sup5ImageS_"
 "_Z5_blur5Imageii"
 "_Z5_meanN4Rcpp6VectorILi19ENS_15PreserveStorageEEE"
 "_Z5_plus5ImageS_"
 "_Z6_clickSs"
 "_Z6_mergeRN4Rcpp6VectorILi19ENS_15PreserveStorageEEE"
 "_Z6_minus5ImageS_"
 "_Z6_morph5Imageiiiii"
 "_Z6_sobel5Imageiiid"
 "_Z6_split5Image"
 "_Z6cvTypeIfEii"
 "_Z7_divide5ImageS_"
 "_Z7_resize5Imageiiddi"
 "_Z7_scharr5Imageiid"
 "_Z7arma2cvIfEvRN4arma3MatIT_EERN2cv3MatE"
 "_Z7cv2armaIdEvRN2cv3MatERN4arma3MatIT_EE"
 "_Z7cv2armaIfEvRN2cv3MatERN4arma3MatIT_EE"
 "_Z7dataptrP7SEXPREC"
 "_Z7onMouseiiiiPv"
 "_Z8_absdiff5ImageS_"
 "_Z8_display5ImageSsiii"
 "_Z8_inpaint5ImageS_di"
 "_Z8demangleRKSs"
 "_Z8getAPIIdSs"
 "_Z8str2typeSs"
 "_Z8type2stri"
 "_Z9_eqScalar5Imaged"
 "_Z9_fillPoly5ImageN4Rcpp6MatrixILi13ENS0_15PreserveStorageEEENS0_6VectorILi13ES2_EE"
 "_Z9_filter2D5ImageN4Rcpp6MatrixILi14ENS0_15PreserveStorageEEE"
 "_Z9_multiply5ImageS_"
 "_Z9_subimageR5Imageiiii"
 "_Z9getPropIdSs"
 "_ZdlPvS_"
 "_ZGVN4arma5DatumIdE3nanE"
 "_ZGVN4arma5DatumIiE3nanE"
 "_ZGVN7cvflann7anyimpl12SinglePolicyIbE6policyE"
 "_ZGVN7cvflann7anyimpl12SinglePolicyIfE6policyE"
 "_ZGVN7cvflann7anyimpl12SinglePolicyIiE6policyE"
 "_ZGVN7cvflann7anyimpl12SinglePolicyIjE6policyE"
 "_ZGVN7cvflann7anyimpl12SinglePolicyINS_17flann_algorithm_tEE6policyE"
 "_ZGVN7cvflann7anyimpl12SinglePolicyINS_20flann_centers_init_tEE6policyE"
 "_ZGVN7cvflann7anyimpl12SinglePolicyINS0_9empty_anyEE6policyE"
 "_ZGVN7cvflann7anyimpl12SinglePolicyIPKcE6policyE"
 "_ZGVN7cvflann7anyimpl12SinglePolicyISsE6policyE"
 "_ZGVZ11stack_tracePKciE3fun"
 "_ZGVZ15getCurrentScopevE3fun"
 "_ZGVZ15setCurrentScopePN4Rcpp6ModuleEE3fun"
 "_ZGVZ20rcpp_get_stack_tracevE3fun"
 "_ZGVZ20rcpp_set_stack_traceP7SEXPRECE3fun"
 "_ZGVZ7dataptrP7SEXPRECE3fun"
 "_ZGVZ8demangleRKSsE3fun"
 "_ZGVZN4Rcpp24CppFunction_WithFormals0IvEclEPP7SEXPRECE8stop_sym"
 "_ZGVZN4Rcpp24CppFunction_WithFormals1I5ImageNS_6VectorILi19ENS_15PreserveStorageEEEEclEPP7SEXPRECE8stop_sym"
 "_ZGVZN4Rcpp24CppFunction_WithFormals1I5ImageRNS_6VectorILi19ENS_15PreserveStorageEEEEclEPP7SEXPRECE8stop_sym"
 "_ZGVZN4Rcpp24CppFunction_WithFormals1I5ImageS1_EclEPP7SEXPRECE8stop_sym"
 "_ZGVZN4Rcpp24CppFunction_WithFormals1Id5ImageEclEPP7SEXPRECE8stop_sym"
 "_ZGVZN4Rcpp24CppFunction_WithFormals1INS_14DataFrame_ImplINS_15PreserveStorageEEE5ImageEclEPP7SEXPRECE8stop_sym"
 "_ZGVZN4Rcpp24CppFunction_WithFormals1INS_14DataFrame_ImplINS_15PreserveStorageEEESsEclEPP7SEXPRECE8stop_sym"
 "_ZGVZN4Rcpp24CppFunction_WithFormals1INS_6MatrixILi14ENS_15PreserveStorageEEE5ImageEclEPP7SEXPRECE8stop_sym"
 "_ZGVZN4Rcpp24CppFunction_WithFormals1INS_6VectorILi19ENS_15PreserveStorageEEE5ImageEclEPP7SEXPRECE8stop_sym"
 "_ZGVZN4Rcpp24CppFunction_WithFormals1INS_6VectorILi19ENS_15PreserveStorageEEESsEclEPP7SEXPRECE8stop_sym"
 "_ZGVZN4Rcpp24CppFunction_WithFormals1IvSsEclEPP7SEXPRECE8stop_sym"
 "_ZGVZN4Rcpp24CppFunction_WithFormals2I5ImageS1_dEclEPP7SEXPRECE8stop_sym"
 "_ZGVZN4Rcpp24CppFunction_WithFormals2I5ImageS1_iEclEPP7SEXPRECE8stop_sym"
 "_ZGVZN4Rcpp24CppFunction_WithFormals2I5ImageS1_NS_6MatrixILi14ENS_15PreserveStorageEEEEclEPP7SEXPRECE8stop_sym"
 "_ZGVZN4Rcpp24CppFunction_WithFormals2I5ImageS1_S1_EclEPP7SEXPRECE8stop_sym"
 "_ZGVZN4Rcpp24CppFunction_WithFormals2Id5ImageS1_EclEPP7SEXPRECE8stop_sym"
 "_ZGVZN4Rcpp24CppFunction_WithFormals2INS_6VectorILi19ENS_15PreserveStorageEEE5ImageiEclEPP7SEXPRECE8stop_sym"
 "_ZGVZN4Rcpp24CppFunction_WithFormals3I5ImageS1_dbEclEPP7SEXPRECE8stop_sym"
 "_ZGVZN4Rcpp24CppFunction_WithFormals3I5ImageS1_idEclEPP7SEXPRECE8stop_sym"
 "_ZGVZN4Rcpp24CppFunction_WithFormals3I5ImageS1_iiEclEPP7SEXPRECE8stop_sym"
 "_ZGVZN4Rcpp24CppFunction_WithFormals3I5ImageS1_NS_6VectorILi14ENS_15PreserveStorageEEES4_EclEPP7SEXPRECE8stop_sym"
 "_ZGVZN4Rcpp24CppFunction_WithFormals3I5ImageS1_S1_iEclEPP7SEXPRECE8stop_sym"
 "_ZGVZN4Rcpp24CppFunction_WithFormals3IN4arma3MatIdEENS1_3ColIfEEddEclEPP7SEXPRECE8stop_sym"
 "_ZGVZN4Rcpp24CppFunction_WithFormals3INS_14DataFrame_ImplINS_15PreserveStorageEEE5ImageSsbEclEPP7SEXPRECE8stop_sym"
 "_ZGVZN4Rcpp24CppFunction_WithFormals3Iv5ImageNS_6MatrixILi13ENS_15PreserveStorageEEENS_6VectorILi13ES3_EEEclEPP7SEXPRECE8stop_sym"
 "_ZGVZN4Rcpp24CppFunction_WithFormals3IvSsiiEclEPP7SEXPRECE8stop_sym"
 "_ZGVZN4Rcpp24CppFunction_WithFormals4I5ImageS1_dS1_dEclEPP7SEXPRECE8stop_sym"
 "_ZGVZN4Rcpp24CppFunction_WithFormals4I5ImageS1_iddEclEPP7SEXPRECE8stop_sym"
 "_ZGVZN4Rcpp24CppFunction_WithFormals4I5ImageS1_iibEclEPP7SEXPRECE8stop_sym"
 "_ZGVZN4Rcpp24CppFunction_WithFormals4I5ImageS1_iidEclEPP7SEXPRECE8stop_sym"
 "_ZGVZN4Rcpp24CppFunction_WithFormals4I5ImageS1_iNS_6VectorILi14ENS_15PreserveStorageEEEiEclEPP7SEXPRECE8stop_sym"
 "_ZGVZN4Rcpp24CppFunction_WithFormals4I5ImageS1_S1_diEclEPP7SEXPRECE8stop_sym"
 "_ZGVZN4Rcpp24CppFunction_WithFormals4I5ImageS1_S1_iS1_EclEPP7SEXPRECE8stop_sym"
 "_ZGVZN4Rcpp24CppFunction_WithFormals4INS_6VectorILi14ENS_15PreserveStorageEEESsidiEclEPP7SEXPRECE8stop_sym"
 "_ZGVZN4Rcpp24CppFunction_WithFormals4INS_6VectorILi19ENS_15PreserveStorageEEE5ImageiiNS1_ILi14ES2_EEEclEPP7SEXPRECE8stop_sym"
 "_ZGVZN4Rcpp24CppFunction_WithFormals5I5ImageRS1_iiiiEclEPP7SEXPRECE8stop_sym"
 "_ZGVZN4Rcpp24CppFunction_WithFormals5I5ImageS1_iiddEclEPP7SEXPRECE8stop_sym"
 "_ZGVZN4Rcpp24CppFunction_WithFormals5I5ImageS1_iiidEclEPP7SEXPRECE8stop_sym"
 "_ZGVZN4Rcpp24CppFunction_WithFormals5Iv5ImageSsiiiEclEPP7SEXPRECE8stop_sym"
 "_ZGVZN4Rcpp24CppFunction_WithFormals6I5ImageS1_diiidEclEPP7SEXPRECE8stop_sym"
 "_ZGVZN4Rcpp24CppFunction_WithFormals6I5ImageS1_iiddiEclEPP7SEXPRECE8stop_sym"
 "_ZGVZN4Rcpp24CppFunction_WithFormals6I5ImageS1_iiiiiEclEPP7SEXPRECE8stop_sym"
 "_ZGVZN4Rcpp24CppFunction_WithFormals6I5ImageS1_N4arma3MatIfEENS_6VectorILi13ENS_15PreserveStorageEEEiiS7_EclEPP7SEXPRECE8stop_sym"
 "_ZGVZN4Rcpp24CppFunction_WithFormals6IN4arma3MatIfEE5ImageS4_iidiEclEPP7SEXPRECE8stop_sym"
 "_ZGVZN4Rcpp24CppFunction_WithFormals6Iv5ImageNS_6VectorILi14ENS_15PreserveStorageEEES4_NS2_ILi13ES3_EENS_6MatrixILi13ES3_EES5_EclEPP7SEXPRECE8stop_sym"
 "_ZGVZN4Rcpp24CppFunction_WithFormals7I5ImageRS1_iiiiiNS_6VectorILi13ENS_15PreserveStorageEEEEclEPP7SEXPRECE8stop_sym"
 "_ZGVZN4Rcpp24CppFunction_WithFormals7Iv5ImageNS_6VectorILi14ENS_15PreserveStorageEEES4_S4_S4_NS_6MatrixILi13ES3_EENS2_ILi13ES3_EEEclEPP7SEXPRECE8stop_sym"
 "_ZGVZN4Rcpp24CppFunction_WithFormals8IN4arma4CubeIdEE5ImageS4_diiiidEclEPP7SEXPRECE8stop_sym"
 "_ZGVZN4Rcpp24CppFunction_WithFormals8Iv5ImageNS_6VectorILi14ENS_15PreserveStorageEEES4_S4_S4_S4_NS_6MatrixILi13ES3_EENS2_ILi13ES3_EEEclEPP7SEXPRECE8stop_sym"
 "_ZGVZN4Rcpp24CppFunction_WithFormals9Iv5ImageNS_6VectorILi16ENS_15PreserveStorageEEENS2_ILi14ES3_EES5_NS2_ILi13ES3_EES5_NS_6MatrixILi13ES3_EES6_NS2_ILi10ES3_EEEclEPP7SEXPRECE8stop_sym"
 "_ZGVZN4Rcpp25CppFunction_WithFormals10Iv5ImageNS_6VectorILi14ENS_15PreserveStorageEEES4_S4_S4_S4_S4_S4_NS_6MatrixILi13ES3_EENS2_ILi13ES3_EEEclEPP7SEXPRECE8stop_sym"
 "_ZGVZN4Rcpp25CppFunction_WithFormals20INS_14DataFrame_ImplINS_15PreserveStorageEEE5ImagefffyfbffbhbffbffbffEclEPP7SEXPRECE8stop_sym"
 "_ZGVZN4Rcpp6class_I11VideoWriterE11getPropertyEP7SEXPRECS4_E8stop_sym"
 "_ZGVZN4Rcpp6class_I11VideoWriterE11invoke_voidEP7SEXPRECS4_PS4_iE8stop_sym"
 "_ZGVZN4Rcpp6class_I11VideoWriterE11newInstanceEPP7SEXPRECiE8stop_sym"
 "_ZGVZN4Rcpp6class_I11VideoWriterE11setPropertyEP7SEXPRECS4_S4_E8stop_sym"
 "_ZGVZN4Rcpp6class_I11VideoWriterE14invoke_notvoidEP7SEXPRECS4_PS4_iE8stop_sym"
 "_ZGVZN4Rcpp6class_I11VideoWriterE6invokeEP7SEXPRECS4_PS4_iE8stop_sym"
 "_ZGVZN4Rcpp6class_I5ImageE11getPropertyEP7SEXPRECS4_E8stop_sym"
 "_ZGVZN4Rcpp6class_I5ImageE11invoke_voidEP7SEXPRECS4_PS4_iE8stop_sym"
 "_ZGVZN4Rcpp6class_I5ImageE11newInstanceEPP7SEXPRECiE8stop_sym"
 "_ZGVZN4Rcpp6class_I5ImageE11setPropertyEP7SEXPRECS4_S4_E8stop_sym"
 "_ZGVZN4Rcpp6class_I5ImageE14invoke_notvoidEP7SEXPRECS4_PS4_iE8stop_sym"
 "_ZGVZN4Rcpp6class_I5ImageE6invokeEP7SEXPRECS4_PS4_iE8stop_sym"
 "_ZGVZN4Rcpp6class_I5VideoE11getPropertyEP7SEXPRECS4_E8stop_sym"
 "_ZGVZN4Rcpp6class_I5VideoE11invoke_voidEP7SEXPRECS4_PS4_iE8stop_sym"
 "_ZGVZN4Rcpp6class_I5VideoE11newInstanceEPP7SEXPRECiE8stop_sym"
 "_ZGVZN4Rcpp6class_I5VideoE11setPropertyEP7SEXPRECS4_S4_E8stop_sym"
 "_ZGVZN4Rcpp6class_I5VideoE14invoke_notvoidEP7SEXPRECS4_PS4_iE8stop_sym"
 "_ZGVZN4Rcpp6class_I5VideoE6invokeEP7SEXPRECS4_PS4_iE8stop_sym"
 "_ZGVZN4Rcpp6class_I6StreamE11getPropertyEP7SEXPRECS4_E8stop_sym"
 "_ZGVZN4Rcpp6class_I6StreamE11invoke_voidEP7SEXPRECS4_PS4_iE8stop_sym"
 "_ZGVZN4Rcpp6class_I6StreamE11newInstanceEPP7SEXPRECiE8stop_sym"
 "_ZGVZN4Rcpp6class_I6StreamE11setPropertyEP7SEXPRECS4_S4_E8stop_sym"
 "_ZGVZN4Rcpp6class_I6StreamE14invoke_notvoidEP7SEXPRECS4_PS4_iE8stop_sym"
 "_ZGVZN4Rcpp6class_I6StreamE6invokeEP7SEXPRECS4_PS4_iE8stop_sym"
 "_ZGVZN4Rcpp8internal18get_Rcpp_namespaceEvE3fun"
 "_ZN10tinyformat10FormatListC2EPNS_6detail9FormatArgEi"
 "_ZN10tinyformat11formatValueIiEEvRSoPKcS3_iRKT_"
 "_ZN10tinyformat11formatValueIPKcEEvRSoS2_S2_iRKT_"
 "_ZN10tinyformat11formatValueIxEEvRSoPKcS3_iRKT_"
 "_ZN10tinyformat14makeFormatListIIEEENS_6detail11FormatListNIXstDpT_EEEDpRKS3_"
 "_ZN10tinyformat14makeFormatListIIiEEENS_6detail11FormatListNIXstDpT_EEEDpRKS3_"
 "_ZN10tinyformat14makeFormatListIIiiEEENS_6detail11FormatListNIXstDpT_EEEDpRKS3_"
 "_ZN10tinyformat14makeFormatListIIPKcEEENS_6detail11FormatListNIXstDpT_EEEDpRKS5_"
 "_ZN10tinyformat14makeFormatListIIPKciEEENS_6detail11FormatListNIXstDpT_EEEDpRKS5_"
 "_ZN10tinyformat14makeFormatListIIxxEEENS_6detail11FormatListNIXstDpT_EEEDpRKS3_"
 "_ZN10tinyformat6detail10formatImplERSoPKcPKNS0_9FormatArgEi"
 "_ZN10tinyformat6detail11FormatListNILi0EEC1Ev"
 "_ZN10tinyformat6detail11FormatListNILi1EEC1IIiEEEDpRKT_"
 "_ZN10tinyformat6detail11FormatListNILi1EEC1IIPKcEEEDpRKT_"
 "_ZN10tinyformat6detail11FormatListNILi2EEC1IIiiEEEDpRKT_"
 "_ZN10tinyformat6detail11FormatListNILi2EEC1IIPKciEEEDpRKT_"
 "_ZN10tinyformat6detail11FormatListNILi2EEC1IIxxEEEDpRKT_"
 "_ZN10tinyformat6detail12convertToIntIiLb1EE6invokeERKi"
 "_ZN10tinyformat6detail12convertToIntIPKcLb0EE6invokeERKS3_"
 "_ZN10tinyformat6detail12convertToIntIxLb1EE6invokeERKx"
 "_ZN10tinyformat6detail15formatTruncatedERSoPKci"
 "_ZN10tinyformat6detail15formatTruncatedIiEEvRSoRKT_i"
 "_ZN10tinyformat6detail15formatTruncatedIxEEvRSoRKT_i"
 "_ZN10tinyformat6detail17formatValueAsTypeIicLb1EE6invokeERSoRKi"
 "_ZN10tinyformat6detail17formatValueAsTypeIPKcPKvLb1EE6invokeERSoRKS3_"
 "_ZN10tinyformat6detail17formatValueAsTypeIxcLb1EE6invokeERSoRKx"
 "_ZN10tinyformat6detail18parseIntAndAdvanceERPKc"
 "_ZN10tinyformat6detail21streamStateFromFormatERSoRbRiPKcPKNS0_9FormatArgES3_i"
 "_ZN10tinyformat6detail24printFormatStringLiteralERSoPKc"
 "_ZN10tinyformat6detail9FormatArg10formatImplIiEEvRSoPKcS5_iPKv"
 "_ZN10tinyformat6detail9FormatArg10formatImplIPKcEEvRSoS4_S4_iPKv"
 "_ZN10tinyformat6detail9FormatArg10formatImplIxEEvRSoPKcS5_iPKv"
 "_ZN10tinyformat6detail9FormatArg9toIntImplIiEEiPKv"
 "_ZN10tinyformat6detail9FormatArg9toIntImplIPKcEEiPKv"
 "_ZN10tinyformat6detail9FormatArg9toIntImplIxEEiPKv"
 "_ZN10tinyformat6detail9FormatArgC1IiEERKT_"
 "_ZN10tinyformat6detail9FormatArgC1IPKcEERKT_"
 "_ZN10tinyformat6detail9FormatArgC1IxEERKT_"
 "_ZN10tinyformat6formatIIEEESsPKcDpRKT_"
 "_ZN10tinyformat6formatIIEEEvRSoPKcDpRKT_"
 "_ZN10tinyformat6formatIIiEEESsPKcDpRKT_"
 "_ZN10tinyformat6formatIIiEEEvRSoPKcDpRKT_"
 "_ZN10tinyformat6formatIIiiEEESsPKcDpRKT_"
 "_ZN10tinyformat6formatIIiiEEEvRSoPKcDpRKT_"
 "_ZN10tinyformat6formatIIPKcEEESsS2_DpRKT_"
 "_ZN10tinyformat6formatIIPKcEEEvRSoS2_DpRKT_"
 "_ZN10tinyformat6formatIIPKciEEESsS2_DpRKT_"
 "_ZN10tinyformat6formatIIPKciEEEvRSoS2_DpRKT_"
 "_ZN10tinyformat6formatIIxxEEESsPKcDpRKT_"
 "_ZN10tinyformat6formatIIxxEEEvRSoPKcDpRKT_"
 "_ZN10tinyformat7vformatERSoPKcRKNS_10FormatListE"
 "_ZN11VideoWriter3apiEv"
 "_ZN11VideoWriter3dimEv"
 "_ZN11VideoWriter3fpsEv"
 "_ZN11VideoWriter3getESs"
 "_ZN11VideoWriter3setESsd"
 "_ZN11VideoWriter4ncolEv"
 "_ZN11VideoWriter4nrowEv"
 "_ZN11VideoWriter4openESsSsdiibSs"
 "_ZN11VideoWriter5codecEv"
 "_ZN11VideoWriter5writeE5Image"
 "_ZN11VideoWriter6outputEv"
 "_ZN11VideoWriter7releaseEv"
 "_ZN11VideoWriter8isOpenedEv"
 "_ZN11VideoWriterC1ESsSsdiibSs"
 "_ZN11VideoWriterC1Ev"
 "_ZN11VideoWriterC2ESsSsdiibSs"
 "_ZN11VideoWriterC2Ev"
 "_ZN11VideoWriterD1Ev"
 "_ZN2cv11_InputArray4initEiPKv"
 "_ZN2cv11_InputArray4initEiPKvNS_5Size_IiEE"
 "_ZN2cv11_InputArrayC1ERKNS_3MatE"
 "_ZN2cv11_InputArrayC1ERKSt6vectorINS_3MatESaIS2_EE"
 "_ZN2cv11_InputArrayC1IdLi4ELi1EEERKNS_4MatxIT_XT0_EXT1_EEE"
 "_ZN2cv11_InputArrayC1INS_6Point_IiEEEERKSt6vectorIS4_IT_SaIS5_EESaIS7_EE"
 "_ZN2cv11_InputArrayC2Ev"
 "_ZN2cv11_InputArrayD1Ev"
 "_ZN2cv11_InputArrayD2Ev"
 "_ZN2cv12_OutputArrayC1ERKNS_3MatE"
 "_ZN2cv12_OutputArrayC1ERNS_3MatE"
 "_ZN2cv12_OutputArrayC1ERSt6vectorINS_3MatESaIS2_EE"
 "_ZN2cv12_OutputArrayC1INS_3VecIiLi4EEEEERSt6vectorIT_SaIS5_EE"
 "_ZN2cv12_OutputArrayC1INS_6Point_IiEEEERSt6vectorIS4_IT_SaIS5_EESaIS7_EE"
 "_ZN2cv12_OutputArrayC1INS_6Point_IiEEEERSt6vectorIT_SaIS5_EE"
 "_ZN2cv12_OutputArrayC2Ev"
 "_ZN2cv12_OutputArrayD1Ev"
 "_ZN2cv12_OutputArrayD2Ev"
 "_ZN2cv12TermCriteriaC1Eiid"
 "_ZN2cv17_InputOutputArrayC1ERNS_3MatE"
 "_ZN2cv17_InputOutputArrayD1Ev"
 "_ZN2cv19getRotationMatrix2DENS_6Point_IfEEdd"
 "_ZN2cv3Mat2atIdEERT_ii"
 "_ZN2cv3Mat2atIfEERT_ii"
 "_ZN2cv3Mat2atIhEERT_ii"
 "_ZN2cv3Mat2atIiEERT_ii"
 "_ZN2cv3Mat2atINS_3VecIfLi2EEEEERT_ii"
 "_ZN2cv3Mat2atINS_3VecIfLi3EEEEERT_ii"
 "_ZN2cv3Mat2atINS_3VecIfLi4EEEEERT_ii"
 "_ZN2cv3Mat2atINS_3VecIhLi3EEEEERT_ii"
 "_ZN2cv3Mat2atINS_3VecIhLi4EEEEERT_ii"
 "_ZN2cv3Mat2atINS_3VecIsLi3EEEEERT_ii"
 "_ZN2cv3Mat2atINS_3VecIsLi4EEEEERT_ii"
 "_ZN2cv3Mat2atINS_6Point_IfEEEERT_ii"
 "_ZN2cv3Mat2atItEERT_ii"
 "_ZN2cv3Mat6createEiii"
 "_ZN2cv3Mat7releaseEv"
 "_ZN2cv3MataSEOS0_"
 "_ZN2cv3MataSERKNS_7MatExprE"
 "_ZN2cv3MataSERKS0_"
 "_ZN2cv3MatC1Eiii"
 "_ZN2cv3MatC1EiiiPvy"
 "_ZN2cv3MatC1ERKS0_"
 "_ZN2cv3MatC1Ev"
 "_ZN2cv3MatC1IdLi2ELi3EEERKNS_4MatxIT_XT0_EXT1_EEEb"
 "_ZN2cv3MatD1Ev"
 "_ZN2cv3PtrINS_18SimpleBlobDetectorEED1Ev"
 "_ZN2cv3VecIdLi4EEC2Ev"
 "_ZN2cv3VecIdLi4EEixEi"
 "_ZN2cv3VecIfLi2EEixEi"
 "_ZN2cv3VecIfLi3EEixEi"
 "_ZN2cv3VecIfLi4EEixEi"
 "_ZN2cv3VecIhLi3EEC1Ev"
 "_ZN2cv3VecIhLi3EEclEi"
 "_ZN2cv3VecIhLi3EEixEi"
 "_ZN2cv3VecIhLi4EEC1Ev"
 "_ZN2cv3VecIhLi4EEclEi"
 "_ZN2cv3VecIhLi4EEixEi"
 "_ZN2cv3VecIiLi4EEixEi"
 "_ZN2cv3VecIsLi3EEC1Ev"
 "_ZN2cv3VecIsLi3EEclEi"
 "_ZN2cv3VecIsLi4EEC1Ev"
 "_ZN2cv3VecIsLi4EEclEi"
 "_ZN2cv4MatxIdLi4ELi1EEC2Ev"
 "_ZN2cv4MatxIhLi3ELi1EEC2Ev"
 "_ZN2cv4MatxIhLi4ELi1EEC2Ev"
 "_ZN2cv4MatxIsLi3ELi1EEC2Ev"
 "_ZN2cv4MatxIsLi4ELi1EEC2Ev"
 "_ZN2cv5Rect_IiEC1Eiiii"
 "_ZN2cv5Size_IiEaSERKS1_"
 "_ZN2cv5Size_IiEC1Eii"
 "_ZN2cv5Size_IiEC1Ev"
 "_ZN2cv6Point_IfEC1Eff"
 "_ZN2cv6Point_IfEC1ERKS1_"
 "_ZN2cv6Point_IiEC1Eii"
 "_ZN2cv6Point_IiEC1EOS1_"
 "_ZN2cv6Point_IiEC1ERKS1_"
 "_ZN2cv6Point_IiEC1Ev"
 "_ZN2cv7MatExprD1Ev"
 "_ZN2cv7MatSizeC1EPi"
 "_ZN2cv7MatStepC1Ev"
 "_ZN2cv7MatStepC1Ey"
 "_ZN2cv7MatStepixEi"
 "_ZN2cv7Scalar_IdE3allEd"
 "_ZN2cv7Scalar_IdEC1Edddd"
 "_ZN4arma10arma_checkIA36_cEEvbRKT_"
 "_ZN4arma10arma_checkIA37_cEEvbRKT_"
 "_ZN4arma10arma_checkIA38_cEEvbRKT_"
 "_ZN4arma10arma_checkIA53_cEEvbRKT_"
 "_ZN4arma10arma_checkIA74_cEEvbRKT_"
 "_ZN4arma10arma_checkIA81_cEEvbRKT_"
 "_ZN4arma10arma_checkIPcEEvbRKT_"
 "_ZN4arma10arma_checkIPKcEEvbRKT_"
 "_ZN4arma10solve_opts11opts_refineC1Ev"
 "_ZN4arma10solve_opts12opts_no_bandC1Ev"
 "_ZN4arma10solve_opts13opts_no_sympdC1Ev"
 "_ZN4arma10solve_opts14opts_no_approxC1Ev"
 "_ZN4arma10solve_opts14opts_no_trimatC1Ev"
 "_ZN4arma10solve_opts15opts_allow_uglyC1Ev"
 "_ZN4arma10solve_opts16opts_equilibrateC1Ev"
 "_ZN4arma10solve_opts17opts_likely_sympdC1Ev"
 "_ZN4arma10solve_opts4optsC2Ej"
 "_ZN4arma10solve_opts9opts_fastC1Ev"
 "_ZN4arma10solve_opts9opts_noneC1Ev"
 "_ZN4arma10solve_opts9opts_trilC1Ev"
 "_ZN4arma10solve_opts9opts_triuC1Ev"
 "_ZN4arma13Base_eval_MatIdNS_3MatIdEEEC2Ev"
 "_ZN4arma13Base_eval_MatIfNS_3MatIfEEEC2Ev"
 "_ZN4arma13gmm_dist_euclC1Ev"
 "_ZN4arma13gmm_dist_mahaC1Ev"
 "_ZN4arma13gmm_dist_modeC2Ej"
 "_ZN4arma13gmm_dist_probC1Ev"
 "_ZN4arma13gmm_seed_modeC2Ej"
 "_ZN4arma14Base_extra_yesIdNS_3MatIdEEEC2Ev"
 "_ZN4arma14Base_extra_yesIfNS_3MatIfEEEC2Ev"
 "_ZN4arma15get_cerr_streamEv"
 "_ZN4arma16arma_cerr_streamIcEERSoPSo"
 "_ZN4arma18Base_trans_defaultINS_3MatIdEEEC2Ev"
 "_ZN4arma18Base_trans_defaultINS_3MatIfEEEC2Ev"
 "_ZN4arma18BaseCube_eval_CubeIdNS_4CubeIdEEEC2Ev"
 "_ZN4arma18BaseCube_eval_CubeIiNS_4CubeIiEEEC2Ev"
 "_ZN4arma18BaseCube_eval_exprIdNS_7eOpCubeINS_4CubeIdEENS_21eop_scalar_minus_postEEEEC2Ev"
 "_ZN4arma18BaseCube_eval_exprIdNS_7eOpCubeINS1_INS_4CubeIdEENS_21eop_scalar_minus_postEEENS_16eop_scalar_timesEEEEC2Ev"
 "_ZN4arma18BaseCube_eval_exprIdNS_7eOpCubeINS1_INS1_INS_4CubeIdEENS_21eop_scalar_minus_postEEENS_16eop_scalar_timesEEENS_19eop_scalar_div_postEEEEC2Ev"
 "_ZN4arma18BaseCube_eval_exprIiNS_7eOpCubeINS_4CubeIiEENS_21eop_scalar_minus_postEEEEC2Ev"
 "_ZN4arma18BaseCube_eval_exprIiNS_7eOpCubeINS1_INS_4CubeIiEENS_21eop_scalar_minus_postEEENS_16eop_scalar_timesEEEEC2Ev"
 "_ZN4arma18BaseCube_eval_exprIiNS_7eOpCubeINS1_INS1_INS_4CubeIiEENS_21eop_scalar_minus_postEEENS_16eop_scalar_timesEEENS_19eop_scalar_div_postEEEEC2Ev"
 "_ZN4arma20arma_check_bad_allocIA34_cEEvbRKT_"
 "_ZN4arma20arma_check_bad_allocIA39_cEEvbRKT_"
 "_ZN4arma22gmm_seed_keep_existingC1Ev"
 "_ZN4arma22gmm_seed_random_spreadC1Ev"
 "_ZN4arma22gmm_seed_random_subsetC1Ev"
 "_ZN4arma22gmm_seed_static_spreadC1Ev"
 "_ZN4arma22gmm_seed_static_subsetC1Ev"
 "_ZN4arma3ColIfEC1Ej"
 "_ZN4arma3ColIfED1Ev"
 "_ZN4arma3MatIdE8set_sizeEjj"
 "_ZN4arma3MatIdE9init_warmEjj"
 "_ZN4arma3MatIdEC1Ev"
 "_ZN4arma3MatIdED1Ev"
 "_ZN4arma3MatIfE8set_sizeEjj"
 "_ZN4arma3MatIfE9init_coldEv"
 "_ZN4arma3MatIfE9init_warmEjj"
 "_ZN4arma3MatIfEC1Ejj"
 "_ZN4arma3MatIfEC1Ev"
 "_ZN4arma3MatIfEC2ERKNS_18arma_vec_indicatorEjjt"
 "_ZN4arma3MatIfED1Ev"
 "_ZN4arma3MatIfED2Ev"
 "_ZN4arma3MatIiED1Ev"
 "_ZN4arma4BaseIdNS_3MatIdEEEC2Ev"
 "_ZN4arma4BaseIfNS_3MatIfEEEC2Ev"
 "_ZN4arma4CubeIdE10create_matEv"
 "_ZN4arma4CubeIdE10delete_matEv"
 "_ZN4arma4CubeIdE8set_sizeEjjj"
 "_ZN4arma4CubeIdE9init_coldEv"
 "_ZN4arma4CubeIdE9init_warmEjjj"
 "_ZN4arma4CubeIdEaSINS_7eOpCubeINS3_IS1_NS_21eop_scalar_minus_postEEENS_16eop_scalar_timesEEENS_19eop_scalar_div_postEEERS1_RKNS3_IT_T0_EE"
 "_ZN4arma4CubeIdEC1EPdjjjbbb"
 "_ZN4arma4CubeIdEC1Ev"
 "_ZN4arma4CubeIdED1Ev"
 "_ZN4arma4CubeIiE10create_matEv"
 "_ZN4arma4CubeIiE10delete_matEv"
 "_ZN4arma4CubeIiE9init_coldEv"
 "_ZN4arma4CubeIiE9init_warmEjjj"
 "_ZN4arma4CubeIiEaSINS_7eOpCubeINS3_IS1_NS_21eop_scalar_minus_postEEENS_16eop_scalar_timesEEENS_19eop_scalar_div_postEEERS1_RKNS3_IT_T0_EE"
 "_ZN4arma4CubeIiEC1EPijjjbbb"
 "_ZN4arma4CubeIiED1Ev"
 "_ZN4arma4fill10fill_classINS0_10fill_randnEEC1Ev"
 "_ZN4arma4fill10fill_classINS0_10fill_randuEEC1Ev"
 "_ZN4arma4fill10fill_classINS0_10fill_zerosEEC1Ev"
 "_ZN4arma4fill10fill_classINS0_8fill_eyeEEC1Ev"
 "_ZN4arma4fill10fill_classINS0_9fill_noneEEC1Ev"
 "_ZN4arma4fill10fill_classINS0_9fill_onesEEC1Ev"
 "_ZN4arma4priv12Datum_helper3nanIdEENS_14arma_real_onlyIT_E6resultEPS6_"
 "_ZN4arma4priv12Datum_helper3nanIiEENS_18arma_integral_onlyIT_E6resultEPS6_"
 "_ZN4arma5DatumIdE3nanE"
 "_ZN4arma5DatumIiE3nanE"
 "_ZN4arma6memory7acquireIdEEPT_j"
 "_ZN4arma6memory7acquireIfEEPT_j"
 "_ZN4arma6memory7acquireIiEEPT_j"
 "_ZN4arma6op_max10direct_maxIdEET_PKS2_j"
 "_ZN4arma6op_max10direct_maxIiEET_PKS2_j"
 "_ZN4arma6op_min10direct_minIdEET_PKS2_j"
 "_ZN4arma6op_min10direct_minIiEET_PKS2_j"
 "_ZN4arma7eOpCubeINS_4CubeIdEENS_21eop_scalar_minus_postEEC1ERKNS_8BaseCubeIdS2_EEd"
 "_ZN4arma7eOpCubeINS_4CubeIdEENS_21eop_scalar_minus_postEED1Ev"
 "_ZN4arma7eOpCubeINS_4CubeIiEENS_21eop_scalar_minus_postEEC1ERKNS_8BaseCubeIiS2_EEi"
 "_ZN4arma7eOpCubeINS_4CubeIiEENS_21eop_scalar_minus_postEED1Ev"
 "_ZN4arma7eOpCubeINS0_INS_4CubeIdEENS_21eop_scalar_minus_postEEENS_16eop_scalar_timesEEC1ERKNS_8BaseCubeIdS4_EEd"
 "_ZN4arma7eOpCubeINS0_INS_4CubeIdEENS_21eop_scalar_minus_postEEENS_16eop_scalar_timesEED1Ev"
 "_ZN4arma7eOpCubeINS0_INS_4CubeIiEENS_21eop_scalar_minus_postEEENS_16eop_scalar_timesEEC1ERKNS_8BaseCubeIiS4_EEi"
 "_ZN4arma7eOpCubeINS0_INS_4CubeIiEENS_21eop_scalar_minus_postEEENS_16eop_scalar_timesEED1Ev"
 "_ZN4arma7eOpCubeINS0_INS0_INS_4CubeIdEENS_21eop_scalar_minus_postEEENS_16eop_scalar_timesEEENS_19eop_scalar_div_postEEC1ERKNS_8BaseCubeIdS6_EEd"
 "_ZN4arma7eOpCubeINS0_INS0_INS_4CubeIdEENS_21eop_scalar_minus_postEEENS_16eop_scalar_timesEEENS_19eop_scalar_div_postEED1Ev"
 "_ZN4arma7eOpCubeINS0_INS0_INS_4CubeIiEENS_21eop_scalar_minus_postEEENS_16eop_scalar_timesEEENS_19eop_scalar_div_postEEC1ERKNS_8BaseCubeIiS6_EEi"
 "_ZN4arma7eOpCubeINS0_INS0_INS_4CubeIiEENS_21eop_scalar_minus_postEEENS_16eop_scalar_timesEEENS_19eop_scalar_div_postEED1Ev"
 "_ZN4arma8arrayops10copy_smallIdEEvPT_PKS2_j"
 "_ZN4arma8arrayops10copy_smallIiEEvPT_PKS2_j"
 "_ZN4arma8BaseCubeIdNS_4CubeIdEEEC2Ev"
 "_ZN4arma8BaseCubeIdNS_7eOpCubeINS_4CubeIdEENS_21eop_scalar_minus_postEEEEC2Ev"
 "_ZN4arma8BaseCubeIdNS_7eOpCubeINS1_INS_4CubeIdEENS_21eop_scalar_minus_postEEENS_16eop_scalar_timesEEEEC2Ev"
 "_ZN4arma8BaseCubeIdNS_7eOpCubeINS1_INS1_INS_4CubeIdEENS_21eop_scalar_minus_postEEENS_16eop_scalar_timesEEENS_19eop_scalar_div_postEEEEC2Ev"
 "_ZN4arma8BaseCubeIiNS_4CubeIiEEEC2Ev"
 "_ZN4arma8BaseCubeIiNS_7eOpCubeINS_4CubeIiEENS_21eop_scalar_minus_postEEEEC2Ev"
 "_ZN4arma8BaseCubeIiNS_7eOpCubeINS1_INS_4CubeIiEENS_21eop_scalar_minus_postEEENS_16eop_scalar_timesEEEEC2Ev"
 "_ZN4arma8BaseCubeIiNS_7eOpCubeINS1_INS1_INS_4CubeIiEENS_21eop_scalar_minus_postEEENS_16eop_scalar_timesEEENS_19eop_scalar_div_postEEEEC2Ev"
 "_ZN4arma8eop_coreINS_19eop_scalar_div_postEE5applyINS_7eOpCubeINS4_INS_4CubeIdEENS_21eop_scalar_minus_postEEENS_16eop_scalar_timesEEEEEvRNS5_INT_9elem_typeEEERKNS4_ISB_S1_EE"
 "_ZN4arma8eop_coreINS_19eop_scalar_div_postEE5applyINS_7eOpCubeINS4_INS_4CubeIiEENS_21eop_scalar_minus_postEEENS_16eop_scalar_timesEEEEEvRNS5_INT_9elem_typeEEERKNS4_ISB_S1_EE"
 "_ZN4arma9hdf5_opts10opts_transC1Ev"
 "_ZN4arma9hdf5_opts11opts_appendC1Ev"
 "_ZN4arma9hdf5_opts12opts_replaceC1Ev"
 "_ZN4arma9hdf5_opts4optsC2Ej"
 "_ZN4arma9hdf5_opts9opts_noneC1Ev"
 "_ZN4arma9ProxyCubeINS_4CubeIdEEEC1ERKS2_"
 "_ZN4arma9ProxyCubeINS_4CubeIiEEEC1ERKS2_"
 "_ZN4arma9ProxyCubeINS_7eOpCubeINS_4CubeIdEENS_21eop_scalar_minus_postEEEEC1ERKS5_"
 "_ZN4arma9ProxyCubeINS_7eOpCubeINS_4CubeIiEENS_21eop_scalar_minus_postEEEEC1ERKS5_"
 "_ZN4arma9ProxyCubeINS_7eOpCubeINS1_INS_4CubeIdEENS_21eop_scalar_minus_postEEENS_16eop_scalar_timesEEEEC1ERKS7_"
 "_ZN4arma9ProxyCubeINS_7eOpCubeINS1_INS_4CubeIiEENS_21eop_scalar_minus_postEEENS_16eop_scalar_timesEEEEC1ERKS7_"
 "_ZN4Rcpp10class_Base10getMethodsERKNS_4XPtrIS0_NS_15PreserveStorageEXadL_ZNS_25standard_delete_finalizerIS0_EEvPT_EELb0EEERSs"
 "_ZN4Rcpp10class_Base10has_methodERKSs"
 "_ZN4Rcpp10class_Base11getPropertyEP7SEXPRECS2_"
 "_ZN4Rcpp10class_Base11invoke_voidEP7SEXPRECS2_PS2_i"
 "_ZN4Rcpp10class_Base11newInstanceEPP7SEXPRECi"
 "_ZN4Rcpp10class_Base11setPropertyEP7SEXPRECS2_S2_"
 "_ZN4Rcpp10class_Base12has_propertyERKSs"
 "_ZN4Rcpp10class_Base12method_namesEv"
 "_ZN4Rcpp10class_Base13methods_arityEv"
 "_ZN4Rcpp10class_Base13run_finalizerEP7SEXPREC"
 "_ZN4Rcpp10class_Base14invoke_notvoidEP7SEXPRECS2_PS2_i"
 "_ZN4Rcpp10class_Base14property_classERKSs"
 "_ZN4Rcpp10class_Base14property_namesEv"
 "_ZN4Rcpp10class_Base15getConstructorsERKNS_4XPtrIS0_NS_15PreserveStorageEXadL_ZNS_25standard_delete_finalizerIS0_EEvPT_EELb0EEERSs"
 "_ZN4Rcpp10class_Base16methods_voidnessEv"
 "_ZN4Rcpp10class_Base16property_classesEv"
 "_ZN4Rcpp10class_Base17get_typeinfo_nameEv"
 "_ZN4Rcpp10class_Base20property_is_readonlyERKSs"
 "_ZN4Rcpp10class_Base23has_default_constructorEv"
 "_ZN4Rcpp10class_Base6fieldsERKNS_4XPtrIS0_NS_15PreserveStorageEXadL_ZNS_25standard_delete_finalizerIS0_EEvPT_EELb0EEE"
 "_ZN4Rcpp10class_Base6invokeEP7SEXPRECS2_PS2_i"
 "_ZN4Rcpp10class_Base8completeEv"
 "_ZN4Rcpp10class_BaseC2EPKcS2_"
 "_ZN4Rcpp10class_BaseC2Ev"
 "_ZN4Rcpp10class_BaseD0Ev"
 "_ZN4Rcpp10class_BaseD1Ev"
 "_ZN4Rcpp10class_BaseD2Ev"
 "_ZN4Rcpp10CppMethod0I11VideoWriterbE5nargsEv"
 "_ZN4Rcpp10CppMethod0I11VideoWriterbE7is_voidEv"
 "_ZN4Rcpp10CppMethod0I11VideoWriterbE8is_constEv"
 "_ZN4Rcpp10CppMethod0I11VideoWriterbE9signatureERSsPKc"
 "_ZN4Rcpp10CppMethod0I11VideoWriterbEC1EMS1_FbvE"
 "_ZN4Rcpp10CppMethod0I11VideoWriterbEclEPS1_PP7SEXPREC"
 "_ZN4Rcpp10CppMethod0I11VideoWriterbED0Ev"
 "_ZN4Rcpp10CppMethod0I11VideoWriterbED1Ev"
 "_ZN4Rcpp10CppMethod0I11VideoWriterdE5nargsEv"
 "_ZN4Rcpp10CppMethod0I11VideoWriterdE7is_voidEv"
 "_ZN4Rcpp10CppMethod0I11VideoWriterdE8is_constEv"
 "_ZN4Rcpp10CppMethod0I11VideoWriterdE9signatureERSsPKc"
 "_ZN4Rcpp10CppMethod0I11VideoWriterdEC1EMS1_FdvE"
 "_ZN4Rcpp10CppMethod0I11VideoWriterdEclEPS1_PP7SEXPREC"
 "_ZN4Rcpp10CppMethod0I11VideoWriterdED0Ev"
 "_ZN4Rcpp10CppMethod0I11VideoWriterdED1Ev"
 "_ZN4Rcpp10CppMethod0I11VideoWriteriE5nargsEv"
 "_ZN4Rcpp10CppMethod0I11VideoWriteriE7is_voidEv"
 "_ZN4Rcpp10CppMethod0I11VideoWriteriE8is_constEv"
 "_ZN4Rcpp10CppMethod0I11VideoWriteriE9signatureERSsPKc"
 "_ZN4Rcpp10CppMethod0I11VideoWriteriEC1EMS1_FivE"
 "_ZN4Rcpp10CppMethod0I11VideoWriteriEclEPS1_PP7SEXPREC"
 "_ZN4Rcpp10CppMethod0I11VideoWriteriED0Ev"
 "_ZN4Rcpp10CppMethod0I11VideoWriteriED1Ev"
 "_ZN4Rcpp10CppMethod0I11VideoWriterNS_6VectorILi14ENS_15PreserveStorageEEEE5nargsEv"
 "_ZN4Rcpp10CppMethod0I11VideoWriterNS_6VectorILi14ENS_15PreserveStorageEEEE7is_voidEv"
 "_ZN4Rcpp10CppMethod0I11VideoWriterNS_6VectorILi14ENS_15PreserveStorageEEEE8is_constEv"
 "_ZN4Rcpp10CppMethod0I11VideoWriterNS_6VectorILi14ENS_15PreserveStorageEEEE9signatureERSsPKc"
 "_ZN4Rcpp10CppMethod0I11VideoWriterNS_6VectorILi14ENS_15PreserveStorageEEEEC1EMS1_FS4_vE"
 "_ZN4Rcpp10CppMethod0I11VideoWriterNS_6VectorILi14ENS_15PreserveStorageEEEEclEPS1_PP7SEXPREC"
 "_ZN4Rcpp10CppMethod0I11VideoWriterNS_6VectorILi14ENS_15PreserveStorageEEEED0Ev"
 "_ZN4Rcpp10CppMethod0I11VideoWriterNS_6VectorILi14ENS_15PreserveStorageEEEED1Ev"
 "_ZN4Rcpp10CppMethod0I11VideoWriterSsE5nargsEv"
 "_ZN4Rcpp10CppMethod0I11VideoWriterSsE7is_voidEv"
 "_ZN4Rcpp10CppMethod0I11VideoWriterSsE8is_constEv"
 "_ZN4Rcpp10CppMethod0I11VideoWriterSsE9signatureERSsPKc"
 "_ZN4Rcpp10CppMethod0I11VideoWriterSsEC1EMS1_FSsvE"
 "_ZN4Rcpp10CppMethod0I11VideoWriterSsEclEPS1_PP7SEXPREC"
 "_ZN4Rcpp10CppMethod0I11VideoWriterSsED0Ev"
 "_ZN4Rcpp10CppMethod0I11VideoWriterSsED1Ev"
 "_ZN4Rcpp10CppMethod0I11VideoWritervE5nargsEv"
 "_ZN4Rcpp10CppMethod0I11VideoWritervE7is_voidEv"
 "_ZN4Rcpp10CppMethod0I11VideoWritervE8is_constEv"
 "_ZN4Rcpp10CppMethod0I11VideoWritervE9signatureERSsPKc"
 "_ZN4Rcpp10CppMethod0I11VideoWritervEC1EMS1_FvvE"
 "_ZN4Rcpp10CppMethod0I11VideoWritervEclEPS1_PP7SEXPREC"
 "_ZN4Rcpp10CppMethod0I11VideoWritervED0Ev"
 "_ZN4Rcpp10CppMethod0I11VideoWritervED1Ev"
 "_ZN4Rcpp10CppMethod0I5ImageiE5nargsEv"
 "_ZN4Rcpp10CppMethod0I5ImageiE7is_voidEv"
 "_ZN4Rcpp10CppMethod0I5ImageiE8is_constEv"
 "_ZN4Rcpp10CppMethod0I5ImageiE9signatureERSsPKc"
 "_ZN4Rcpp10CppMethod0I5ImageiEC1EMS1_FivE"
 "_ZN4Rcpp10CppMethod0I5ImageiEclEPS1_PP7SEXPREC"
 "_ZN4Rcpp10CppMethod0I5ImageiED0Ev"
 "_ZN4Rcpp10CppMethod0I5ImageiED1Ev"
 "_ZN4Rcpp10CppMethod0I5ImageN4arma4CubeIdEEE5nargsEv"
 "_ZN4Rcpp10CppMethod0I5ImageN4arma4CubeIdEEE7is_voidEv"
 "_ZN4Rcpp10CppMethod0I5ImageN4arma4CubeIdEEE8is_constEv"
 "_ZN4Rcpp10CppMethod0I5ImageN4arma4CubeIdEEE9signatureERSsPKc"
 "_ZN4Rcpp10CppMethod0I5ImageN4arma4CubeIdEEEC1EMS1_FS4_vE"
 "_ZN4Rcpp10CppMethod0I5ImageN4arma4CubeIdEEEclEPS1_PP7SEXPREC"
 "_ZN4Rcpp10CppMethod0I5ImageN4arma4CubeIdEEED0Ev"
 "_ZN4Rcpp10CppMethod0I5ImageN4arma4CubeIdEEED1Ev"
 "_ZN4Rcpp10CppMethod0I5ImageNS_6VectorILi14ENS_15PreserveStorageEEEE5nargsEv"
 "_ZN4Rcpp10CppMethod0I5ImageNS_6VectorILi14ENS_15PreserveStorageEEEE7is_voidEv"
 "_ZN4Rcpp10CppMethod0I5ImageNS_6VectorILi14ENS_15PreserveStorageEEEE8is_constEv"
 "_ZN4Rcpp10CppMethod0I5ImageNS_6VectorILi14ENS_15PreserveStorageEEEE9signatureERSsPKc"
 "_ZN4Rcpp10CppMethod0I5ImageNS_6VectorILi14ENS_15PreserveStorageEEEEC1EMS1_FS4_vE"
 "_ZN4Rcpp10CppMethod0I5ImageNS_6VectorILi14ENS_15PreserveStorageEEEEclEPS1_PP7SEXPREC"
 "_ZN4Rcpp10CppMethod0I5ImageNS_6VectorILi14ENS_15PreserveStorageEEEED0Ev"
 "_ZN4Rcpp10CppMethod0I5ImageNS_6VectorILi14ENS_15PreserveStorageEEEED1Ev"
 "_ZN4Rcpp10CppMethod0I5ImageSsE5nargsEv"
 "_ZN4Rcpp10CppMethod0I5ImageSsE7is_voidEv"
 "_ZN4Rcpp10CppMethod0I5ImageSsE8is_constEv"
 "_ZN4Rcpp10CppMethod0I5ImageSsE9signatureERSsPKc"
 "_ZN4Rcpp10CppMethod0I5ImageSsEC1EMS1_FSsvE"
 "_ZN4Rcpp10CppMethod0I5ImageSsEclEPS1_PP7SEXPREC"
 "_ZN4Rcpp10CppMethod0I5ImageSsED0Ev"
 "_ZN4Rcpp10CppMethod0I5ImageSsED1Ev"
 "_ZN4Rcpp10CppMethod0I5Video5ImageE5nargsEv"
 "_ZN4Rcpp10CppMethod0I5Video5ImageE7is_voidEv"
 "_ZN4Rcpp10CppMethod0I5Video5ImageE8is_constEv"
 "_ZN4Rcpp10CppMethod0I5Video5ImageE9signatureERSsPKc"
 "_ZN4Rcpp10CppMethod0I5Video5ImageEC1EMS1_FS2_vE"
 "_ZN4Rcpp10CppMethod0I5Video5ImageEclEPS1_PP7SEXPREC"
 "_ZN4Rcpp10CppMethod0I5Video5ImageED0Ev"
 "_ZN4Rcpp10CppMethod0I5Video5ImageED1Ev"
 "_ZN4Rcpp10CppMethod0I5VideobE5nargsEv"
 "_ZN4Rcpp10CppMethod0I5VideobE7is_voidEv"
 "_ZN4Rcpp10CppMethod0I5VideobE8is_constEv"
 "_ZN4Rcpp10CppMethod0I5VideobE9signatureERSsPKc"
 "_ZN4Rcpp10CppMethod0I5VideobEC1EMS1_FbvE"
 "_ZN4Rcpp10CppMethod0I5VideobEclEPS1_PP7SEXPREC"
 "_ZN4Rcpp10CppMethod0I5VideobED0Ev"
 "_ZN4Rcpp10CppMethod0I5VideobED1Ev"
 "_ZN4Rcpp10CppMethod0I5VideodE5nargsEv"
 "_ZN4Rcpp10CppMethod0I5VideodE7is_voidEv"
 "_ZN4Rcpp10CppMethod0I5VideodE8is_constEv"
 "_ZN4Rcpp10CppMethod0I5VideodE9signatureERSsPKc"
 "_ZN4Rcpp10CppMethod0I5VideodEC1EMS1_FdvE"
 "_ZN4Rcpp10CppMethod0I5VideodEclEPS1_PP7SEXPREC"
 "_ZN4Rcpp10CppMethod0I5VideodED0Ev"
 "_ZN4Rcpp10CppMethod0I5VideodED1Ev"
 "_ZN4Rcpp10CppMethod0I5VideoiE5nargsEv"
 "_ZN4Rcpp10CppMethod0I5VideoiE7is_voidEv"
 "_ZN4Rcpp10CppMethod0I5VideoiE8is_constEv"
 "_ZN4Rcpp10CppMethod0I5VideoiE9signatureERSsPKc"
 "_ZN4Rcpp10CppMethod0I5VideoiEC1EMS1_FivE"
 "_ZN4Rcpp10CppMethod0I5VideoiEclEPS1_PP7SEXPREC"
 "_ZN4Rcpp10CppMethod0I5VideoiED0Ev"
 "_ZN4Rcpp10CppMethod0I5VideoiED1Ev"
 "_ZN4Rcpp10CppMethod0I5VideoNS_6VectorILi14ENS_15PreserveStorageEEEE5nargsEv"
 "_ZN4Rcpp10CppMethod0I5VideoNS_6VectorILi14ENS_15PreserveStorageEEEE7is_voidEv"
 "_ZN4Rcpp10CppMethod0I5VideoNS_6VectorILi14ENS_15PreserveStorageEEEE8is_constEv"
 "_ZN4Rcpp10CppMethod0I5VideoNS_6VectorILi14ENS_15PreserveStorageEEEE9signatureERSsPKc"
 "_ZN4Rcpp10CppMethod0I5VideoNS_6VectorILi14ENS_15PreserveStorageEEEEC1EMS1_FS4_vE"
 "_ZN4Rcpp10CppMethod0I5VideoNS_6VectorILi14ENS_15PreserveStorageEEEEclEPS1_PP7SEXPREC"
 "_ZN4Rcpp10CppMethod0I5VideoNS_6VectorILi14ENS_15PreserveStorageEEEED0Ev"
 "_ZN4Rcpp10CppMethod0I5VideoNS_6VectorILi14ENS_15PreserveStorageEEEED1Ev"
 "_ZN4Rcpp10CppMethod0I5VideoSsE5nargsEv"
 "_ZN4Rcpp10CppMethod0I5VideoSsE7is_voidEv"
 "_ZN4Rcpp10CppMethod0I5VideoSsE8is_constEv"
 "_ZN4Rcpp10CppMethod0I5VideoSsE9signatureERSsPKc"
 "_ZN4Rcpp10CppMethod0I5VideoSsEC1EMS1_FSsvE"
 "_ZN4Rcpp10CppMethod0I5VideoSsEclEPS1_PP7SEXPREC"
 "_ZN4Rcpp10CppMethod0I5VideoSsED0Ev"
 "_ZN4Rcpp10CppMethod0I5VideoSsED1Ev"
 "_ZN4Rcpp10CppMethod0I5VideovE5nargsEv"
 "_ZN4Rcpp10CppMethod0I5VideovE7is_voidEv"
 "_ZN4Rcpp10CppMethod0I5VideovE8is_constEv"
 "_ZN4Rcpp10CppMethod0I5VideovE9signatureERSsPKc"
 "_ZN4Rcpp10CppMethod0I5VideovEC1EMS1_FvvE"
 "_ZN4Rcpp10CppMethod0I5VideovEclEPS1_PP7SEXPREC"
 "_ZN4Rcpp10CppMethod0I5VideovED0Ev"
 "_ZN4Rcpp10CppMethod0I5VideovED1Ev"
 "_ZN4Rcpp10CppMethod0I6Stream5ImageE5nargsEv"
 "_ZN4Rcpp10CppMethod0I6Stream5ImageE7is_voidEv"
 "_ZN4Rcpp10CppMethod0I6Stream5ImageE8is_constEv"
 "_ZN4Rcpp10CppMethod0I6Stream5ImageE9signatureERSsPKc"
 "_ZN4Rcpp10CppMethod0I6Stream5ImageEC1EMS1_FS2_vE"
 "_ZN4Rcpp10CppMethod0I6Stream5ImageEclEPS1_PP7SEXPREC"
 "_ZN4Rcpp10CppMethod0I6Stream5ImageED0Ev"
 "_ZN4Rcpp10CppMethod0I6Stream5ImageED1Ev"
 "_ZN4Rcpp10CppMethod0I6StreambE5nargsEv"
 "_ZN4Rcpp10CppMethod0I6StreambE7is_voidEv"
 "_ZN4Rcpp10CppMethod0I6StreambE8is_constEv"
 "_ZN4Rcpp10CppMethod0I6StreambE9signatureERSsPKc"
 "_ZN4Rcpp10CppMethod0I6StreambEC1EMS1_FbvE"
 "_ZN4Rcpp10CppMethod0I6StreambEclEPS1_PP7SEXPREC"
 "_ZN4Rcpp10CppMethod0I6StreambED0Ev"
 "_ZN4Rcpp10CppMethod0I6StreambED1Ev"
 "_ZN4Rcpp10CppMethod0I6StreamiE5nargsEv"
 "_ZN4Rcpp10CppMethod0I6StreamiE7is_voidEv"
 "_ZN4Rcpp10CppMethod0I6StreamiE8is_constEv"
 "_ZN4Rcpp10CppMethod0I6StreamiE9signatureERSsPKc"
 "_ZN4Rcpp10CppMethod0I6StreamiEC1EMS1_FivE"
 "_ZN4Rcpp10CppMethod0I6StreamiEclEPS1_PP7SEXPREC"
 "_ZN4Rcpp10CppMethod0I6StreamiED0Ev"
 "_ZN4Rcpp10CppMethod0I6StreamiED1Ev"
 "_ZN4Rcpp10CppMethod0I6StreamNS_6VectorILi14ENS_15PreserveStorageEEEE5nargsEv"
 "_ZN4Rcpp10CppMethod0I6StreamNS_6VectorILi14ENS_15PreserveStorageEEEE7is_voidEv"
 "_ZN4Rcpp10CppMethod0I6StreamNS_6VectorILi14ENS_15PreserveStorageEEEE8is_constEv"
 "_ZN4Rcpp10CppMethod0I6StreamNS_6VectorILi14ENS_15PreserveStorageEEEE9signatureERSsPKc"
 "_ZN4Rcpp10CppMethod0I6StreamNS_6VectorILi14ENS_15PreserveStorageEEEEC1EMS1_FS4_vE"
 "_ZN4Rcpp10CppMethod0I6StreamNS_6VectorILi14ENS_15PreserveStorageEEEEclEPS1_PP7SEXPREC"
 "_ZN4Rcpp10CppMethod0I6StreamNS_6VectorILi14ENS_15PreserveStorageEEEED0Ev"
 "_ZN4Rcpp10CppMethod0I6StreamNS_6VectorILi14ENS_15PreserveStorageEEEED1Ev"
 "_ZN4Rcpp10CppMethod0I6StreamvE5nargsEv"
 "_ZN4Rcpp10CppMethod0I6StreamvE7is_voidEv"
 "_ZN4Rcpp10CppMethod0I6StreamvE8is_constEv"
 "_ZN4Rcpp10CppMethod0I6StreamvE9signatureERSsPKc"
 "_ZN4Rcpp10CppMethod0I6StreamvEC1EMS1_FvvE"
 "_ZN4Rcpp10CppMethod0I6StreamvEclEPS1_PP7SEXPREC"
 "_ZN4Rcpp10CppMethod0I6StreamvED0Ev"
 "_ZN4Rcpp10CppMethod0I6StreamvED1Ev"
 "_ZN4Rcpp10CppMethod1I11VideoWriterdSsE5nargsEv"
 "_ZN4Rcpp10CppMethod1I11VideoWriterdSsE7is_voidEv"
 "_ZN4Rcpp10CppMethod1I11VideoWriterdSsE8is_constEv"
 "_ZN4Rcpp10CppMethod1I11VideoWriterdSsE9signatureERSsPKc"
 "_ZN4Rcpp10CppMethod1I11VideoWriterdSsEC1EMS1_FdSsE"
 "_ZN4Rcpp10CppMethod1I11VideoWriterdSsEclEPS1_PP7SEXPREC"
 "_ZN4Rcpp10CppMethod1I11VideoWriterdSsED0Ev"
 "_ZN4Rcpp10CppMethod1I11VideoWriterdSsED1Ev"
 "_ZN4Rcpp10CppMethod1I11VideoWriterv5ImageE5nargsEv"
 "_ZN4Rcpp10CppMethod1I11VideoWriterv5ImageE7is_voidEv"
 "_ZN4Rcpp10CppMethod1I11VideoWriterv5ImageE8is_constEv"
 "_ZN4Rcpp10CppMethod1I11VideoWriterv5ImageE9signatureERSsPKc"
 "_ZN4Rcpp10CppMethod1I11VideoWriterv5ImageEC1EMS1_FvS2_E"
 "_ZN4Rcpp10CppMethod1I11VideoWriterv5ImageEclEPS1_PP7SEXPREC"
 "_ZN4Rcpp10CppMethod1I11VideoWriterv5ImageED0Ev"
 "_ZN4Rcpp10CppMethod1I11VideoWriterv5ImageED1Ev"
 "_ZN4Rcpp10CppMethod1I5ImagebN4arma4CubeIdEEE5nargsEv"
 "_ZN4Rcpp10CppMethod1I5ImagebN4arma4CubeIdEEE7is_voidEv"
 "_ZN4Rcpp10CppMethod1I5ImagebN4arma4CubeIdEEE8is_constEv"
 "_ZN4Rcpp10CppMethod1I5ImagebN4arma4CubeIdEEE9signatureERSsPKc"
 "_ZN4Rcpp10CppMethod1I5ImagebN4arma4CubeIdEEEC1EMS1_FbS4_E"
 "_ZN4Rcpp10CppMethod1I5ImagebN4arma4CubeIdEEEclEPS1_PP7SEXPREC"
 "_ZN4Rcpp10CppMethod1I5ImagebN4arma4CubeIdEEED0Ev"
 "_ZN4Rcpp10CppMethod1I5ImagebN4arma4CubeIdEEED1Ev"
 "_ZN4Rcpp10CppMethod1I5ImagebSsE5nargsEv"
 "_ZN4Rcpp10CppMethod1I5ImagebSsE7is_voidEv"
 "_ZN4Rcpp10CppMethod1I5ImagebSsE8is_constEv"
 "_ZN4Rcpp10CppMethod1I5ImagebSsE9signatureERSsPKc"
 "_ZN4Rcpp10CppMethod1I5ImagebSsEC1EMS1_FbSsE"
 "_ZN4Rcpp10CppMethod1I5ImagebSsEclEPS1_PP7SEXPREC"
 "_ZN4Rcpp10CppMethod1I5ImagebSsED0Ev"
 "_ZN4Rcpp10CppMethod1I5ImagebSsED1Ev"
 "_ZN4Rcpp10CppMethod1I5ImageviE5nargsEv"
 "_ZN4Rcpp10CppMethod1I5ImageviE7is_voidEv"
 "_ZN4Rcpp10CppMethod1I5ImageviE8is_constEv"
 "_ZN4Rcpp10CppMethod1I5ImageviE9signatureERSsPKc"
 "_ZN4Rcpp10CppMethod1I5ImageviEC1EMS1_FviE"
 "_ZN4Rcpp10CppMethod1I5ImageviEclEPS1_PP7SEXPREC"
 "_ZN4Rcpp10CppMethod1I5ImageviED0Ev"
 "_ZN4Rcpp10CppMethod1I5ImageviED1Ev"
 "_ZN4Rcpp10CppMethod1I5ImagevSsE5nargsEv"
 "_ZN4Rcpp10CppMethod1I5ImagevSsE7is_voidEv"
 "_ZN4Rcpp10CppMethod1I5ImagevSsE8is_constEv"
 "_ZN4Rcpp10CppMethod1I5ImagevSsE9signatureERSsPKc"
 "_ZN4Rcpp10CppMethod1I5ImagevSsEC1EMS1_FvSsE"
 "_ZN4Rcpp10CppMethod1I5ImagevSsEclEPS1_PP7SEXPREC"
 "_ZN4Rcpp10CppMethod1I5ImagevSsED0Ev"
 "_ZN4Rcpp10CppMethod1I5ImagevSsED1Ev"
 "_ZN4Rcpp10CppMethod1I5Video5ImageiE5nargsEv"
 "_ZN4Rcpp10CppMethod1I5Video5ImageiE7is_voidEv"
 "_ZN4Rcpp10CppMethod1I5Video5ImageiE8is_constEv"
 "_ZN4Rcpp10CppMethod1I5Video5ImageiE9signatureERSsPKc"
 "_ZN4Rcpp10CppMethod1I5Video5ImageiEC1EMS1_FS2_iE"
 "_ZN4Rcpp10CppMethod1I5Video5ImageiEclEPS1_PP7SEXPREC"
 "_ZN4Rcpp10CppMethod1I5Video5ImageiED0Ev"
 "_ZN4Rcpp10CppMethod1I5Video5ImageiED1Ev"
 "_ZN4Rcpp10CppMethod1I5VideodSsE5nargsEv"
 "_ZN4Rcpp10CppMethod1I5VideodSsE7is_voidEv"
 "_ZN4Rcpp10CppMethod1I5VideodSsE8is_constEv"
 "_ZN4Rcpp10CppMethod1I5VideodSsE9signatureERSsPKc"
 "_ZN4Rcpp10CppMethod1I5VideodSsEC1EMS1_FdSsE"
 "_ZN4Rcpp10CppMethod1I5VideodSsEclEPS1_PP7SEXPREC"
 "_ZN4Rcpp10CppMethod1I5VideodSsED0Ev"
 "_ZN4Rcpp10CppMethod1I5VideodSsED1Ev"
 "_ZN4Rcpp10CppMethod1I6StreamdSsE5nargsEv"
 "_ZN4Rcpp10CppMethod1I6StreamdSsE7is_voidEv"
 "_ZN4Rcpp10CppMethod1I6StreamdSsE8is_constEv"
 "_ZN4Rcpp10CppMethod1I6StreamdSsE9signatureERSsPKc"
 "_ZN4Rcpp10CppMethod1I6StreamdSsEC1EMS1_FdSsE"
 "_ZN4Rcpp10CppMethod1I6StreamdSsEclEPS1_PP7SEXPREC"
 "_ZN4Rcpp10CppMethod1I6StreamdSsED0Ev"
 "_ZN4Rcpp10CppMethod1I6StreamdSsED1Ev"
 "_ZN4Rcpp10CppMethod2I11VideoWriterbSsdE5nargsEv"
 "_ZN4Rcpp10CppMethod2I11VideoWriterbSsdE7is_voidEv"
 "_ZN4Rcpp10CppMethod2I11VideoWriterbSsdE8is_constEv"
 "_ZN4Rcpp10CppMethod2I11VideoWriterbSsdE9signatureERSsPKc"
 "_ZN4Rcpp10CppMethod2I11VideoWriterbSsdEC1EMS1_FbSsdE"
 "_ZN4Rcpp10CppMethod2I11VideoWriterbSsdEclEPS1_PP7SEXPREC"
 "_ZN4Rcpp10CppMethod2I11VideoWriterbSsdED0Ev"
 "_ZN4Rcpp10CppMethod2I11VideoWriterbSsdED1Ev"
 "_ZN4Rcpp10CppMethod2I5ImageNS_6MatrixILi14ENS_15PreserveStorageEEENS_6VectorILi13ES3_EES6_E5nargsEv"
 "_ZN4Rcpp10CppMethod2I5ImageNS_6MatrixILi14ENS_15PreserveStorageEEENS_6VectorILi13ES3_EES6_E7is_voidEv"
 "_ZN4Rcpp10CppMethod2I5ImageNS_6MatrixILi14ENS_15PreserveStorageEEENS_6VectorILi13ES3_EES6_E8is_constEv"
 "_ZN4Rcpp10CppMethod2I5ImageNS_6MatrixILi14ENS_15PreserveStorageEEENS_6VectorILi13ES3_EES6_E9signatureERSsPKc"
 "_ZN4Rcpp10CppMethod2I5ImageNS_6MatrixILi14ENS_15PreserveStorageEEENS_6VectorILi13ES3_EES6_EC1EMS1_FS4_S6_S6_E"
 "_ZN4Rcpp10CppMethod2I5ImageNS_6MatrixILi14ENS_15PreserveStorageEEENS_6VectorILi13ES3_EES6_EclEPS1_PP7SEXPREC"
 "_ZN4Rcpp10CppMethod2I5ImageNS_6MatrixILi14ENS_15PreserveStorageEEENS_6VectorILi13ES3_EES6_ED0Ev"
 "_ZN4Rcpp10CppMethod2I5ImageNS_6MatrixILi14ENS_15PreserveStorageEEENS_6VectorILi13ES3_EES6_ED1Ev"
 "_ZN4Rcpp10CppMethod2I5VideobSsdE5nargsEv"
 "_ZN4Rcpp10CppMethod2I5VideobSsdE7is_voidEv"
 "_ZN4Rcpp10CppMethod2I5VideobSsdE8is_constEv"
 "_ZN4Rcpp10CppMethod2I5VideobSsdE9signatureERSsPKc"
 "_ZN4Rcpp10CppMethod2I5VideobSsdEC1EMS1_FbSsdE"
 "_ZN4Rcpp10CppMethod2I5VideobSsdEclEPS1_PP7SEXPREC"
 "_ZN4Rcpp10CppMethod2I5VideobSsdED0Ev"
 "_ZN4Rcpp10CppMethod2I5VideobSsdED1Ev"
 "_ZN4Rcpp10CppMethod2I5VideobSsSsE5nargsEv"
 "_ZN4Rcpp10CppMethod2I5VideobSsSsE7is_voidEv"
 "_ZN4Rcpp10CppMethod2I5VideobSsSsE8is_constEv"
 "_ZN4Rcpp10CppMethod2I5VideobSsSsE9signatureERSsPKc"
 "_ZN4Rcpp10CppMethod2I5VideobSsSsEC1EMS1_FbSsSsE"
 "_ZN4Rcpp10CppMethod2I5VideobSsSsEclEPS1_PP7SEXPREC"
 "_ZN4Rcpp10CppMethod2I5VideobSsSsED0Ev"
 "_ZN4Rcpp10CppMethod2I5VideobSsSsED1Ev"
 "_ZN4Rcpp10CppMethod2I6StreambiSsE5nargsEv"
 "_ZN4Rcpp10CppMethod2I6StreambiSsE7is_voidEv"
 "_ZN4Rcpp10CppMethod2I6StreambiSsE8is_constEv"
 "_ZN4Rcpp10CppMethod2I6StreambiSsE9signatureERSsPKc"
 "_ZN4Rcpp10CppMethod2I6StreambiSsEC1EMS1_FbiSsE"
 "_ZN4Rcpp10CppMethod2I6StreambiSsEclEPS1_PP7SEXPREC"
 "_ZN4Rcpp10CppMethod2I6StreambiSsED0Ev"
 "_ZN4Rcpp10CppMethod2I6StreambiSsED1Ev"
 "_ZN4Rcpp10CppMethod2I6StreambSsdE5nargsEv"
 "_ZN4Rcpp10CppMethod2I6StreambSsdE7is_voidEv"
 "_ZN4Rcpp10CppMethod2I6StreambSsdE8is_constEv"
 "_ZN4Rcpp10CppMethod2I6StreambSsdE9signatureERSsPKc"
 "_ZN4Rcpp10CppMethod2I6StreambSsdEC1EMS1_FbSsdE"
 "_ZN4Rcpp10CppMethod2I6StreambSsdEclEPS1_PP7SEXPREC"
 "_ZN4Rcpp10CppMethod2I6StreambSsdED0Ev"
 "_ZN4Rcpp10CppMethod2I6StreambSsdED1Ev"
 "_ZN4Rcpp10CppMethod3I5ImagevNS_6VectorILi13ENS_15PreserveStorageEEES4_NS_6MatrixILi13ES3_EEE5nargsEv"
 "_ZN4Rcpp10CppMethod3I5ImagevNS_6VectorILi13ENS_15PreserveStorageEEES4_NS_6MatrixILi13ES3_EEE7is_voidEv"
 "_ZN4Rcpp10CppMethod3I5ImagevNS_6VectorILi13ENS_15PreserveStorageEEES4_NS_6MatrixILi13ES3_EEE8is_constEv"
 "_ZN4Rcpp10CppMethod3I5ImagevNS_6VectorILi13ENS_15PreserveStorageEEES4_NS_6MatrixILi13ES3_EEE9signatureERSsPKc"
 "_ZN4Rcpp10CppMethod3I5ImagevNS_6VectorILi13ENS_15PreserveStorageEEES4_NS_6MatrixILi13ES3_EEEC1EMS1_FvS4_S4_S6_E"
 "_ZN4Rcpp10CppMethod3I5ImagevNS_6VectorILi13ENS_15PreserveStorageEEES4_NS_6MatrixILi13ES3_EEEclEPS1_PP7SEXPREC"
 "_ZN4Rcpp10CppMethod3I5ImagevNS_6VectorILi13ENS_15PreserveStorageEEES4_NS_6MatrixILi13ES3_EEED0Ev"
 "_ZN4Rcpp10CppMethod3I5ImagevNS_6VectorILi13ENS_15PreserveStorageEEES4_NS_6MatrixILi13ES3_EEED1Ev"
 "_ZN4Rcpp10CppMethod7I11VideoWriterbSsSsdiibSsE5nargsEv"
 "_ZN4Rcpp10CppMethod7I11VideoWriterbSsSsdiibSsE7is_voidEv"
 "_ZN4Rcpp10CppMethod7I11VideoWriterbSsSsdiibSsE8is_constEv"
 "_ZN4Rcpp10CppMethod7I11VideoWriterbSsSsdiibSsE9signatureERSsPKc"
 "_ZN4Rcpp10CppMethod7I11VideoWriterbSsSsdiibSsEC1EMS1_FbSsSsdiibSsE"
 "_ZN4Rcpp10CppMethod7I11VideoWriterbSsSsdiibSsEclEPS1_PP7SEXPREC"
 "_ZN4Rcpp10CppMethod7I11VideoWriterbSsSsdiibSsED0Ev"
 "_ZN4Rcpp10CppMethod7I11VideoWriterbSsSsdiibSsED1Ev"
 "_ZN4Rcpp10eval_errorC1ERKSs"
 "_ZN4Rcpp10eval_errorD0Ev"
 "_ZN4Rcpp10eval_errorD1Ev"
 "_ZN4Rcpp10MatrixBaseILi13ELb1ENS_6MatrixILi13ENS_15PreserveStorageEEEEC2Ev"
 "_ZN4Rcpp10MatrixBaseILi14ELb1ENS_6MatrixILi14ENS_15PreserveStorageEEEEC2Ev"
 "_ZN4Rcpp10Rcpp_lconsEP7SEXPRECS1_"
 "_ZN4Rcpp10RstreambufILb0EE4syncEv"
 "_ZN4Rcpp10RstreambufILb0EE6xsputnEPKcx"
 "_ZN4Rcpp10RstreambufILb0EE8overflowEi"
 "_ZN4Rcpp10RstreambufILb0EEC1Ev"
 "_ZN4Rcpp10RstreambufILb0EED0Ev"
 "_ZN4Rcpp10RstreambufILb0EED1Ev"
 "_ZN4Rcpp10RstreambufILb1EE4syncEv"
 "_ZN4Rcpp10RstreambufILb1EE6xsputnEPKcx"
 "_ZN4Rcpp10RstreambufILb1EE8overflowEi"
 "_ZN4Rcpp10RstreambufILb1EEC1Ev"
 "_ZN4Rcpp10RstreambufILb1EED0Ev"
 "_ZN4Rcpp10RstreambufILb1EED1Ev"
 "_ZN4Rcpp10VectorBaseILi10ELb1ENS_6VectorILi10ENS_15PreserveStorageEEEEC2Ev"
 "_ZN4Rcpp10VectorBaseILi13ELb1ENS_12MatrixColumnILi13EEEEC2Ev"
 "_ZN4Rcpp10VectorBaseILi13ELb1ENS_6VectorILi13ENS_15PreserveStorageEEEEC2Ev"
 "_ZN4Rcpp10VectorBaseILi14ELb1ENS_12MatrixColumnILi14EEEEC2Ev"
 "_ZN4Rcpp10VectorBaseILi14ELb1ENS_5sugar17UnaryMinus_VectorILi14ELb1ENS_6VectorILi14ENS_15PreserveStorageEEEEEEC2Ev"
 "_ZN4Rcpp10VectorBaseILi14ELb1ENS_5sugar21Plus_Vector_PrimitiveILi14ELb1ENS_6VectorILi14ENS_15PreserveStorageEEEEEEC2Ev"
 "_ZN4Rcpp10VectorBaseILi14ELb1ENS_5sugar21Plus_Vector_PrimitiveILi14ELb1ENS1_17UnaryMinus_VectorILi14ELb1ENS_6VectorILi14ENS_15PreserveStorageEEEEEEEEC2Ev"
 "_ZN4Rcpp10VectorBaseILi14ELb1ENS_6VectorILi14ENS_15PreserveStorageEEEEC2Ev"
 "_ZN4Rcpp10VectorBaseILi16ELb1ENS_6VectorILi16ENS_15PreserveStorageEEEEC2Ev"
 "_ZN4Rcpp10VectorBaseILi19ELb1ENS_6VectorILi19ENS_15PreserveStorageEEEEC2Ev"
 "_ZN4Rcpp11CppFunction11get_formalsEv"
 "_ZN4Rcpp11CppFunction5nargsEv"
 "_ZN4Rcpp11CppFunction7is_voidEv"
 "_ZN4Rcpp11CppFunction9signatureERSsPKc"
 "_ZN4Rcpp11CppFunctionC2EPKc"
 "_ZN4Rcpp11CppFunctionD2Ev"
 "_ZN4Rcpp11module_wrapI5ImageEEP7SEXPRECRKT_"
 "_ZN4Rcpp11module_wrapIbEEP7SEXPRECRKT_"
 "_ZN4Rcpp11module_wrapIdEEP7SEXPRECRKT_"
 "_ZN4Rcpp11module_wrapIiEEP7SEXPRECRKT_"
 "_ZN4Rcpp11module_wrapIN4arma3MatIdEEEEP7SEXPRECRKT_"
 "_ZN4Rcpp11module_wrapIN4arma3MatIfEEEEP7SEXPRECRKT_"
 "_ZN4Rcpp11module_wrapIN4arma4CubeIdEEEEP7SEXPRECRKT_"
 "_ZN4Rcpp11module_wrapINS_14DataFrame_ImplINS_15PreserveStorageEEEEEP7SEXPRECRKT_"
 "_ZN4Rcpp11module_wrapINS_6MatrixILi14ENS_15PreserveStorageEEEEEP7SEXPRECRKT_"
 "_ZN4Rcpp11module_wrapINS_6VectorILi14ENS_15PreserveStorageEEEEEP7SEXPRECRKT_"
 "_ZN4Rcpp11module_wrapINS_6VectorILi19ENS_15PreserveStorageEEEEEP7SEXPRECRKT_"
 "_ZN4Rcpp11module_wrapISsEEP7SEXPRECRKT_"
 "_ZN4Rcpp12CppFinalizerI11VideoWriterE3runEPS1_"
 "_ZN4Rcpp12CppFinalizerI11VideoWriterEC1Ev"
 "_ZN4Rcpp12CppFinalizerI5ImageE3runEPS1_"
 "_ZN4Rcpp12CppFinalizerI5ImageEC1Ev"
 "_ZN4Rcpp12CppFinalizerI5VideoE3runEPS1_"
 "_ZN4Rcpp12CppFinalizerI5VideoEC1Ev"
 "_ZN4Rcpp12CppFinalizerI6StreamE3runEPS1_"
 "_ZN4Rcpp12CppFinalizerI6StreamEC1Ev"
 "_ZN4Rcpp12GenericProxyINS_13BindingPolicyINS_16Environment_ImplINS_15PreserveStorageEEEE7BindingEEC2Ev"
 "_ZN4Rcpp12GenericProxyINS_16FieldProxyPolicyINS_14Reference_ImplINS_15PreserveStorageEEEE10FieldProxyEEC2Ev"
 "_ZN4Rcpp12GenericProxyINS_16NamesProxyPolicyINS_6VectorILi10ENS_15PreserveStorageEEEE10NamesProxyEEC2Ev"
 "_ZN4Rcpp12GenericProxyINS_16NamesProxyPolicyINS_6VectorILi13ENS_15PreserveStorageEEEE10NamesProxyEEC2Ev"
 "_ZN4Rcpp12GenericProxyINS_16NamesProxyPolicyINS_6VectorILi19ENS_15PreserveStorageEEEE10NamesProxyEEC2Ev"
 "_ZN4Rcpp12GenericProxyINS_20AttributeProxyPolicyINS_12RObject_ImplINS_15PreserveStorageEEEE14AttributeProxyEEC2Ev"
 "_ZN4Rcpp12GenericProxyINS_20AttributeProxyPolicyINS_6VectorILi13ENS_15PreserveStorageEEEE14AttributeProxyEEC2Ev"
 "_ZN4Rcpp12GenericProxyINS_20AttributeProxyPolicyINS_6VectorILi14ENS_15PreserveStorageEEEE14AttributeProxyEEC2Ev"
 "_ZN4Rcpp12GenericProxyINS_20AttributeProxyPolicyINS_6VectorILi16ENS_15PreserveStorageEEEE14AttributeProxyEEC2Ev"
 "_ZN4Rcpp12GenericProxyINS_20AttributeProxyPolicyINS_6VectorILi19ENS_15PreserveStorageEEEE14AttributeProxyEEC2Ev"
 "_ZN4Rcpp12GenericProxyINS_8internal13generic_proxyILi19ENS_15PreserveStorageEEEEC2Ev"
 "_ZN4Rcpp12MatrixColumnILi13EEC1ERNS_6MatrixILi13ENS_15PreserveStorageEEEi"
 "_ZN4Rcpp12MatrixColumnILi14EEaSILi14ELb1ENS_6VectorILi14ENS_15PreserveStorageEEEEERS1_RKNS_10VectorBaseIXT_EXT0_ET1_EE"
 "_ZN4Rcpp12MatrixColumnILi14EEC1ERNS_6MatrixILi14ENS_15PreserveStorageEEEi"
 "_ZN4Rcpp12not_a_matrixC1Ev"
 "_ZN4Rcpp12not_a_matrixD0Ev"
 "_ZN4Rcpp12not_a_matrixD1Ev"
 "_ZN4Rcpp12Rcpp_protectEP7SEXPREC"
 "_ZN4Rcpp12RObject_ImplINS_15PreserveStorageEE6updateEP7SEXPREC"
 "_ZN4Rcpp12RObject_ImplINS_15PreserveStorageEEC1EP7SEXPREC"
 "_ZN4Rcpp12RObject_ImplINS_15PreserveStorageEED1Ev"
 "_ZN4Rcpp12SignedMethodI11VideoWriterE5nargsEv"
 "_ZN4Rcpp12SignedMethodI11VideoWriterE7is_voidEv"
 "_ZN4Rcpp12SignedMethodI11VideoWriterE8is_constEv"
 "_ZN4Rcpp12SignedMethodI11VideoWriterE9signatureERSsPKc"
 "_ZN4Rcpp12SignedMethodI11VideoWriterEC1EPNS_9CppMethodIS1_EEPFbPP7SEXPRECiEPKc"
 "_ZN4Rcpp12SignedMethodI5ImageE5nargsEv"
 "_ZN4Rcpp12SignedMethodI5ImageE7is_voidEv"
 "_ZN4Rcpp12SignedMethodI5ImageE8is_constEv"
 "_ZN4Rcpp12SignedMethodI5ImageE9signatureERSsPKc"
 "_ZN4Rcpp12SignedMethodI5ImageEC1EPNS_9CppMethodIS1_EEPFbPP7SEXPRECiEPKc"
 "_ZN4Rcpp12SignedMethodI5VideoE5nargsEv"
 "_ZN4Rcpp12SignedMethodI5VideoE7is_voidEv"
 "_ZN4Rcpp12SignedMethodI5VideoE8is_constEv"
 "_ZN4Rcpp12SignedMethodI5VideoE9signatureERSsPKc"
 "_ZN4Rcpp12SignedMethodI5VideoEC1EPNS_9CppMethodIS1_EEPFbPP7SEXPRECiEPKc"
 "_ZN4Rcpp12SignedMethodI6StreamE5nargsEv"
 "_ZN4Rcpp12SignedMethodI6StreamE7is_voidEv"
 "_ZN4Rcpp12SignedMethodI6StreamE8is_constEv"
 "_ZN4Rcpp12SignedMethodI6StreamE9signatureERSsPKc"
 "_ZN4Rcpp12SignedMethodI6StreamEC1EPNS_9CppMethodIS1_EEPFbPP7SEXPRECiEPKc"
 "_ZN4Rcpp13BindingPolicyINS_16Environment_ImplINS_15PreserveStorageEEEE7BindingC1ERS3_RKSs"
 "_ZN4Rcpp13BindingPolicyINS_16Environment_ImplINS_15PreserveStorageEEEE7BindingD1Ev"
 "_ZN4Rcpp13BindingPolicyINS_16Environment_ImplINS_15PreserveStorageEEEEC2Ev"
 "_ZN4Rcpp13BindingPolicyINS_16Environment_ImplINS_15PreserveStorageEEEEixERKSs"
 "_ZN4Rcpp13Constructor_0I11VideoWriterE5nargsEv"
 "_ZN4Rcpp13Constructor_0I11VideoWriterE7get_newEPP7SEXPRECi"
 "_ZN4Rcpp13Constructor_0I11VideoWriterE9signatureERSsRKSs"
 "_ZN4Rcpp13Constructor_0I11VideoWriterEC1Ev"
 "_ZN4Rcpp13Constructor_0I5ImageE5nargsEv"
 "_ZN4Rcpp13Constructor_0I5ImageE7get_newEPP7SEXPRECi"
 "_ZN4Rcpp13Constructor_0I5ImageE9signatureERSsRKSs"
 "_ZN4Rcpp13Constructor_0I5ImageEC1Ev"
 "_ZN4Rcpp13Constructor_0I5VideoE5nargsEv"
 "_ZN4Rcpp13Constructor_0I5VideoE7get_newEPP7SEXPRECi"
 "_ZN4Rcpp13Constructor_0I5VideoE9signatureERSsRKSs"
 "_ZN4Rcpp13Constructor_0I5VideoEC1Ev"
 "_ZN4Rcpp13Constructor_0I6StreamE5nargsEv"
 "_ZN4Rcpp13Constructor_0I6StreamE7get_newEPP7SEXPRECi"
 "_ZN4Rcpp13Constructor_0I6StreamE9signatureERSsRKSs"
 "_ZN4Rcpp13Constructor_0I6StreamEC1Ev"
 "_ZN4Rcpp13Constructor_1I5ImageN4arma4CubeIdEEE5nargsEv"
 "_ZN4Rcpp13Constructor_1I5ImageN4arma4CubeIdEEE7get_newEPP7SEXPRECi"
 "_ZN4Rcpp13Constructor_1I5ImageN4arma4CubeIdEEE9signatureERSsRKSs"
 "_ZN4Rcpp13Constructor_1I5ImageN4arma4CubeIdEEEC1Ev"
 "_ZN4Rcpp13Constructor_1I5ImageN4arma4CubeIiEEE5nargsEv"
 "_ZN4Rcpp13Constructor_1I5ImageN4arma4CubeIiEEE7get_newEPP7SEXPRECi"
 "_ZN4Rcpp13Constructor_1I5ImageN4arma4CubeIiEEE9signatureERSsRKSs"
 "_ZN4Rcpp13Constructor_1I5ImageN4arma4CubeIiEEEC1Ev"
 "_ZN4Rcpp13Constructor_1I5ImageSsE5nargsEv"
 "_ZN4Rcpp13Constructor_1I5ImageSsE7get_newEPP7SEXPRECi"
 "_ZN4Rcpp13Constructor_1I5ImageSsE9signatureERSsRKSs"
 "_ZN4Rcpp13Constructor_1I5ImageSsEC1Ev"
 "_ZN4Rcpp13Constructor_2I5VideoSsSsE5nargsEv"
 "_ZN4Rcpp13Constructor_2I5VideoSsSsE7get_newEPP7SEXPRECi"
 "_ZN4Rcpp13Constructor_2I5VideoSsSsE9signatureERSsRKSs"
 "_ZN4Rcpp13Constructor_2I5VideoSsSsEC1Ev"
 "_ZN4Rcpp13Constructor_2I6StreamiSsE5nargsEv"
 "_ZN4Rcpp13Constructor_2I6StreamiSsE7get_newEPP7SEXPRECi"
 "_ZN4Rcpp13Constructor_2I6StreamiSsE9signatureERSsRKSs"
 "_ZN4Rcpp13Constructor_2I6StreamiSsEC1Ev"
 "_ZN4Rcpp13Constructor_7I11VideoWriterSsSsdiibSsE5nargsEv"
 "_ZN4Rcpp13Constructor_7I11VideoWriterSsSsdiibSsE7get_newEPP7SEXPRECi"
 "_ZN4Rcpp13Constructor_7I11VideoWriterSsSsdiibSsE9signatureERSsRKSs"
 "_ZN4Rcpp13Constructor_7I11VideoWriterSsSsdiibSsEC1Ev"
 "_ZN4Rcpp13Function_ImplINS_15PreserveStorageEE6updateEP7SEXPREC"
 "_ZN4Rcpp13Function_ImplINS_15PreserveStorageEEC1EP7SEXPREC"
 "_ZN4Rcpp13Function_ImplINS_15PreserveStorageEEC1ERKS2_"
 "_ZN4Rcpp13Function_ImplINS_15PreserveStorageEED1Ev"
 "_ZN4Rcpp13not_referenceC1Ev"
 "_ZN4Rcpp13not_referenceD0Ev"
 "_ZN4Rcpp13not_referenceD1Ev"
 "_ZN4Rcpp13RcppArmadillo9arma_wrapIN4arma3MatIdEEEEP7SEXPRECRKT_RKNS_9DimensionE"
 "_ZN4Rcpp13RcppArmadillo9arma_wrapIN4arma3MatIfEEEEP7SEXPRECRKT_RKNS_9DimensionE"
 "_ZN4Rcpp13RcppArmadillo9arma_wrapIN4arma4CubeIdEEEEP7SEXPRECRKT_RKNS_9DimensionE"
 "_ZN4Rcpp13SignedFactoryI11VideoWriterE5nargsEv"
 "_ZN4Rcpp13SignedFactoryI5ImageE5nargsEv"
 "_ZN4Rcpp13SignedFactoryI5VideoE5nargsEv"
 "_ZN4Rcpp13SignedFactoryI6StreamE5nargsEv"
 "_ZN4Rcpp14ctor_signatureERSsRKSs"
 "_ZN4Rcpp14ctor_signatureIiSsEEvRSsRKSs"
 "_ZN4Rcpp14ctor_signatureIN4arma4CubeIdEEEEvRSsRKSs"
 "_ZN4Rcpp14ctor_signatureIN4arma4CubeIiEEEEvRSsRKSs"
 "_ZN4Rcpp14ctor_signatureISsEEvRSsRKSs"
 "_ZN4Rcpp14ctor_signatureISsSsdiibSsEEvRSsRKSs"
 "_ZN4Rcpp14ctor_signatureISsSsEEvRSsRKSs"
 "_ZN4Rcpp14DataFrame_ImplINS_15PreserveStorageEE5set__EP7SEXPREC"
 "_ZN4Rcpp14DataFrame_ImplINS_15PreserveStorageEE6createINS_6traits12named_objectIiEES6_S6_EES2_RKT_RKT0_RKT1_"
 "_ZN4Rcpp14DataFrame_ImplINS_15PreserveStorageEE6createINS_6traits12named_objectINS_6VectorILi13ES1_EEEENS5_INS_5sugar21Plus_Vector_PrimitiveILi14ELb1ENS6_ILi14ES1_EEEEEENS5_INSA_ILi14ELb1ENS9_17UnaryMinus_VectorILi14ELb1ESB_EEEEEENS5_ISB_EEEES2_RKT_RKT0_RKT1_RKT2_"
 "_ZN4Rcpp14DataFrame_ImplINS_15PreserveStorageEE6createINS_6traits12named_objectINS_6VectorILi13ES1_EEEENS5_INS6_ILi14ES1_EEEENS5_INS_5sugar21Plus_Vector_PrimitiveILi14ELb1ENSB_17UnaryMinus_VectorILi14ELb1ES9_EEEEEEEES2_RKT_RKT0_RKT1_"
 "_ZN4Rcpp14DataFrame_ImplINS_15PreserveStorageEE6createINS_6traits12named_objectINS_6VectorILi13ES1_EEEES8_S8_S8_S8_EES2_RKT_RKT0_RKT1_RKT2_RKT3_"
 "_ZN4Rcpp14DataFrame_ImplINS_15PreserveStorageEE6createINS_6traits12named_objectINS_6VectorILi14ES1_EEEES8_EES2_RKT_RKT0_"
 "_ZN4Rcpp14DataFrame_ImplINS_15PreserveStorageEE6createINS_6traits12named_objectINS_6VectorILi14ES1_EEEES8_S8_S8_EES2_RKT_RKT0_RKT1_RKT2_"
 "_ZN4Rcpp14DataFrame_ImplINS_15PreserveStorageEE9from_listENS_6VectorILi19ES1_EE"
 "_ZN4Rcpp14DataFrame_ImplINS_15PreserveStorageEEC1ERKS2_"
 "_ZN4Rcpp14DataFrame_ImplINS_15PreserveStorageEEC1INS_6ShieldIP7SEXPRECEEEERKT_"
 "_ZN4Rcpp14DataFrame_ImplINS_15PreserveStorageEEC1INS_6VectorILi19ES1_EEEERKT_"
 "_ZN4Rcpp14DataFrame_ImplINS_15PreserveStorageEED1Ev"
 "_ZN4Rcpp14InputParameterI5ImageEC1EP7SEXPREC"
 "_ZN4Rcpp14InputParameterI5ImageEcvS1_Ev"
 "_ZN4Rcpp14InputParameterIbEC1EP7SEXPREC"
 "_ZN4Rcpp14InputParameterIbEcvbEv"
 "_ZN4Rcpp14InputParameterIdEC1EP7SEXPREC"
 "_ZN4Rcpp14InputParameterIdEcvdEv"
 "_ZN4Rcpp14InputParameterIfEC1EP7SEXPREC"
 "_ZN4Rcpp14InputParameterIfEcvfEv"
 "_ZN4Rcpp14InputParameterIhEC1EP7SEXPREC"
 "_ZN4Rcpp14InputParameterIhEcvhEv"
 "_ZN4Rcpp14InputParameterIiEC1EP7SEXPREC"
 "_ZN4Rcpp14InputParameterIiEcviEv"
 "_ZN4Rcpp14InputParameterIN4arma3ColIfEEEC1EP7SEXPREC"
 "_ZN4Rcpp14InputParameterIN4arma3ColIfEEEcvS3_Ev"
 "_ZN4Rcpp14InputParameterIN4arma3MatIfEEEC1EP7SEXPREC"
 "_ZN4Rcpp14InputParameterIN4arma3MatIfEEEcvS3_Ev"
 "_ZN4Rcpp14InputParameterIN4arma4CubeIdEEEC1EP7SEXPREC"
 "_ZN4Rcpp14InputParameterIN4arma4CubeIdEEEcvS3_Ev"
 "_ZN4Rcpp14InputParameterINS_6MatrixILi13ENS_15PreserveStorageEEEEC1EP7SEXPREC"
 "_ZN4Rcpp14InputParameterINS_6MatrixILi13ENS_15PreserveStorageEEEEcvS3_Ev"
 "_ZN4Rcpp14InputParameterINS_6MatrixILi14ENS_15PreserveStorageEEEEC1EP7SEXPREC"
 "_ZN4Rcpp14InputParameterINS_6MatrixILi14ENS_15PreserveStorageEEEEcvS3_Ev"
 "_ZN4Rcpp14InputParameterINS_6VectorILi10ENS_15PreserveStorageEEEEC1EP7SEXPREC"
 "_ZN4Rcpp14InputParameterINS_6VectorILi10ENS_15PreserveStorageEEEEcvS3_Ev"
 "_ZN4Rcpp14InputParameterINS_6VectorILi13ENS_15PreserveStorageEEEEC1EP7SEXPREC"
 "_ZN4Rcpp14InputParameterINS_6VectorILi13ENS_15PreserveStorageEEEEcvS3_Ev"
 "_ZN4Rcpp14InputParameterINS_6VectorILi14ENS_15PreserveStorageEEEEC1EP7SEXPREC"
 "_ZN4Rcpp14InputParameterINS_6VectorILi14ENS_15PreserveStorageEEEEcvS3_Ev"
 "_ZN4Rcpp14InputParameterINS_6VectorILi16ENS_15PreserveStorageEEEEC1EP7SEXPREC"
 "_ZN4Rcpp14InputParameterINS_6VectorILi16ENS_15PreserveStorageEEEEcvS3_Ev"
 "_ZN4Rcpp14InputParameterINS_6VectorILi19ENS_15PreserveStorageEEEEC1EP7SEXPREC"
 "_ZN4Rcpp14InputParameterINS_6VectorILi19ENS_15PreserveStorageEEEEcvS3_Ev"
 "_ZN4Rcpp14InputParameterIR5ImageEC1EP7SEXPREC"
 "_ZN4Rcpp14InputParameterIR5ImageEcvS2_Ev"
 "_ZN4Rcpp14InputParameterISsEC1EP7SEXPREC"
 "_ZN4Rcpp14InputParameterISsEcvSsEv"
 "_ZN4Rcpp14InputParameterIyEC1EP7SEXPREC"
 "_ZN4Rcpp14InputParameterIyEcvyEv"
 "_ZN4Rcpp14not_compatibleC1IIiEEEPKcDpOT_"
 "_ZN4Rcpp14not_compatibleC1IIPKcEEES3_DpOT_"
 "_ZN4Rcpp14not_compatibleC1IIPKciEEES3_DpOT_"
 "_ZN4Rcpp14not_compatibleC1IIRKPKcEEES3_DpOT_"
 "_ZN4Rcpp14not_compatibleD0Ev"
 "_ZN4Rcpp14not_compatibleD1Ev"
 "_ZN4Rcpp14Rcpp_fast_evalEP7SEXPRECS1_"
 "_ZN4Rcpp14Rcpp_unprotectEi"
 "_ZN4Rcpp14Reference_ImplINS_15PreserveStorageEE6updateEP7SEXPREC"
 "_ZN4Rcpp14Reference_ImplINS_15PreserveStorageEEC2ERKSs"
 "_ZN4Rcpp14Reference_ImplINS_15PreserveStorageEED2Ev"
 "_ZN4Rcpp14RObjectMethodsINS_12RObject_ImplINS_15PreserveStorageEEEEC2Ev"
 "_ZN4Rcpp14RObjectMethodsINS_13Function_ImplINS_15PreserveStorageEEEEC2Ev"
 "_ZN4Rcpp14RObjectMethodsINS_14Reference_ImplINS_15PreserveStorageEEEEC2Ev"
 "_ZN4Rcpp14RObjectMethodsINS_16Environment_ImplINS_15PreserveStorageEEEEC2Ev"
 "_ZN4Rcpp14RObjectMethodsINS_4XPtrI11VideoWriterNS_15PreserveStorageEXadL_ZNS_25standard_delete_finalizerIS2_EEvPT_EELb0EEEEC2Ev"
 "_ZN4Rcpp14RObjectMethodsINS_4XPtrI5ImageNS_15PreserveStorageEXadL_ZNS_25standard_delete_finalizerIS2_EEvPT_EELb0EEEEC2Ev"
 "_ZN4Rcpp14RObjectMethodsINS_4XPtrI5VideoNS_15PreserveStorageEXadL_ZNS_25standard_delete_finalizerIS2_EEvPT_EELb0EEEEC2Ev"
 "_ZN4Rcpp14RObjectMethodsINS_4XPtrI6StreamNS_15PreserveStorageEXadL_ZNS_25standard_delete_finalizerIS2_EEvPT_EELb0EEEEC2Ev"
 "_ZN4Rcpp14RObjectMethodsINS_4XPtrINS_11CppPropertyI11VideoWriterEENS_15PreserveStorageEXadL_ZNS_25standard_delete_finalizerIS4_EEvPT_EELb0EEEEC2Ev"
 "_ZN4Rcpp14RObjectMethodsINS_4XPtrINS_11CppPropertyI5ImageEENS_15PreserveStorageEXadL_ZNS_25standard_delete_finalizerIS4_EEvPT_EELb0EEEEC2Ev"
 "_ZN4Rcpp14RObjectMethodsINS_4XPtrINS_11CppPropertyI5VideoEENS_15PreserveStorageEXadL_ZNS_25standard_delete_finalizerIS4_EEvPT_EELb0EEEEC2Ev"
 "_ZN4Rcpp14RObjectMethodsINS_4XPtrINS_11CppPropertyI6StreamEENS_15PreserveStorageEXadL_ZNS_25standard_delete_finalizerIS4_EEvPT_EELb0EEEEC2Ev"
 "_ZN4Rcpp14RObjectMethodsINS_4XPtrINS_17SignedConstructorI11VideoWriterEENS_15PreserveStorageEXadL_ZNS_25standard_delete_finalizerIS4_EEvPT_EELb0EEEEC2Ev"
 "_ZN4Rcpp14RObjectMethodsINS_4XPtrINS_17SignedConstructorI5ImageEENS_15PreserveStorageEXadL_ZNS_25standard_delete_finalizerIS4_EEvPT_EELb0EEEEC2Ev"
 "_ZN4Rcpp14RObjectMethodsINS_4XPtrINS_17SignedConstructorI5VideoEENS_15PreserveStorageEXadL_ZNS_25standard_delete_finalizerIS4_EEvPT_EELb0EEEEC2Ev"
 "_ZN4Rcpp14RObjectMethodsINS_4XPtrINS_17SignedConstructorI6StreamEENS_15PreserveStorageEXadL_ZNS_25standard_delete_finalizerIS4_EEvPT_EELb0EEEEC2Ev"
 "_ZN4Rcpp14RObjectMethodsINS_4XPtrINS_6ModuleENS_15PreserveStorageEXadL_ZNS_25standard_delete_finalizerIS2_EEvPT_EELb0EEEEC2Ev"
 "_ZN4Rcpp14RObjectMethodsINS_4XPtrISt6vectorIPNS_12SignedMethodI11VideoWriterEESaIS6_EENS_15PreserveStorageEXadL_ZNS_25standard_delete_finalizerIS8_EEvPT_EELb0EEEEC2Ev"
 "_ZN4Rcpp14RObjectMethodsINS_4XPtrISt6vectorIPNS_12SignedMethodI5ImageEESaIS6_EENS_15PreserveStorageEXadL_ZNS_25standard_delete_finalizerIS8_EEvPT_EELb0EEEEC2Ev"
 "_ZN4Rcpp14RObjectMethodsINS_4XPtrISt6vectorIPNS_12SignedMethodI5VideoEESaIS6_EENS_15PreserveStorageEXadL_ZNS_25standard_delete_finalizerIS8_EEvPT_EELb0EEEEC2Ev"
 "_ZN4Rcpp14RObjectMethodsINS_4XPtrISt6vectorIPNS_12SignedMethodI6StreamEESaIS6_EENS_15PreserveStorageEXadL_ZNS_25standard_delete_finalizerIS8_EEvPT_EELb0EEEEC2Ev"
 "_ZN4Rcpp14RObjectMethodsINS_6VectorILi10ENS_15PreserveStorageEEEEC2Ev"
 "_ZN4Rcpp14RObjectMethodsINS_6VectorILi13ENS_15PreserveStorageEEEEC2Ev"
 "_ZN4Rcpp14RObjectMethodsINS_6VectorILi14ENS_15PreserveStorageEEEEC2Ev"
 "_ZN4Rcpp14RObjectMethodsINS_6VectorILi16ENS_15PreserveStorageEEEEC2Ev"
 "_ZN4Rcpp14RObjectMethodsINS_6VectorILi19ENS_15PreserveStorageEEEEC2Ev"
 "_ZN4Rcpp14TagProxyPolicyINS_4XPtrI11VideoWriterNS_15PreserveStorageEXadL_ZNS_25standard_delete_finalizerIS2_EEvPT_EELb0EEEEC2Ev"
 "_ZN4Rcpp14TagProxyPolicyINS_4XPtrI5ImageNS_15PreserveStorageEXadL_ZNS_25standard_delete_finalizerIS2_EEvPT_EELb0EEEEC2Ev"
 "_ZN4Rcpp14TagProxyPolicyINS_4XPtrI5VideoNS_15PreserveStorageEXadL_ZNS_25standard_delete_finalizerIS2_EEvPT_EELb0EEEEC2Ev"
 "_ZN4Rcpp14TagProxyPolicyINS_4XPtrI6StreamNS_15PreserveStorageEXadL_ZNS_25standard_delete_finalizerIS2_EEvPT_EELb0EEEEC2Ev"
 "_ZN4Rcpp14TagProxyPolicyINS_4XPtrINS_11CppPropertyI11VideoWriterEENS_15PreserveStorageEXadL_ZNS_25standard_delete_finalizerIS4_EEvPT_EELb0EEEEC2Ev"
 "_ZN4Rcpp14TagProxyPolicyINS_4XPtrINS_11CppPropertyI5ImageEENS_15PreserveStorageEXadL_ZNS_25standard_delete_finalizerIS4_EEvPT_EELb0EEEEC2Ev"
 "_ZN4Rcpp14TagProxyPolicyINS_4XPtrINS_11CppPropertyI5VideoEENS_15PreserveStorageEXadL_ZNS_25standard_delete_finalizerIS4_EEvPT_EELb0EEEEC2Ev"
 "_ZN4Rcpp14TagProxyPolicyINS_4XPtrINS_11CppPropertyI6StreamEENS_15PreserveStorageEXadL_ZNS_25standard_delete_finalizerIS4_EEvPT_EELb0EEEEC2Ev"
 "_ZN4Rcpp14TagProxyPolicyINS_4XPtrINS_17SignedConstructorI11VideoWriterEENS_15PreserveStorageEXadL_ZNS_25standard_delete_finalizerIS4_EEvPT_EELb0EEEEC2Ev"
 "_ZN4Rcpp14TagProxyPolicyINS_4XPtrINS_17SignedConstructorI5ImageEENS_15PreserveStorageEXadL_ZNS_25standard_delete_finalizerIS4_EEvPT_EELb0EEEEC2Ev"
 "_ZN4Rcpp14TagProxyPolicyINS_4XPtrINS_17SignedConstructorI5VideoEENS_15PreserveStorageEXadL_ZNS_25standard_delete_finalizerIS4_EEvPT_EELb0EEEEC2Ev"
 "_ZN4Rcpp14TagProxyPolicyINS_4XPtrINS_17SignedConstructorI6StreamEENS_15PreserveStorageEXadL_ZNS_25standard_delete_finalizerIS4_EEvPT_EELb0EEEEC2Ev"
 "_ZN4Rcpp14TagProxyPolicyINS_4XPtrINS_6ModuleENS_15PreserveStorageEXadL_ZNS_25standard_delete_finalizerIS2_EEvPT_EELb0EEEEC2Ev"
 "_ZN4Rcpp14TagProxyPolicyINS_4XPtrISt6vectorIPNS_12SignedMethodI11VideoWriterEESaIS6_EENS_15PreserveStorageEXadL_ZNS_25standard_delete_finalizerIS8_EEvPT_EELb0EEEEC2Ev"
 "_ZN4Rcpp14TagProxyPolicyINS_4XPtrISt6vectorIPNS_12SignedMethodI5ImageEESaIS6_EENS_15PreserveStorageEXadL_ZNS_25standard_delete_finalizerIS8_EEvPT_EELb0EEEEC2Ev"
 "_ZN4Rcpp14TagProxyPolicyINS_4XPtrISt6vectorIPNS_12SignedMethodI5VideoEESaIS6_EENS_15PreserveStorageEXadL_ZNS_25standard_delete_finalizerIS8_EEvPT_EELb0EEEEC2Ev"
 "_ZN4Rcpp14TagProxyPolicyINS_4XPtrISt6vectorIPNS_12SignedMethodI6StreamEESaIS6_EENS_15PreserveStorageEXadL_ZNS_25standard_delete_finalizerIS8_EEvPT_EELb0EEEEC2Ev"
 "_ZN4Rcpp15CppFunctionBaseC2Ev"
 "_ZN4Rcpp15CppFunctionBaseclEPP7SEXPREC"
 "_ZN4Rcpp15CppFunctionBaseD0Ev"
 "_ZN4Rcpp15CppFunctionBaseD1Ev"
 "_ZN4Rcpp15CppFunctionBaseD2Ev"
 "_ZN4Rcpp15get_return_typeI5ImageEESsv"
 "_ZN4Rcpp15get_return_typeIbEESsv"
 "_ZN4Rcpp15get_return_typeIdEESsv"
 "_ZN4Rcpp15get_return_typeIfEESsv"
 "_ZN4Rcpp15get_return_typeIhEESsv"
 "_ZN4Rcpp15get_return_typeIiEESsv"
 "_ZN4Rcpp15get_return_typeIN4arma3ColIfEEEESsv"
 "_ZN4Rcpp15get_return_typeIN4arma3MatIdEEEESsv"
 "_ZN4Rcpp15get_return_typeIN4arma3MatIfEEEESsv"
 "_ZN4Rcpp15get_return_typeIN4arma4CubeIdEEEESsv"
 "_ZN4Rcpp15get_return_typeIN4arma4CubeIiEEEESsv"
 "_ZN4Rcpp15get_return_typeINS_14DataFrame_ImplINS_15PreserveStorageEEEEESsv"
 "_ZN4Rcpp15get_return_typeINS_6MatrixILi13ENS_15PreserveStorageEEEEESsv"
 "_ZN4Rcpp15get_return_typeINS_6MatrixILi14ENS_15PreserveStorageEEEEESsv"
 "_ZN4Rcpp15get_return_typeINS_6VectorILi10ENS_15PreserveStorageEEEEESsv"
 "_ZN4Rcpp15get_return_typeINS_6VectorILi13ENS_15PreserveStorageEEEEESsv"
 "_ZN4Rcpp15get_return_typeINS_6VectorILi14ENS_15PreserveStorageEEEEESsv"
 "_ZN4Rcpp15get_return_typeINS_6VectorILi16ENS_15PreserveStorageEEEEESsv"
 "_ZN4Rcpp15get_return_typeINS_6VectorILi19ENS_15PreserveStorageEEEEESsv"
 "_ZN4Rcpp15get_return_typeINS_9void_typeEEESsv"
 "_ZN4Rcpp15get_return_typeIR5ImageEESsv"
 "_ZN4Rcpp15get_return_typeIRNS_6VectorILi19ENS_15PreserveStorageEEEEESsv"
 "_ZN4Rcpp15get_return_typeISsEESsv"
 "_ZN4Rcpp15get_return_typeIyEESsv"
 "_ZN4Rcpp15PreserveStorageINS_12RObject_ImplIS0_EEE5set__EP7SEXPREC"
 "_ZN4Rcpp15PreserveStorageINS_12RObject_ImplIS0_EEEC2Ev"
 "_ZN4Rcpp15PreserveStorageINS_12RObject_ImplIS0_EEED2Ev"
 "_ZN4Rcpp15PreserveStorageINS_13Function_ImplIS0_EEE5set__EP7SEXPREC"
 "_ZN4Rcpp15PreserveStorageINS_13Function_ImplIS0_EEE6copy__IS2_EERT_RKS5_"
 "_ZN4Rcpp15PreserveStorageINS_13Function_ImplIS0_EEEC2Ev"
 "_ZN4Rcpp15PreserveStorageINS_13Function_ImplIS0_EEED2Ev"
 "_ZN4Rcpp15PreserveStorageINS_14Reference_ImplIS0_EEE5set__EP7SEXPREC"
 "_ZN4Rcpp15PreserveStorageINS_14Reference_ImplIS0_EEEC2Ev"
 "_ZN4Rcpp15PreserveStorageINS_14Reference_ImplIS0_EEED2Ev"
 "_ZN4Rcpp15PreserveStorageINS_16Environment_ImplIS0_EEE5set__EP7SEXPREC"
 "_ZN4Rcpp15PreserveStorageINS_16Environment_ImplIS0_EEEC2Ev"
 "_ZN4Rcpp15PreserveStorageINS_16Environment_ImplIS0_EEED2Ev"
 "_ZN4Rcpp15PreserveStorageINS_4XPtrI11VideoWriterS0_XadL_ZNS_25standard_delete_finalizerIS2_EEvPT_EELb0EEEE5set__EP7SEXPREC"
 "_ZN4Rcpp15PreserveStorageINS_4XPtrI11VideoWriterS0_XadL_ZNS_25standard_delete_finalizerIS2_EEvPT_EELb0EEEEC2Ev"
 "_ZN4Rcpp15PreserveStorageINS_4XPtrI11VideoWriterS0_XadL_ZNS_25standard_delete_finalizerIS2_EEvPT_EELb0EEEED2Ev"
 "_ZN4Rcpp15PreserveStorageINS_4XPtrI5ImageS0_XadL_ZNS_25standard_delete_finalizerIS2_EEvPT_EELb0EEEE5set__EP7SEXPREC"
 "_ZN4Rcpp15PreserveStorageINS_4XPtrI5ImageS0_XadL_ZNS_25standard_delete_finalizerIS2_EEvPT_EELb0EEEEC2Ev"
 "_ZN4Rcpp15PreserveStorageINS_4XPtrI5ImageS0_XadL_ZNS_25standard_delete_finalizerIS2_EEvPT_EELb0EEEED2Ev"
 "_ZN4Rcpp15PreserveStorageINS_4XPtrI5VideoS0_XadL_ZNS_25standard_delete_finalizerIS2_EEvPT_EELb0EEEE5set__EP7SEXPREC"
 "_ZN4Rcpp15PreserveStorageINS_4XPtrI5VideoS0_XadL_ZNS_25standard_delete_finalizerIS2_EEvPT_EELb0EEEEC2Ev"
 "_ZN4Rcpp15PreserveStorageINS_4XPtrI5VideoS0_XadL_ZNS_25standard_delete_finalizerIS2_EEvPT_EELb0EEEED2Ev"
 "_ZN4Rcpp15PreserveStorageINS_4XPtrI6StreamS0_XadL_ZNS_25standard_delete_finalizerIS2_EEvPT_EELb0EEEE5set__EP7SEXPREC"
 "_ZN4Rcpp15PreserveStorageINS_4XPtrI6StreamS0_XadL_ZNS_25standard_delete_finalizerIS2_EEvPT_EELb0EEEEC2Ev"
 "_ZN4Rcpp15PreserveStorageINS_4XPtrI6StreamS0_XadL_ZNS_25standard_delete_finalizerIS2_EEvPT_EELb0EEEED2Ev"
 "_ZN4Rcpp15PreserveStorageINS_4XPtrINS_11CppPropertyI11VideoWriterEES0_XadL_ZNS_25standard_delete_finalizerIS4_EEvPT_EELb0EEEE5set__EP7SEXPREC"
 "_ZN4Rcpp15PreserveStorageINS_4XPtrINS_11CppPropertyI11VideoWriterEES0_XadL_ZNS_25standard_delete_finalizerIS4_EEvPT_EELb0EEEEC2Ev"
 "_ZN4Rcpp15PreserveStorageINS_4XPtrINS_11CppPropertyI11VideoWriterEES0_XadL_ZNS_25standard_delete_finalizerIS4_EEvPT_EELb0EEEED2Ev"
 "_ZN4Rcpp15PreserveStorageINS_4XPtrINS_11CppPropertyI5ImageEES0_XadL_ZNS_25standard_delete_finalizerIS4_EEvPT_EELb0EEEE5set__EP7SEXPREC"
 "_ZN4Rcpp15PreserveStorageINS_4XPtrINS_11CppPropertyI5ImageEES0_XadL_ZNS_25standard_delete_finalizerIS4_EEvPT_EELb0EEEEC2Ev"
 "_ZN4Rcpp15PreserveStorageINS_4XPtrINS_11CppPropertyI5ImageEES0_XadL_ZNS_25standard_delete_finalizerIS4_EEvPT_EELb0EEEED2Ev"
 "_ZN4Rcpp15PreserveStorageINS_4XPtrINS_11CppPropertyI5VideoEES0_XadL_ZNS_25standard_delete_finalizerIS4_EEvPT_EELb0EEEE5set__EP7SEXPREC"
 "_ZN4Rcpp15PreserveStorageINS_4XPtrINS_11CppPropertyI5VideoEES0_XadL_ZNS_25standard_delete_finalizerIS4_EEvPT_EELb0EEEEC2Ev"
 "_ZN4Rcpp15PreserveStorageINS_4XPtrINS_11CppPropertyI5VideoEES0_XadL_ZNS_25standard_delete_finalizerIS4_EEvPT_EELb0EEEED2Ev"
 "_ZN4Rcpp15PreserveStorageINS_4XPtrINS_11CppPropertyI6StreamEES0_XadL_ZNS_25standard_delete_finalizerIS4_EEvPT_EELb0EEEE5set__EP7SEXPREC"
 "_ZN4Rcpp15PreserveStorageINS_4XPtrINS_11CppPropertyI6StreamEES0_XadL_ZNS_25standard_delete_finalizerIS4_EEvPT_EELb0EEEEC2Ev"
 "_ZN4Rcpp15PreserveStorageINS_4XPtrINS_11CppPropertyI6StreamEES0_XadL_ZNS_25standard_delete_finalizerIS4_EEvPT_EELb0EEEED2Ev"
 "_ZN4Rcpp15PreserveStorageINS_4XPtrINS_17SignedConstructorI11VideoWriterEES0_XadL_ZNS_25standard_delete_finalizerIS4_EEvPT_EELb0EEEE5set__EP7SEXPREC"
 "_ZN4Rcpp15PreserveStorageINS_4XPtrINS_17SignedConstructorI11VideoWriterEES0_XadL_ZNS_25standard_delete_finalizerIS4_EEvPT_EELb0EEEEC2Ev"
 "_ZN4Rcpp15PreserveStorageINS_4XPtrINS_17SignedConstructorI11VideoWriterEES0_XadL_ZNS_25standard_delete_finalizerIS4_EEvPT_EELb0EEEED2Ev"
 "_ZN4Rcpp15PreserveStorageINS_4XPtrINS_17SignedConstructorI5ImageEES0_XadL_ZNS_25standard_delete_finalizerIS4_EEvPT_EELb0EEEE5set__EP7SEXPREC"
 "_ZN4Rcpp15PreserveStorageINS_4XPtrINS_17SignedConstructorI5ImageEES0_XadL_ZNS_25standard_delete_finalizerIS4_EEvPT_EELb0EEEEC2Ev"
 "_ZN4Rcpp15PreserveStorageINS_4XPtrINS_17SignedConstructorI5ImageEES0_XadL_ZNS_25standard_delete_finalizerIS4_EEvPT_EELb0EEEED2Ev"
 "_ZN4Rcpp15PreserveStorageINS_4XPtrINS_17SignedConstructorI5VideoEES0_XadL_ZNS_25standard_delete_finalizerIS4_EEvPT_EELb0EEEE5set__EP7SEXPREC"
 "_ZN4Rcpp15PreserveStorageINS_4XPtrINS_17SignedConstructorI5VideoEES0_XadL_ZNS_25standard_delete_finalizerIS4_EEvPT_EELb0EEEEC2Ev"
 "_ZN4Rcpp15PreserveStorageINS_4XPtrINS_17SignedConstructorI5VideoEES0_XadL_ZNS_25standard_delete_finalizerIS4_EEvPT_EELb0EEEED2Ev"
 "_ZN4Rcpp15PreserveStorageINS_4XPtrINS_17SignedConstructorI6StreamEES0_XadL_ZNS_25standard_delete_finalizerIS4_EEvPT_EELb0EEEE5set__EP7SEXPREC"
 "_ZN4Rcpp15PreserveStorageINS_4XPtrINS_17SignedConstructorI6StreamEES0_XadL_ZNS_25standard_delete_finalizerIS4_EEvPT_EELb0EEEEC2Ev"
 "_ZN4Rcpp15PreserveStorageINS_4XPtrINS_17SignedConstructorI6StreamEES0_XadL_ZNS_25standard_delete_finalizerIS4_EEvPT_EELb0EEEED2Ev"
 "_ZN4Rcpp15PreserveStorageINS_4XPtrINS_6ModuleES0_XadL_ZNS_25standard_delete_finalizerIS2_EEvPT_EELb0EEEE5set__EP7SEXPREC"
 "_ZN4Rcpp15PreserveStorageINS_4XPtrINS_6ModuleES0_XadL_ZNS_25standard_delete_finalizerIS2_EEvPT_EELb0EEEEC2Ev"
 "_ZN4Rcpp15PreserveStorageINS_4XPtrINS_6ModuleES0_XadL_ZNS_25standard_delete_finalizerIS2_EEvPT_EELb0EEEED2Ev"
 "_ZN4Rcpp15PreserveStorageINS_4XPtrISt6vectorIPNS_12SignedMethodI11VideoWriterEESaIS6_EES0_XadL_ZNS_25standard_delete_finalizerIS8_EEvPT_EELb0EEEE5set__EP7SEXPREC"
 "_ZN4Rcpp15PreserveStorageINS_4XPtrISt6vectorIPNS_12SignedMethodI11VideoWriterEESaIS6_EES0_XadL_ZNS_25standard_delete_finalizerIS8_EEvPT_EELb0EEEEC2Ev"
 "_ZN4Rcpp15PreserveStorageINS_4XPtrISt6vectorIPNS_12SignedMethodI11VideoWriterEESaIS6_EES0_XadL_ZNS_25standard_delete_finalizerIS8_EEvPT_EELb0EEEED2Ev"
 "_ZN4Rcpp15PreserveStorageINS_4XPtrISt6vectorIPNS_12SignedMethodI5ImageEESaIS6_EES0_XadL_ZNS_25standard_delete_finalizerIS8_EEvPT_EELb0EEEE5set__EP7SEXPREC"
 "_ZN4Rcpp15PreserveStorageINS_4XPtrISt6vectorIPNS_12SignedMethodI5ImageEESaIS6_EES0_XadL_ZNS_25standard_delete_finalizerIS8_EEvPT_EELb0EEEEC2Ev"
 "_ZN4Rcpp15PreserveStorageINS_4XPtrISt6vectorIPNS_12SignedMethodI5ImageEESaIS6_EES0_XadL_ZNS_25standard_delete_finalizerIS8_EEvPT_EELb0EEEED2Ev"
 "_ZN4Rcpp15PreserveStorageINS_4XPtrISt6vectorIPNS_12SignedMethodI5VideoEESaIS6_EES0_XadL_ZNS_25standard_delete_finalizerIS8_EEvPT_EELb0EEEE5set__EP7SEXPREC"
 "_ZN4Rcpp15PreserveStorageINS_4XPtrISt6vectorIPNS_12SignedMethodI5VideoEESaIS6_EES0_XadL_ZNS_25standard_delete_finalizerIS8_EEvPT_EELb0EEEEC2Ev"
 "_ZN4Rcpp15PreserveStorageINS_4XPtrISt6vectorIPNS_12SignedMethodI5VideoEESaIS6_EES0_XadL_ZNS_25standard_delete_finalizerIS8_EEvPT_EELb0EEEED2Ev"
 "_ZN4Rcpp15PreserveStorageINS_4XPtrISt6vectorIPNS_12SignedMethodI6StreamEESaIS6_EES0_XadL_ZNS_25standard_delete_finalizerIS8_EEvPT_EELb0EEEE5set__EP7SEXPREC"
 "_ZN4Rcpp15PreserveStorageINS_4XPtrISt6vectorIPNS_12SignedMethodI6StreamEESaIS6_EES0_XadL_ZNS_25standard_delete_finalizerIS8_EEvPT_EELb0EEEEC2Ev"
 "_ZN4Rcpp15PreserveStorageINS_4XPtrISt6vectorIPNS_12SignedMethodI6StreamEESaIS6_EES0_XadL_ZNS_25standard_delete_finalizerIS8_EEvPT_EELb0EEEED2Ev"
 "_ZN4Rcpp15PreserveStorageINS_6VectorILi10ES0_EEE5set__EP7SEXPREC"
 "_ZN4Rcpp15PreserveStorageINS_6VectorILi10ES0_EEE6copy__IS2_EERT_RKS5_"
 "_ZN4Rcpp15PreserveStorageINS_6VectorILi10ES0_EEEC2Ev"
 "_ZN4Rcpp15PreserveStorageINS_6VectorILi10ES0_EEED2Ev"
 "_ZN4Rcpp15PreserveStorageINS_6VectorILi13ES0_EEE5set__EP7SEXPREC"
 "_ZN4Rcpp15PreserveStorageINS_6VectorILi13ES0_EEE6copy__IS2_EERT_RKS5_"
 "_ZN4Rcpp15PreserveStorageINS_6VectorILi13ES0_EEEC2Ev"
 "_ZN4Rcpp15PreserveStorageINS_6VectorILi13ES0_EEED2Ev"
 "_ZN4Rcpp15PreserveStorageINS_6VectorILi14ES0_EEE5set__EP7SEXPREC"
 "_ZN4Rcpp15PreserveStorageINS_6VectorILi14ES0_EEE6copy__IS2_EERT_RKS5_"
 "_ZN4Rcpp15PreserveStorageINS_6VectorILi14ES0_EEEC2Ev"
 "_ZN4Rcpp15PreserveStorageINS_6VectorILi14ES0_EEED2Ev"
 "_ZN4Rcpp15PreserveStorageINS_6VectorILi16ES0_EEE5set__EP7SEXPREC"
 "_ZN4Rcpp15PreserveStorageINS_6VectorILi16ES0_EEE6copy__IS2_EERT_RKS5_"
 "_ZN4Rcpp15PreserveStorageINS_6VectorILi16ES0_EEEC2Ev"
 "_ZN4Rcpp15PreserveStorageINS_6VectorILi16ES0_EEED2Ev"
 "_ZN4Rcpp15PreserveStorageINS_6VectorILi19ES0_EEE5set__EP7SEXPREC"
 "_ZN4Rcpp15PreserveStorageINS_6VectorILi19ES0_EEE6copy__IS2_EERT_RKS5_"
 "_ZN4Rcpp15PreserveStorageINS_6VectorILi19ES0_EEEC2Ev"
 "_ZN4Rcpp15PreserveStorageINS_6VectorILi19ES0_EEED2Ev"
 "_ZN4Rcpp15SlotProxyPolicyINS_12RObject_ImplINS_15PreserveStorageEEEEC2Ev"
 "_ZN4Rcpp15SlotProxyPolicyINS_13Function_ImplINS_15PreserveStorageEEEEC2Ev"
 "_ZN4Rcpp15SlotProxyPolicyINS_14Reference_ImplINS_15PreserveStorageEEEEC2Ev"
 "_ZN4Rcpp15SlotProxyPolicyINS_16Environment_ImplINS_15PreserveStorageEEEEC2Ev"
 "_ZN4Rcpp15SlotProxyPolicyINS_4XPtrI11VideoWriterNS_15PreserveStorageEXadL_ZNS_25standard_delete_finalizerIS2_EEvPT_EELb0EEEEC2Ev"
 "_ZN4Rcpp15SlotProxyPolicyINS_4XPtrI5ImageNS_15PreserveStorageEXadL_ZNS_25standard_delete_finalizerIS2_EEvPT_EELb0EEEEC2Ev"
 "_ZN4Rcpp15SlotProxyPolicyINS_4XPtrI5VideoNS_15PreserveStorageEXadL_ZNS_25standard_delete_finalizerIS2_EEvPT_EELb0EEEEC2Ev"
 "_ZN4Rcpp15SlotProxyPolicyINS_4XPtrI6StreamNS_15PreserveStorageEXadL_ZNS_25standard_delete_finalizerIS2_EEvPT_EELb0EEEEC2Ev"
 "_ZN4Rcpp15SlotProxyPolicyINS_4XPtrINS_11CppPropertyI11VideoWriterEENS_15PreserveStorageEXadL_ZNS_25standard_delete_finalizerIS4_EEvPT_EELb0EEEEC2Ev"
 "_ZN4Rcpp15SlotProxyPolicyINS_4XPtrINS_11CppPropertyI5ImageEENS_15PreserveStorageEXadL_ZNS_25standard_delete_finalizerIS4_EEvPT_EELb0EEEEC2Ev"
 "_ZN4Rcpp15SlotProxyPolicyINS_4XPtrINS_11CppPropertyI5VideoEENS_15PreserveStorageEXadL_ZNS_25standard_delete_finalizerIS4_EEvPT_EELb0EEEEC2Ev"
 "_ZN4Rcpp15SlotProxyPolicyINS_4XPtrINS_11CppPropertyI6StreamEENS_15PreserveStorageEXadL_ZNS_25standard_delete_finalizerIS4_EEvPT_EELb0EEEEC2Ev"
 "_ZN4Rcpp15SlotProxyPolicyINS_4XPtrINS_17SignedConstructorI11VideoWriterEENS_15PreserveStorageEXadL_ZNS_25standard_delete_finalizerIS4_EEvPT_EELb0EEEEC2Ev"
 "_ZN4Rcpp15SlotProxyPolicyINS_4XPtrINS_17SignedConstructorI5ImageEENS_15PreserveStorageEXadL_ZNS_25standard_delete_finalizerIS4_EEvPT_EELb0EEEEC2Ev"
 "_ZN4Rcpp15SlotProxyPolicyINS_4XPtrINS_17SignedConstructorI5VideoEENS_15PreserveStorageEXadL_ZNS_25standard_delete_finalizerIS4_EEvPT_EELb0EEEEC2Ev"
 "_ZN4Rcpp15SlotProxyPolicyINS_4XPtrINS_17SignedConstructorI6StreamEENS_15PreserveStorageEXadL_ZNS_25standard_delete_finalizerIS4_EEvPT_EELb0EEEEC2Ev"
 "_ZN4Rcpp15SlotProxyPolicyINS_4XPtrINS_6ModuleENS_15PreserveStorageEXadL_ZNS_25standard_delete_finalizerIS2_EEvPT_EELb0EEEEC2Ev"
 "_ZN4Rcpp15SlotProxyPolicyINS_4XPtrISt6vectorIPNS_12SignedMethodI11VideoWriterEESaIS6_EENS_15PreserveStorageEXadL_ZNS_25standard_delete_finalizerIS8_EEvPT_EELb0EEEEC2Ev"
 "_ZN4Rcpp15SlotProxyPolicyINS_4XPtrISt6vectorIPNS_12SignedMethodI5ImageEESaIS6_EENS_15PreserveStorageEXadL_ZNS_25standard_delete_finalizerIS8_EEvPT_EELb0EEEEC2Ev"
 "_ZN4Rcpp15SlotProxyPolicyINS_4XPtrISt6vectorIPNS_12SignedMethodI5VideoEESaIS6_EENS_15PreserveStorageEXadL_ZNS_25standard_delete_finalizerIS8_EEvPT_EELb0EEEEC2Ev"
 "_ZN4Rcpp15SlotProxyPolicyINS_4XPtrISt6vectorIPNS_12SignedMethodI6StreamEESaIS6_EENS_15PreserveStorageEXadL_ZNS_25standard_delete_finalizerIS8_EEvPT_EELb0EEEEC2Ev"
 "_ZN4Rcpp15SlotProxyPolicyINS_6VectorILi10ENS_15PreserveStorageEEEEC2Ev"
 "_ZN4Rcpp15SlotProxyPolicyINS_6VectorILi13ENS_15PreserveStorageEEEEC2Ev"
 "_ZN4Rcpp15SlotProxyPolicyINS_6VectorILi14ENS_15PreserveStorageEEEEC2Ev"
 "_ZN4Rcpp15SlotProxyPolicyINS_6VectorILi16ENS_15PreserveStorageEEEEC2Ev"
 "_ZN4Rcpp15SlotProxyPolicyINS_6VectorILi19ENS_15PreserveStorageEEEEC2Ev"
 "_ZN4Rcpp16Constructor_BaseI11VideoWriterEC2Ev"
 "_ZN4Rcpp16Constructor_BaseI5ImageEC2Ev"
 "_ZN4Rcpp16Constructor_BaseI5VideoEC2Ev"
 "_ZN4Rcpp16Constructor_BaseI6StreamEC2Ev"
 "_ZN4Rcpp16Environment_ImplINS_15PreserveStorageEE14as_environmentEP7SEXPREC"
 "_ZN4Rcpp16Environment_ImplINS_15PreserveStorageEE14Rcpp_namespaceEv"
 "_ZN4Rcpp16Environment_ImplINS_15PreserveStorageEE6updateEP7SEXPREC"
 "_ZN4Rcpp16Environment_ImplINS_15PreserveStorageEE8base_envEv"
 "_ZN4Rcpp16Environment_ImplINS_15PreserveStorageEEC1EP7SEXPREC"
 "_ZN4Rcpp16Environment_ImplINS_15PreserveStorageEED1Ev"
 "_ZN4Rcpp16FieldProxyPolicyINS_14Reference_ImplINS_15PreserveStorageEEEE10FieldProxy3setEP7SEXPREC"
 "_ZN4Rcpp16FieldProxyPolicyINS_14Reference_ImplINS_15PreserveStorageEEEE10FieldProxyaSIbEERS5_RKT_"
 "_ZN4Rcpp16FieldProxyPolicyINS_14Reference_ImplINS_15PreserveStorageEEEE10FieldProxyaSIiEERS5_RKT_"
 "_ZN4Rcpp16FieldProxyPolicyINS_14Reference_ImplINS_15PreserveStorageEEEE10FieldProxyaSINS_4XPtrINS_10class_BaseES2_XadL_ZNS_25standard_delete_finalizerIS8_EEvPT_EELb0EEEEERS5_RKT_"
 "_ZN4Rcpp16FieldProxyPolicyINS_14Reference_ImplINS_15PreserveStorageEEEE10FieldProxyaSINS_4XPtrINS_11CppPropertyI11VideoWriterEES2_XadL_ZNS_25standard_delete_finalizerISA_EEvPT_EELb0EEEEERS5_RKT_"
 "_ZN4Rcpp16FieldProxyPolicyINS_14Reference_ImplINS_15PreserveStorageEEEE10FieldProxyaSINS_4XPtrINS_11CppPropertyI5ImageEES2_XadL_ZNS_25standard_delete_finalizerISA_EEvPT_EELb0EEEEERS5_RKT_"
 "_ZN4Rcpp16FieldProxyPolicyINS_14Reference_ImplINS_15PreserveStorageEEEE10FieldProxyaSINS_4XPtrINS_11CppPropertyI5VideoEES2_XadL_ZNS_25standard_delete_finalizerISA_EEvPT_EELb0EEEEERS5_RKT_"
 "_ZN4Rcpp16FieldProxyPolicyINS_14Reference_ImplINS_15PreserveStorageEEEE10FieldProxyaSINS_4XPtrINS_11CppPropertyI6StreamEES2_XadL_ZNS_25standard_delete_finalizerISA_EEvPT_EELb0EEEEERS5_RKT_"
 "_ZN4Rcpp16FieldProxyPolicyINS_14Reference_ImplINS_15PreserveStorageEEEE10FieldProxyaSINS_4XPtrINS_17SignedConstructorI11VideoWriterEES2_XadL_ZNS_25standard_delete_finalizerISA_EEvPT_EELb0EEEEERS5_RKT_"
 "_ZN4Rcpp16FieldProxyPolicyINS_14Reference_ImplINS_15PreserveStorageEEEE10FieldProxyaSINS_4XPtrINS_17SignedConstructorI5ImageEES2_XadL_ZNS_25standard_delete_finalizerISA_EEvPT_EELb0EEEEERS5_RKT_"
 "_ZN4Rcpp16FieldProxyPolicyINS_14Reference_ImplINS_15PreserveStorageEEEE10FieldProxyaSINS_4XPtrINS_17SignedConstructorI5VideoEES2_XadL_ZNS_25standard_delete_finalizerISA_EEvPT_EELb0EEEEERS5_RKT_"
 "_ZN4Rcpp16FieldProxyPolicyINS_14Reference_ImplINS_15PreserveStorageEEEE10FieldProxyaSINS_4XPtrINS_17SignedConstructorI6StreamEES2_XadL_ZNS_25standard_delete_finalizerISA_EEvPT_EELb0EEEEERS5_RKT_"
 "_ZN4Rcpp16FieldProxyPolicyINS_14Reference_ImplINS_15PreserveStorageEEEE10FieldProxyaSINS_4XPtrISt6vectorIPNS_12SignedMethodI11VideoWriterEESaISC_EES2_XadL_ZNS_25standard_delete_finalizerISE_EEvPT_EELb0EEEEERS5_RKT_"
 "_ZN4Rcpp16FieldProxyPolicyINS_14Reference_ImplINS_15PreserveStorageEEEE10FieldProxyaSINS_4XPtrISt6vectorIPNS_12SignedMethodI5ImageEESaISC_EES2_XadL_ZNS_25standard_delete_finalizerISE_EEvPT_EELb0EEEEERS5_RKT_"
 "_ZN4Rcpp16FieldProxyPolicyINS_14Reference_ImplINS_15PreserveStorageEEEE10FieldProxyaSINS_4XPtrISt6vectorIPNS_12SignedMethodI5VideoEESaISC_EES2_XadL_ZNS_25standard_delete_finalizerISE_EEvPT_EELb0EEEEERS5_RKT_"
 "_ZN4Rcpp16FieldProxyPolicyINS_14Reference_ImplINS_15PreserveStorageEEEE10FieldProxyaSINS_4XPtrISt6vectorIPNS_12SignedMethodI6StreamEESaISC_EES2_XadL_ZNS_25standard_delete_finalizerISE_EEvPT_EELb0EEEEERS5_RKT_"
 "_ZN4Rcpp16FieldProxyPolicyINS_14Reference_ImplINS_15PreserveStorageEEEE10FieldProxyaSINS_6VectorILi10ES2_EEEERS5_RKT_"
 "_ZN4Rcpp16FieldProxyPolicyINS_14Reference_ImplINS_15PreserveStorageEEEE10FieldProxyaSINS_6VectorILi13ES2_EEEERS5_RKT_"
 "_ZN4Rcpp16FieldProxyPolicyINS_14Reference_ImplINS_15PreserveStorageEEEE10FieldProxyaSINS_6VectorILi16ES2_EEEERS5_RKT_"
 "_ZN4Rcpp16FieldProxyPolicyINS_14Reference_ImplINS_15PreserveStorageEEEE10FieldProxyaSISsEERS5_RKT_"
 "_ZN4Rcpp16FieldProxyPolicyINS_14Reference_ImplINS_15PreserveStorageEEEE10FieldProxyC1ERS3_RKSs"
 "_ZN4Rcpp16FieldProxyPolicyINS_14Reference_ImplINS_15PreserveStorageEEEE5fieldERKSs"
 "_ZN4Rcpp16FieldProxyPolicyINS_14Reference_ImplINS_15PreserveStorageEEEEC2Ev"
 "_ZN4Rcpp16NamesProxyPolicyINS_6VectorILi10ENS_15PreserveStorageEEEE10NamesProxy3setEP7SEXPREC"
 "_ZN4Rcpp16NamesProxyPolicyINS_6VectorILi10ENS_15PreserveStorageEEEE10NamesProxyaSINS1_ILi16ES2_EEEERS5_RKT_"
 "_ZN4Rcpp16NamesProxyPolicyINS_6VectorILi10ENS_15PreserveStorageEEEE10NamesProxyC1ERS3_"
 "_ZN4Rcpp16NamesProxyPolicyINS_6VectorILi10ENS_15PreserveStorageEEEE5namesEv"
 "_ZN4Rcpp16NamesProxyPolicyINS_6VectorILi10ENS_15PreserveStorageEEEEC2Ev"
 "_ZN4Rcpp16NamesProxyPolicyINS_6VectorILi13ENS_15PreserveStorageEEEE10NamesProxy3setEP7SEXPREC"
 "_ZN4Rcpp16NamesProxyPolicyINS_6VectorILi13ENS_15PreserveStorageEEEE10NamesProxyaSINS1_ILi16ES2_EEEERS5_RKT_"
 "_ZN4Rcpp16NamesProxyPolicyINS_6VectorILi13ENS_15PreserveStorageEEEE10NamesProxyC1ERS3_"
 "_ZN4Rcpp16NamesProxyPolicyINS_6VectorILi13ENS_15PreserveStorageEEEE5namesEv"
 "_ZN4Rcpp16NamesProxyPolicyINS_6VectorILi13ENS_15PreserveStorageEEEEC2Ev"
 "_ZN4Rcpp16NamesProxyPolicyINS_6VectorILi14ENS_15PreserveStorageEEEEC2Ev"
 "_ZN4Rcpp16NamesProxyPolicyINS_6VectorILi16ENS_15PreserveStorageEEEEC2Ev"
 "_ZN4Rcpp16NamesProxyPolicyINS_6VectorILi19ENS_15PreserveStorageEEEE10NamesProxy3setEP7SEXPREC"
 "_ZN4Rcpp16NamesProxyPolicyINS_6VectorILi19ENS_15PreserveStorageEEEE10NamesProxyaSINS1_ILi16ES2_EEEERS5_RKT_"
 "_ZN4Rcpp16NamesProxyPolicyINS_6VectorILi19ENS_15PreserveStorageEEEE10NamesProxyC1ERS3_"
 "_ZN4Rcpp16NamesProxyPolicyINS_6VectorILi19ENS_15PreserveStorageEEEE5namesEv"
 "_ZN4Rcpp16NamesProxyPolicyINS_6VectorILi19ENS_15PreserveStorageEEEEC2Ev"
 "_ZN4Rcpp16wrap_extra_stepsIdEEP7SEXPRECS2_"
 "_ZN4Rcpp16wrap_extra_stepsIfEEP7SEXPRECS2_"
 "_ZN4Rcpp16wrap_extra_stepsIiEEP7SEXPRECS2_"
 "_ZN4Rcpp17finalizer_wrapperI11VideoWriterXadL_ZNS_25standard_delete_finalizerIS1_EEvPT_EEEEvP7SEXPREC"
 "_ZN4Rcpp17finalizer_wrapperI5ImageXadL_ZNS_25standard_delete_finalizerIS1_EEvPT_EEEEvP7SEXPREC"
 "_ZN4Rcpp17finalizer_wrapperI5VideoXadL_ZNS_25standard_delete_finalizerIS1_EEvPT_EEEEvP7SEXPREC"
 "_ZN4Rcpp17finalizer_wrapperI6StreamXadL_ZNS_25standard_delete_finalizerIS1_EEvPT_EEEEvP7SEXPREC"
 "_ZN4Rcpp17finalizer_wrapperINS_11CppPropertyI11VideoWriterEEXadL_ZNS_25standard_delete_finalizerIS3_EEvPT_EEEEvP7SEXPREC"
 "_ZN4Rcpp17finalizer_wrapperINS_11CppPropertyI5ImageEEXadL_ZNS_25standard_delete_finalizerIS3_EEvPT_EEEEvP7SEXPREC"
 "_ZN4Rcpp17finalizer_wrapperINS_11CppPropertyI5VideoEEXadL_ZNS_25standard_delete_finalizerIS3_EEvPT_EEEEvP7SEXPREC"
 "_ZN4Rcpp17finalizer_wrapperINS_11CppPropertyI6StreamEEXadL_ZNS_25standard_delete_finalizerIS3_EEvPT_EEEEvP7SEXPREC"
 "_ZN4Rcpp17finalizer_wrapperINS_17SignedConstructorI11VideoWriterEEXadL_ZNS_25standard_delete_finalizerIS3_EEvPT_EEEEvP7SEXPREC"
 "_ZN4Rcpp17finalizer_wrapperINS_17SignedConstructorI5ImageEEXadL_ZNS_25standard_delete_finalizerIS3_EEvPT_EEEEvP7SEXPREC"
 "_ZN4Rcpp17finalizer_wrapperINS_17SignedConstructorI5VideoEEXadL_ZNS_25standard_delete_finalizerIS3_EEvPT_EEEEvP7SEXPREC"
 "_ZN4Rcpp17finalizer_wrapperINS_17SignedConstructorI6StreamEEXadL_ZNS_25standard_delete_finalizerIS3_EEvPT_EEEEvP7SEXPREC"
 "_ZN4Rcpp17finalizer_wrapperINS_6ModuleEXadL_ZNS_25standard_delete_finalizerIS1_EEvPT_EEEEvP7SEXPREC"
 "_ZN4Rcpp17finalizer_wrapperISt6vectorIPNS_12SignedMethodI11VideoWriterEESaIS5_EEXadL_ZNS_25standard_delete_finalizerIS7_EEvPT_EEEEvP7SEXPREC"
 "_ZN4Rcpp17finalizer_wrapperISt6vectorIPNS_12SignedMethodI5ImageEESaIS5_EEXadL_ZNS_25standard_delete_finalizerIS7_EEvPT_EEEEvP7SEXPREC"
 "_ZN4Rcpp17finalizer_wrapperISt6vectorIPNS_12SignedMethodI5VideoEESaIS5_EEXadL_ZNS_25standard_delete_finalizerIS7_EEvPT_EEEEvP7SEXPREC"
 "_ZN4Rcpp17finalizer_wrapperISt6vectorIPNS_12SignedMethodI6StreamEESaIS5_EEXadL_ZNS_25standard_delete_finalizerIS7_EEvPT_EEEEvP7SEXPREC"
 "_ZN4Rcpp17S4_CppConstructorI11VideoWriterEC1EPNS_17SignedConstructorIS1_EERKNS_4XPtrINS_10class_BaseENS_15PreserveStorageEXadL_ZNS_25standard_delete_finalizerIS7_EEvPT_EELb0EEERKSsRSs"
 "_ZN4Rcpp17S4_CppConstructorI11VideoWriterED1Ev"
 "_ZN4Rcpp17S4_CppConstructorI5ImageEC1EPNS_17SignedConstructorIS1_EERKNS_4XPtrINS_10class_BaseENS_15PreserveStorageEXadL_ZNS_25standard_delete_finalizerIS7_EEvPT_EELb0EEERKSsRSs"
 "_ZN4Rcpp17S4_CppConstructorI5ImageED1Ev"
 "_ZN4Rcpp17S4_CppConstructorI5VideoEC1EPNS_17SignedConstructorIS1_EERKNS_4XPtrINS_10class_BaseENS_15PreserveStorageEXadL_ZNS_25standard_delete_finalizerIS7_EEvPT_EELb0EEERKSsRSs"
 "_ZN4Rcpp17S4_CppConstructorI5VideoED1Ev"
 "_ZN4Rcpp17S4_CppConstructorI6StreamEC1EPNS_17SignedConstructorIS1_EERKNS_4XPtrINS_10class_BaseENS_15PreserveStorageEXadL_ZNS_25standard_delete_finalizerIS7_EEvPT_EELb0EEERKSsRSs"
 "_ZN4Rcpp17S4_CppConstructorI6StreamED1Ev"
 "_ZN4Rcpp17SignedConstructorI11VideoWriterE5nargsEv"
 "_ZN4Rcpp17SignedConstructorI11VideoWriterE9signatureERSsRKSs"
 "_ZN4Rcpp17SignedConstructorI11VideoWriterEC1EPNS_16Constructor_BaseIS1_EEPFbPP7SEXPRECiEPKc"
 "_ZN4Rcpp17SignedConstructorI11VideoWriterED1Ev"
 "_ZN4Rcpp17SignedConstructorI5ImageE5nargsEv"
 "_ZN4Rcpp17SignedConstructorI5ImageE9signatureERSsRKSs"
 "_ZN4Rcpp17SignedConstructorI5ImageEC1EPNS_16Constructor_BaseIS1_EEPFbPP7SEXPRECiEPKc"
 "_ZN4Rcpp17SignedConstructorI5ImageED1Ev"
 "_ZN4Rcpp17SignedConstructorI5VideoE5nargsEv"
 "_ZN4Rcpp17SignedConstructorI5VideoE9signatureERSsRKSs"
 "_ZN4Rcpp17SignedConstructorI5VideoEC1EPNS_16Constructor_BaseIS1_EEPFbPP7SEXPRECiEPKc"
 "_ZN4Rcpp17SignedConstructorI5VideoED1Ev"
 "_ZN4Rcpp17SignedConstructorI6StreamE5nargsEv"
 "_ZN4Rcpp17SignedConstructorI6StreamE9signatureERSsRKSs"
 "_ZN4Rcpp17SignedConstructorI6StreamEC1EPNS_16Constructor_BaseIS1_EEPFbPP7SEXPRECiEPKc"
 "_ZN4Rcpp17SignedConstructorI6StreamED1Ev"
 "_ZN4Rcpp18Rcpp_ReleaseObjectEP7SEXPREC"
 "_ZN4Rcpp18Rcpp_ReplaceObjectEP7SEXPRECS1_"
 "_ZN4Rcpp19index_out_of_boundsC1IIRiiEEEPKcDpOT_"
 "_ZN4Rcpp19index_out_of_boundsC1IIRKxxEEEPKcDpOT_"
 "_ZN4Rcpp19index_out_of_boundsC1IIRxS2_EEEPKcDpOT_"
 "_ZN4Rcpp19index_out_of_boundsD0Ev"
 "_ZN4Rcpp19index_out_of_boundsD1Ev"
 "_ZN4Rcpp19Rcpp_PreserveObjectEP7SEXPREC"
 "_ZN4Rcpp20AttributeProxyPolicyINS_12RObject_ImplINS_15PreserveStorageEEEE14AttributeProxy3setEP7SEXPREC"
 "_ZN4Rcpp20AttributeProxyPolicyINS_12RObject_ImplINS_15PreserveStorageEEEE14AttributeProxyaSINS_9DimensionEEERS5_RKT_"
 "_ZN4Rcpp20AttributeProxyPolicyINS_12RObject_ImplINS_15PreserveStorageEEEE14AttributeProxyC1ERS3_RKSs"
 "_ZN4Rcpp20AttributeProxyPolicyINS_12RObject_ImplINS_15PreserveStorageEEEE4attrERKSs"
 "_ZN4Rcpp20AttributeProxyPolicyINS_12RObject_ImplINS_15PreserveStorageEEEEC2Ev"
 "_ZN4Rcpp20AttributeProxyPolicyINS_13Function_ImplINS_15PreserveStorageEEEEC2Ev"
 "_ZN4Rcpp20AttributeProxyPolicyINS_14Reference_ImplINS_15PreserveStorageEEEEC2Ev"
 "_ZN4Rcpp20AttributeProxyPolicyINS_16Environment_ImplINS_15PreserveStorageEEEEC2Ev"
 "_ZN4Rcpp20AttributeProxyPolicyINS_4XPtrI11VideoWriterNS_15PreserveStorageEXadL_ZNS_25standard_delete_finalizerIS2_EEvPT_EELb0EEEEC2Ev"
 "_ZN4Rcpp20AttributeProxyPolicyINS_4XPtrI5ImageNS_15PreserveStorageEXadL_ZNS_25standard_delete_finalizerIS2_EEvPT_EELb0EEEEC2Ev"
 "_ZN4Rcpp20AttributeProxyPolicyINS_4XPtrI5VideoNS_15PreserveStorageEXadL_ZNS_25standard_delete_finalizerIS2_EEvPT_EELb0EEEEC2Ev"
 "_ZN4Rcpp20AttributeProxyPolicyINS_4XPtrI6StreamNS_15PreserveStorageEXadL_ZNS_25standard_delete_finalizerIS2_EEvPT_EELb0EEEEC2Ev"
 "_ZN4Rcpp20AttributeProxyPolicyINS_4XPtrINS_11CppPropertyI11VideoWriterEENS_15PreserveStorageEXadL_ZNS_25standard_delete_finalizerIS4_EEvPT_EELb0EEEEC2Ev"
 "_ZN4Rcpp20AttributeProxyPolicyINS_4XPtrINS_11CppPropertyI5ImageEENS_15PreserveStorageEXadL_ZNS_25standard_delete_finalizerIS4_EEvPT_EELb0EEEEC2Ev"
 "_ZN4Rcpp20AttributeProxyPolicyINS_4XPtrINS_11CppPropertyI5VideoEENS_15PreserveStorageEXadL_ZNS_25standard_delete_finalizerIS4_EEvPT_EELb0EEEEC2Ev"
 "_ZN4Rcpp20AttributeProxyPolicyINS_4XPtrINS_11CppPropertyI6StreamEENS_15PreserveStorageEXadL_ZNS_25standard_delete_finalizerIS4_EEvPT_EELb0EEEEC2Ev"
 "_ZN4Rcpp20AttributeProxyPolicyINS_4XPtrINS_17SignedConstructorI11VideoWriterEENS_15PreserveStorageEXadL_ZNS_25standard_delete_finalizerIS4_EEvPT_EELb0EEEEC2Ev"
 "_ZN4Rcpp20AttributeProxyPolicyINS_4XPtrINS_17SignedConstructorI5ImageEENS_15PreserveStorageEXadL_ZNS_25standard_delete_finalizerIS4_EEvPT_EELb0EEEEC2Ev"
 "_ZN4Rcpp20AttributeProxyPolicyINS_4XPtrINS_17SignedConstructorI5VideoEENS_15PreserveStorageEXadL_ZNS_25standard_delete_finalizerIS4_EEvPT_EELb0EEEEC2Ev"
 "_ZN4Rcpp20AttributeProxyPolicyINS_4XPtrINS_17SignedConstructorI6StreamEENS_15PreserveStorageEXadL_ZNS_25standard_delete_finalizerIS4_EEvPT_EELb0EEEEC2Ev"
 "_ZN4Rcpp20AttributeProxyPolicyINS_4XPtrINS_6ModuleENS_15PreserveStorageEXadL_ZNS_25standard_delete_finalizerIS2_EEvPT_EELb0EEEEC2Ev"
 "_ZN4Rcpp20AttributeProxyPolicyINS_4XPtrISt6vectorIPNS_12SignedMethodI11VideoWriterEESaIS6_EENS_15PreserveStorageEXadL_ZNS_25standard_delete_finalizerIS8_EEvPT_EELb0EEEEC2Ev"
 "_ZN4Rcpp20AttributeProxyPolicyINS_4XPtrISt6vectorIPNS_12SignedMethodI5ImageEESaIS6_EENS_15PreserveStorageEXadL_ZNS_25standard_delete_finalizerIS8_EEvPT_EELb0EEEEC2Ev"
 "_ZN4Rcpp20AttributeProxyPolicyINS_4XPtrISt6vectorIPNS_12SignedMethodI5VideoEESaIS6_EENS_15PreserveStorageEXadL_ZNS_25standard_delete_finalizerIS8_EEvPT_EELb0EEEEC2Ev"
 "_ZN4Rcpp20AttributeProxyPolicyINS_4XPtrISt6vectorIPNS_12SignedMethodI6StreamEESaIS6_EENS_15PreserveStorageEXadL_ZNS_25standard_delete_finalizerIS8_EEvPT_EELb0EEEEC2Ev"
 "_ZN4Rcpp20AttributeProxyPolicyINS_6VectorILi10ENS_15PreserveStorageEEEEC2Ev"
 "_ZN4Rcpp20AttributeProxyPolicyINS_6VectorILi13ENS_15PreserveStorageEEEE14AttributeProxyC1ERS3_RKSs"
 "_ZN4Rcpp20AttributeProxyPolicyINS_6VectorILi13ENS_15PreserveStorageEEEE4attrERKSs"
 "_ZN4Rcpp20AttributeProxyPolicyINS_6VectorILi13ENS_15PreserveStorageEEEEC2Ev"
 "_ZN4Rcpp20AttributeProxyPolicyINS_6VectorILi14ENS_15PreserveStorageEEEE14AttributeProxy3setEP7SEXPREC"
 "_ZN4Rcpp20AttributeProxyPolicyINS_6VectorILi14ENS_15PreserveStorageEEEE14AttributeProxyaSINS_9DimensionEEERS5_RKT_"
 "_ZN4Rcpp20AttributeProxyPolicyINS_6VectorILi14ENS_15PreserveStorageEEEE14AttributeProxyC1ERS3_RKSs"
 "_ZN4Rcpp20AttributeProxyPolicyINS_6VectorILi14ENS_15PreserveStorageEEEE4attrERKSs"
 "_ZN4Rcpp20AttributeProxyPolicyINS_6VectorILi14ENS_15PreserveStorageEEEEC2Ev"
 "_ZN4Rcpp20AttributeProxyPolicyINS_6VectorILi16ENS_15PreserveStorageEEEE14AttributeProxy3setEP7SEXPREC"
 "_ZN4Rcpp20AttributeProxyPolicyINS_6VectorILi16ENS_15PreserveStorageEEEE14AttributeProxyaSINS_6ShieldIP7SEXPRECEEEERS5_RKT_"
 "_ZN4Rcpp20AttributeProxyPolicyINS_6VectorILi16ENS_15PreserveStorageEEEE14AttributeProxyC1ERS3_RKSs"
 "_ZN4Rcpp20AttributeProxyPolicyINS_6VectorILi16ENS_15PreserveStorageEEEE4attrERKSs"
 "_ZN4Rcpp20AttributeProxyPolicyINS_6VectorILi16ENS_15PreserveStorageEEEEC2Ev"
 "_ZN4Rcpp20AttributeProxyPolicyINS_6VectorILi19ENS_15PreserveStorageEEEE14AttributeProxy3setEP7SEXPREC"
 "_ZN4Rcpp20AttributeProxyPolicyINS_6VectorILi19ENS_15PreserveStorageEEEE14AttributeProxyaSINS_6ShieldIP7SEXPRECEEEERS5_RKT_"
 "_ZN4Rcpp20AttributeProxyPolicyINS_6VectorILi19ENS_15PreserveStorageEEEE14AttributeProxyaSINS1_ILi16ES2_EEEERS5_RKT_"
 "_ZN4Rcpp20AttributeProxyPolicyINS_6VectorILi19ENS_15PreserveStorageEEEE14AttributeProxyC1ERS3_RKSs"
 "_ZN4Rcpp20AttributeProxyPolicyINS_6VectorILi19ENS_15PreserveStorageEEEE4attrERKSs"
 "_ZN4Rcpp20AttributeProxyPolicyINS_6VectorILi19ENS_15PreserveStorageEEEEC2Ev"
 "_ZN4Rcpp20module_wrap_dispatchI5ImageEEP7SEXPRECRKT_NS_6traits15normal_wrap_tagE"
 "_ZN4Rcpp20module_wrap_dispatchIbEEP7SEXPRECRKT_NS_6traits15normal_wrap_tagE"
 "_ZN4Rcpp20module_wrap_dispatchIdEEP7SEXPRECRKT_NS_6traits15normal_wrap_tagE"
 "_ZN4Rcpp20module_wrap_dispatchIiEEP7SEXPRECRKT_NS_6traits15normal_wrap_tagE"
 "_ZN4Rcpp20module_wrap_dispatchIN4arma3MatIdEEEEP7SEXPRECRKT_NS_6traits15normal_wrap_tagE"
 "_ZN4Rcpp20module_wrap_dispatchIN4arma3MatIfEEEEP7SEXPRECRKT_NS_6traits15normal_wrap_tagE"
 "_ZN4Rcpp20module_wrap_dispatchIN4arma4CubeIdEEEEP7SEXPRECRKT_NS_6traits15normal_wrap_tagE"
 "_ZN4Rcpp20module_wrap_dispatchINS_14DataFrame_ImplINS_15PreserveStorageEEEEEP7SEXPRECRKT_NS_6traits15normal_wrap_tagE"
 "_ZN4Rcpp20module_wrap_dispatchINS_6MatrixILi14ENS_15PreserveStorageEEEEEP7SEXPRECRKT_NS_6traits15normal_wrap_tagE"
 "_ZN4Rcpp20module_wrap_dispatchINS_6VectorILi14ENS_15PreserveStorageEEEEEP7SEXPRECRKT_NS_6traits15normal_wrap_tagE"
 "_ZN4Rcpp20module_wrap_dispatchINS_6VectorILi19ENS_15PreserveStorageEEEEEP7SEXPRECRKT_NS_6traits15normal_wrap_tagE"
 "_ZN4Rcpp20module_wrap_dispatchISsEEP7SEXPRECRKT_NS_6traits15normal_wrap_tagE"
 "_ZN4Rcpp20ProtectedProxyPolicyINS_4XPtrI11VideoWriterNS_15PreserveStorageEXadL_ZNS_25standard_delete_finalizerIS2_EEvPT_EELb0EEEEC2Ev"
 "_ZN4Rcpp20ProtectedProxyPolicyINS_4XPtrI5ImageNS_15PreserveStorageEXadL_ZNS_25standard_delete_finalizerIS2_EEvPT_EELb0EEEEC2Ev"
 "_ZN4Rcpp20ProtectedProxyPolicyINS_4XPtrI5VideoNS_15PreserveStorageEXadL_ZNS_25standard_delete_finalizerIS2_EEvPT_EELb0EEEEC2Ev"
 "_ZN4Rcpp20ProtectedProxyPolicyINS_4XPtrI6StreamNS_15PreserveStorageEXadL_ZNS_25standard_delete_finalizerIS2_EEvPT_EELb0EEEEC2Ev"
 "_ZN4Rcpp20ProtectedProxyPolicyINS_4XPtrINS_11CppPropertyI11VideoWriterEENS_15PreserveStorageEXadL_ZNS_25standard_delete_finalizerIS4_EEvPT_EELb0EEEEC2Ev"
 "_ZN4Rcpp20ProtectedProxyPolicyINS_4XPtrINS_11CppPropertyI5ImageEENS_15PreserveStorageEXadL_ZNS_25standard_delete_finalizerIS4_EEvPT_EELb0EEEEC2Ev"
 "_ZN4Rcpp20ProtectedProxyPolicyINS_4XPtrINS_11CppPropertyI5VideoEENS_15PreserveStorageEXadL_ZNS_25standard_delete_finalizerIS4_EEvPT_EELb0EEEEC2Ev"
 "_ZN4Rcpp20ProtectedProxyPolicyINS_4XPtrINS_11CppPropertyI6StreamEENS_15PreserveStorageEXadL_ZNS_25standard_delete_finalizerIS4_EEvPT_EELb0EEEEC2Ev"
 "_ZN4Rcpp20ProtectedProxyPolicyINS_4XPtrINS_17SignedConstructorI11VideoWriterEENS_15PreserveStorageEXadL_ZNS_25standard_delete_finalizerIS4_EEvPT_EELb0EEEEC2Ev"
 "_ZN4Rcpp20ProtectedProxyPolicyINS_4XPtrINS_17SignedConstructorI5ImageEENS_15PreserveStorageEXadL_ZNS_25standard_delete_finalizerIS4_EEvPT_EELb0EEEEC2Ev"
 "_ZN4Rcpp20ProtectedProxyPolicyINS_4XPtrINS_17SignedConstructorI5VideoEENS_15PreserveStorageEXadL_ZNS_25standard_delete_finalizerIS4_EEvPT_EELb0EEEEC2Ev"
 "_ZN4Rcpp20ProtectedProxyPolicyINS_4XPtrINS_17SignedConstructorI6StreamEENS_15PreserveStorageEXadL_ZNS_25standard_delete_finalizerIS4_EEvPT_EELb0EEEEC2Ev"
 "_ZN4Rcpp20ProtectedProxyPolicyINS_4XPtrINS_6ModuleENS_15PreserveStorageEXadL_ZNS_25standard_delete_finalizerIS2_EEvPT_EELb0EEEEC2Ev"
 "_ZN4Rcpp20ProtectedProxyPolicyINS_4XPtrISt6vectorIPNS_12SignedMethodI11VideoWriterEESaIS6_EENS_15PreserveStorageEXadL_ZNS_25standard_delete_finalizerIS8_EEvPT_EELb0EEEEC2Ev"
 "_ZN4Rcpp20ProtectedProxyPolicyINS_4XPtrISt6vectorIPNS_12SignedMethodI5ImageEESaIS6_EENS_15PreserveStorageEXadL_ZNS_25standard_delete_finalizerIS8_EEvPT_EELb0EEEEC2Ev"
 "_ZN4Rcpp20ProtectedProxyPolicyINS_4XPtrISt6vectorIPNS_12SignedMethodI5VideoEESaIS6_EENS_15PreserveStorageEXadL_ZNS_25standard_delete_finalizerIS8_EEvPT_EELb0EEEEC2Ev"
 "_ZN4Rcpp20ProtectedProxyPolicyINS_4XPtrISt6vectorIPNS_12SignedMethodI6StreamEESaIS6_EENS_15PreserveStorageEXadL_ZNS_25standard_delete_finalizerIS8_EEvPT_EELb0EEEEC2Ev"
 "_ZN4Rcpp23ReferenceInputParameterINS_6VectorILi19ENS_15PreserveStorageEEEEC1EP7SEXPREC"
 "_ZN4Rcpp23ReferenceInputParameterINS_6VectorILi19ENS_15PreserveStorageEEEEcvRS3_Ev"
 "_ZN4Rcpp23ReferenceInputParameterINS_6VectorILi19ENS_15PreserveStorageEEEED1Ev"
 "_ZN4Rcpp23S4_CppOverloadedMethodsI11VideoWriterEC1EPSt6vectorIPNS_12SignedMethodIS1_EESaIS6_EERKNS_4XPtrINS_10class_BaseENS_15PreserveStorageEXadL_ZNS_25standard_delete_finalizerISB_EEvPT_EELb0EEEPKcRSs"
 "_ZN4Rcpp23S4_CppOverloadedMethodsI11VideoWriterED1Ev"
 "_ZN4Rcpp23S4_CppOverloadedMethodsI5ImageEC1EPSt6vectorIPNS_12SignedMethodIS1_EESaIS6_EERKNS_4XPtrINS_10class_BaseENS_15PreserveStorageEXadL_ZNS_25standard_delete_finalizerISB_EEvPT_EELb0EEEPKcRSs"
 "_ZN4Rcpp23S4_CppOverloadedMethodsI5ImageED1Ev"
 "_ZN4Rcpp23S4_CppOverloadedMethodsI5VideoEC1EPSt6vectorIPNS_12SignedMethodIS1_EESaIS6_EERKNS_4XPtrINS_10class_BaseENS_15PreserveStorageEXadL_ZNS_25standard_delete_finalizerISB_EEvPT_EELb0EEEPKcRSs"
 "_ZN4Rcpp23S4_CppOverloadedMethodsI5VideoED1Ev"
 "_ZN4Rcpp23S4_CppOverloadedMethodsI6StreamEC1EPSt6vectorIPNS_12SignedMethodIS1_EESaIS6_EERKNS_4XPtrINS_10class_BaseENS_15PreserveStorageEXadL_ZNS_25standard_delete_finalizerISB_EEvPT_EELb0EEEPKcRSs"
 "_ZN4Rcpp23S4_CppOverloadedMethodsI6StreamED1Ev"
 "_ZN4Rcpp24CppFunction_WithFormals0IvE16get_function_ptrEv"
 "_ZN4Rcpp24CppFunction_WithFormals0IvE5nargsEv"
 "_ZN4Rcpp24CppFunction_WithFormals0IvE7is_voidEv"
 "_ZN4Rcpp24CppFunction_WithFormals0IvE9signatureERSsPKc"
 "_ZN4Rcpp24CppFunction_WithFormals0IvEC1EPFvvENS_6VectorILi19ENS_15PreserveStorageEEEPKc"
 "_ZN4Rcpp24CppFunction_WithFormals0IvEclEPP7SEXPREC"
 "_ZN4Rcpp24CppFunction_WithFormals0IvED0Ev"
 "_ZN4Rcpp24CppFunction_WithFormals0IvED1Ev"
 "_ZN4Rcpp24CppFunction_WithFormals1I5ImageNS_6VectorILi19ENS_15PreserveStorageEEEE11get_formalsEv"
 "_ZN4Rcpp24CppFunction_WithFormals1I5ImageNS_6VectorILi19ENS_15PreserveStorageEEEE16get_function_ptrEv"
 "_ZN4Rcpp24CppFunction_WithFormals1I5ImageNS_6VectorILi19ENS_15PreserveStorageEEEE5nargsEv"
 "_ZN4Rcpp24CppFunction_WithFormals1I5ImageNS_6VectorILi19ENS_15PreserveStorageEEEE9signatureERSsPKc"
 "_ZN4Rcpp24CppFunction_WithFormals1I5ImageNS_6VectorILi19ENS_15PreserveStorageEEEEC1EPFS1_S4_ES4_PKc"
 "_ZN4Rcpp24CppFunction_WithFormals1I5ImageNS_6VectorILi19ENS_15PreserveStorageEEEEclEPP7SEXPREC"
 "_ZN4Rcpp24CppFunction_WithFormals1I5ImageNS_6VectorILi19ENS_15PreserveStorageEEEED0Ev"
 "_ZN4Rcpp24CppFunction_WithFormals1I5ImageNS_6VectorILi19ENS_15PreserveStorageEEEED1Ev"
 "_ZN4Rcpp24CppFunction_WithFormals1I5ImageRNS_6VectorILi19ENS_15PreserveStorageEEEE11get_formalsEv"
 "_ZN4Rcpp24CppFunction_WithFormals1I5ImageRNS_6VectorILi19ENS_15PreserveStorageEEEE16get_function_ptrEv"
 "_ZN4Rcpp24CppFunction_WithFormals1I5ImageRNS_6VectorILi19ENS_15PreserveStorageEEEE5nargsEv"
 "_ZN4Rcpp24CppFunction_WithFormals1I5ImageRNS_6VectorILi19ENS_15PreserveStorageEEEE9signatureERSsPKc"
 "_ZN4Rcpp24CppFunction_WithFormals1I5ImageRNS_6VectorILi19ENS_15PreserveStorageEEEEC1EPFS1_S5_ES4_PKc"
 "_ZN4Rcpp24CppFunction_WithFormals1I5ImageRNS_6VectorILi19ENS_15PreserveStorageEEEEclEPP7SEXPREC"
 "_ZN4Rcpp24CppFunction_WithFormals1I5ImageRNS_6VectorILi19ENS_15PreserveStorageEEEED0Ev"
 "_ZN4Rcpp24CppFunction_WithFormals1I5ImageRNS_6VectorILi19ENS_15PreserveStorageEEEED1Ev"
 "_ZN4Rcpp24CppFunction_WithFormals1I5ImageS1_E11get_formalsEv"
 "_ZN4Rcpp24CppFunction_WithFormals1I5ImageS1_E16get_function_ptrEv"
 "_ZN4Rcpp24CppFunction_WithFormals1I5ImageS1_E5nargsEv"
 "_ZN4Rcpp24CppFunction_WithFormals1I5ImageS1_E9signatureERSsPKc"
 "_ZN4Rcpp24CppFunction_WithFormals1I5ImageS1_EC1EPFS1_S1_ENS_6VectorILi19ENS_15PreserveStorageEEEPKc"
 "_ZN4Rcpp24CppFunction_WithFormals1I5ImageS1_EclEPP7SEXPREC"
 "_ZN4Rcpp24CppFunction_WithFormals1I5ImageS1_ED0Ev"
 "_ZN4Rcpp24CppFunction_WithFormals1I5ImageS1_ED1Ev"
 "_ZN4Rcpp24CppFunction_WithFormals1Id5ImageE11get_formalsEv"
 "_ZN4Rcpp24CppFunction_WithFormals1Id5ImageE16get_function_ptrEv"
 "_ZN4Rcpp24CppFunction_WithFormals1Id5ImageE5nargsEv"
 "_ZN4Rcpp24CppFunction_WithFormals1Id5ImageE9signatureERSsPKc"
 "_ZN4Rcpp24CppFunction_WithFormals1Id5ImageEC1EPFdS1_ENS_6VectorILi19ENS_15PreserveStorageEEEPKc"
 "_ZN4Rcpp24CppFunction_WithFormals1Id5ImageEclEPP7SEXPREC"
 "_ZN4Rcpp24CppFunction_WithFormals1Id5ImageED0Ev"
 "_ZN4Rcpp24CppFunction_WithFormals1Id5ImageED1Ev"
 "_ZN4Rcpp24CppFunction_WithFormals1INS_14DataFrame_ImplINS_15PreserveStorageEEE5ImageE11get_formalsEv"
 "_ZN4Rcpp24CppFunction_WithFormals1INS_14DataFrame_ImplINS_15PreserveStorageEEE5ImageE16get_function_ptrEv"
 "_ZN4Rcpp24CppFunction_WithFormals1INS_14DataFrame_ImplINS_15PreserveStorageEEE5ImageE5nargsEv"
 "_ZN4Rcpp24CppFunction_WithFormals1INS_14DataFrame_ImplINS_15PreserveStorageEEE5ImageE9signatureERSsPKc"
 "_ZN4Rcpp24CppFunction_WithFormals1INS_14DataFrame_ImplINS_15PreserveStorageEEE5ImageEC1EPFS3_S4_ENS_6VectorILi19ES2_EEPKc"
 "_ZN4Rcpp24CppFunction_WithFormals1INS_14DataFrame_ImplINS_15PreserveStorageEEE5ImageEclEPP7SEXPREC"
 "_ZN4Rcpp24CppFunction_WithFormals1INS_14DataFrame_ImplINS_15PreserveStorageEEE5ImageED0Ev"
 "_ZN4Rcpp24CppFunction_WithFormals1INS_14DataFrame_ImplINS_15PreserveStorageEEE5ImageED1Ev"
 "_ZN4Rcpp24CppFunction_WithFormals1INS_14DataFrame_ImplINS_15PreserveStorageEEESsE11get_formalsEv"
 "_ZN4Rcpp24CppFunction_WithFormals1INS_14DataFrame_ImplINS_15PreserveStorageEEESsE16get_function_ptrEv"
 "_ZN4Rcpp24CppFunction_WithFormals1INS_14DataFrame_ImplINS_15PreserveStorageEEESsE5nargsEv"
 "_ZN4Rcpp24CppFunction_WithFormals1INS_14DataFrame_ImplINS_15PreserveStorageEEESsE9signatureERSsPKc"
 "_ZN4Rcpp24CppFunction_WithFormals1INS_14DataFrame_ImplINS_15PreserveStorageEEESsEC1EPFS3_SsENS_6VectorILi19ES2_EEPKc"
 "_ZN4Rcpp24CppFunction_WithFormals1INS_14DataFrame_ImplINS_15PreserveStorageEEESsEclEPP7SEXPREC"
 "_ZN4Rcpp24CppFunction_WithFormals1INS_14DataFrame_ImplINS_15PreserveStorageEEESsED0Ev"
 "_ZN4Rcpp24CppFunction_WithFormals1INS_14DataFrame_ImplINS_15PreserveStorageEEESsED1Ev"
 "_ZN4Rcpp24CppFunction_WithFormals1INS_6MatrixILi14ENS_15PreserveStorageEEE5ImageE11get_formalsEv"
 "_ZN4Rcpp24CppFunction_WithFormals1INS_6MatrixILi14ENS_15PreserveStorageEEE5ImageE16get_function_ptrEv"
 "_ZN4Rcpp24CppFunction_WithFormals1INS_6MatrixILi14ENS_15PreserveStorageEEE5ImageE5nargsEv"
 "_ZN4Rcpp24CppFunction_WithFormals1INS_6MatrixILi14ENS_15PreserveStorageEEE5ImageE9signatureERSsPKc"
 "_ZN4Rcpp24CppFunction_WithFormals1INS_6MatrixILi14ENS_15PreserveStorageEEE5ImageEC1EPFS3_S4_ENS_6VectorILi19ES2_EEPKc"
 "_ZN4Rcpp24CppFunction_WithFormals1INS_6MatrixILi14ENS_15PreserveStorageEEE5ImageEclEPP7SEXPREC"
 "_ZN4Rcpp24CppFunction_WithFormals1INS_6MatrixILi14ENS_15PreserveStorageEEE5ImageED0Ev"
 "_ZN4Rcpp24CppFunction_WithFormals1INS_6MatrixILi14ENS_15PreserveStorageEEE5ImageED1Ev"
 "_ZN4Rcpp24CppFunction_WithFormals1INS_6VectorILi19ENS_15PreserveStorageEEE5ImageE11get_formalsEv"
 "_ZN4Rcpp24CppFunction_WithFormals1INS_6VectorILi19ENS_15PreserveStorageEEE5ImageE16get_function_ptrEv"
 "_ZN4Rcpp24CppFunction_WithFormals1INS_6VectorILi19ENS_15PreserveStorageEEE5ImageE5nargsEv"
 "_ZN4Rcpp24CppFunction_WithFormals1INS_6VectorILi19ENS_15PreserveStorageEEE5ImageE9signatureERSsPKc"
 "_ZN4Rcpp24CppFunction_WithFormals1INS_6VectorILi19ENS_15PreserveStorageEEE5ImageEC1EPFS3_S4_ES3_PKc"
 "_ZN4Rcpp24CppFunction_WithFormals1INS_6VectorILi19ENS_15PreserveStorageEEE5ImageEclEPP7SEXPREC"
 "_ZN4Rcpp24CppFunction_WithFormals1INS_6VectorILi19ENS_15PreserveStorageEEE5ImageED0Ev"
 "_ZN4Rcpp24CppFunction_WithFormals1INS_6VectorILi19ENS_15PreserveStorageEEE5ImageED1Ev"
 "_ZN4Rcpp24CppFunction_WithFormals1INS_6VectorILi19ENS_15PreserveStorageEEESsE11get_formalsEv"
 "_ZN4Rcpp24CppFunction_WithFormals1INS_6VectorILi19ENS_15PreserveStorageEEESsE16get_function_ptrEv"
 "_ZN4Rcpp24CppFunction_WithFormals1INS_6VectorILi19ENS_15PreserveStorageEEESsE5nargsEv"
 "_ZN4Rcpp24CppFunction_WithFormals1INS_6VectorILi19ENS_15PreserveStorageEEESsE9signatureERSsPKc"
 "_ZN4Rcpp24CppFunction_WithFormals1INS_6VectorILi19ENS_15PreserveStorageEEESsEC1EPFS3_SsES3_PKc"
 "_ZN4Rcpp24CppFunction_WithFormals1INS_6VectorILi19ENS_15PreserveStorageEEESsEclEPP7SEXPREC"
 "_ZN4Rcpp24CppFunction_WithFormals1INS_6VectorILi19ENS_15PreserveStorageEEESsED0Ev"
 "_ZN4Rcpp24CppFunction_WithFormals1INS_6VectorILi19ENS_15PreserveStorageEEESsED1Ev"
 "_ZN4Rcpp24CppFunction_WithFormals1IvSsE11get_formalsEv"
 "_ZN4Rcpp24CppFunction_WithFormals1IvSsE16get_function_ptrEv"
 "_ZN4Rcpp24CppFunction_WithFormals1IvSsE5nargsEv"
 "_ZN4Rcpp24CppFunction_WithFormals1IvSsE7is_voidEv"
 "_ZN4Rcpp24CppFunction_WithFormals1IvSsE9signatureERSsPKc"
 "_ZN4Rcpp24CppFunction_WithFormals1IvSsEC1EPFvSsENS_6VectorILi19ENS_15PreserveStorageEEEPKc"
 "_ZN4Rcpp24CppFunction_WithFormals1IvSsEclEPP7SEXPREC"
 "_ZN4Rcpp24CppFunction_WithFormals1IvSsED0Ev"
 "_ZN4Rcpp24CppFunction_WithFormals1IvSsED1Ev"
 "_ZN4Rcpp24CppFunction_WithFormals2I5ImageS1_dE11get_formalsEv"
 "_ZN4Rcpp24CppFunction_WithFormals2I5ImageS1_dE16get_function_ptrEv"
 "_ZN4Rcpp24CppFunction_WithFormals2I5ImageS1_dE5nargsEv"
 "_ZN4Rcpp24CppFunction_WithFormals2I5ImageS1_dE9signatureERSsPKc"
 "_ZN4Rcpp24CppFunction_WithFormals2I5ImageS1_dEC1EPFS1_S1_dENS_6VectorILi19ENS_15PreserveStorageEEEPKc"
 "_ZN4Rcpp24CppFunction_WithFormals2I5ImageS1_dEclEPP7SEXPREC"
 "_ZN4Rcpp24CppFunction_WithFormals2I5ImageS1_dED0Ev"
 "_ZN4Rcpp24CppFunction_WithFormals2I5ImageS1_dED1Ev"
 "_ZN4Rcpp24CppFunction_WithFormals2I5ImageS1_iE11get_formalsEv"
 "_ZN4Rcpp24CppFunction_WithFormals2I5ImageS1_iE16get_function_ptrEv"
 "_ZN4Rcpp24CppFunction_WithFormals2I5ImageS1_iE5nargsEv"
 "_ZN4Rcpp24CppFunction_WithFormals2I5ImageS1_iE9signatureERSsPKc"
 "_ZN4Rcpp24CppFunction_WithFormals2I5ImageS1_iEC1EPFS1_S1_iENS_6VectorILi19ENS_15PreserveStorageEEEPKc"
 "_ZN4Rcpp24CppFunction_WithFormals2I5ImageS1_iEclEPP7SEXPREC"
 "_ZN4Rcpp24CppFunction_WithFormals2I5ImageS1_iED0Ev"
 "_ZN4Rcpp24CppFunction_WithFormals2I5ImageS1_iED1Ev"
 "_ZN4Rcpp24CppFunction_WithFormals2I5ImageS1_NS_6MatrixILi14ENS_15PreserveStorageEEEE11get_formalsEv"
 "_ZN4Rcpp24CppFunction_WithFormals2I5ImageS1_NS_6MatrixILi14ENS_15PreserveStorageEEEE16get_function_ptrEv"
 "_ZN4Rcpp24CppFunction_WithFormals2I5ImageS1_NS_6MatrixILi14ENS_15PreserveStorageEEEE5nargsEv"
 "_ZN4Rcpp24CppFunction_WithFormals2I5ImageS1_NS_6MatrixILi14ENS_15PreserveStorageEEEE9signatureERSsPKc"
 "_ZN4Rcpp24CppFunction_WithFormals2I5ImageS1_NS_6MatrixILi14ENS_15PreserveStorageEEEEC1EPFS1_S1_S4_ENS_6VectorILi19ES3_EEPKc"
 "_ZN4Rcpp24CppFunction_WithFormals2I5ImageS1_NS_6MatrixILi14ENS_15PreserveStorageEEEEclEPP7SEXPREC"
 "_ZN4Rcpp24CppFunction_WithFormals2I5ImageS1_NS_6MatrixILi14ENS_15PreserveStorageEEEED0Ev"
 "_ZN4Rcpp24CppFunction_WithFormals2I5ImageS1_NS_6MatrixILi14ENS_15PreserveStorageEEEED1Ev"
 "_ZN4Rcpp24CppFunction_WithFormals2I5ImageS1_S1_E11get_formalsEv"
 "_ZN4Rcpp24CppFunction_WithFormals2I5ImageS1_S1_E16get_function_ptrEv"
 "_ZN4Rcpp24CppFunction_WithFormals2I5ImageS1_S1_E5nargsEv"
 "_ZN4Rcpp24CppFunction_WithFormals2I5ImageS1_S1_E9signatureERSsPKc"
 "_ZN4Rcpp24CppFunction_WithFormals2I5ImageS1_S1_EC1EPFS1_S1_S1_ENS_6VectorILi19ENS_15PreserveStorageEEEPKc"
 "_ZN4Rcpp24CppFunction_WithFormals2I5ImageS1_S1_EclEPP7SEXPREC"
 "_ZN4Rcpp24CppFunction_WithFormals2I5ImageS1_S1_ED0Ev"
 "_ZN4Rcpp24CppFunction_WithFormals2I5ImageS1_S1_ED1Ev"
 "_ZN4Rcpp24CppFunction_WithFormals2Id5ImageS1_E11get_formalsEv"
 "_ZN4Rcpp24CppFunction_WithFormals2Id5ImageS1_E16get_function_ptrEv"
 "_ZN4Rcpp24CppFunction_WithFormals2Id5ImageS1_E5nargsEv"
 "_ZN4Rcpp24CppFunction_WithFormals2Id5ImageS1_E9signatureERSsPKc"
 "_ZN4Rcpp24CppFunction_WithFormals2Id5ImageS1_EC1EPFdS1_S1_ENS_6VectorILi19ENS_15PreserveStorageEEEPKc"
 "_ZN4Rcpp24CppFunction_WithFormals2Id5ImageS1_EclEPP7SEXPREC"
 "_ZN4Rcpp24CppFunction_WithFormals2Id5ImageS1_ED0Ev"
 "_ZN4Rcpp24CppFunction_WithFormals2Id5ImageS1_ED1Ev"
 "_ZN4Rcpp24CppFunction_WithFormals2INS_6VectorILi19ENS_15PreserveStorageEEE5ImageiE11get_formalsEv"
 "_ZN4Rcpp24CppFunction_WithFormals2INS_6VectorILi19ENS_15PreserveStorageEEE5ImageiE16get_function_ptrEv"
 "_ZN4Rcpp24CppFunction_WithFormals2INS_6VectorILi19ENS_15PreserveStorageEEE5ImageiE5nargsEv"
 "_ZN4Rcpp24CppFunction_WithFormals2INS_6VectorILi19ENS_15PreserveStorageEEE5ImageiE9signatureERSsPKc"
 "_ZN4Rcpp24CppFunction_WithFormals2INS_6VectorILi19ENS_15PreserveStorageEEE5ImageiEC1EPFS3_S4_iES3_PKc"
 "_ZN4Rcpp24CppFunction_WithFormals2INS_6VectorILi19ENS_15PreserveStorageEEE5ImageiEclEPP7SEXPREC"
 "_ZN4Rcpp24CppFunction_WithFormals2INS_6VectorILi19ENS_15PreserveStorageEEE5ImageiED0Ev"
 "_ZN4Rcpp24CppFunction_WithFormals2INS_6VectorILi19ENS_15PreserveStorageEEE5ImageiED1Ev"
 "_ZN4Rcpp24CppFunction_WithFormals3I5ImageS1_dbE11get_formalsEv"
 "_ZN4Rcpp24CppFunction_WithFormals3I5ImageS1_dbE16get_function_ptrEv"
 "_ZN4Rcpp24CppFunction_WithFormals3I5ImageS1_dbE5nargsEv"
 "_ZN4Rcpp24CppFunction_WithFormals3I5ImageS1_dbE9signatureERSsPKc"
 "_ZN4Rcpp24CppFunction_WithFormals3I5ImageS1_dbEC1EPFS1_S1_dbENS_6VectorILi19ENS_15PreserveStorageEEEPKc"
 "_ZN4Rcpp24CppFunction_WithFormals3I5ImageS1_dbEclEPP7SEXPREC"
 "_ZN4Rcpp24CppFunction_WithFormals3I5ImageS1_dbED0Ev"
 "_ZN4Rcpp24CppFunction_WithFormals3I5ImageS1_dbED1Ev"
 "_ZN4Rcpp24CppFunction_WithFormals3I5ImageS1_idE11get_formalsEv"
 "_ZN4Rcpp24CppFunction_WithFormals3I5ImageS1_idE16get_function_ptrEv"
 "_ZN4Rcpp24CppFunction_WithFormals3I5ImageS1_idE5nargsEv"
 "_ZN4Rcpp24CppFunction_WithFormals3I5ImageS1_idE9signatureERSsPKc"
 "_ZN4Rcpp24CppFunction_WithFormals3I5ImageS1_idEC1EPFS1_S1_idENS_6VectorILi19ENS_15PreserveStorageEEEPKc"
 "_ZN4Rcpp24CppFunction_WithFormals3I5ImageS1_idEclEPP7SEXPREC"
 "_ZN4Rcpp24CppFunction_WithFormals3I5ImageS1_idED0Ev"
 "_ZN4Rcpp24CppFunction_WithFormals3I5ImageS1_idED1Ev"
 "_ZN4Rcpp24CppFunction_WithFormals3I5ImageS1_iiE11get_formalsEv"
 "_ZN4Rcpp24CppFunction_WithFormals3I5ImageS1_iiE16get_function_ptrEv"
 "_ZN4Rcpp24CppFunction_WithFormals3I5ImageS1_iiE5nargsEv"
 "_ZN4Rcpp24CppFunction_WithFormals3I5ImageS1_iiE9signatureERSsPKc"
 "_ZN4Rcpp24CppFunction_WithFormals3I5ImageS1_iiEC1EPFS1_S1_iiENS_6VectorILi19ENS_15PreserveStorageEEEPKc"
 "_ZN4Rcpp24CppFunction_WithFormals3I5ImageS1_iiEclEPP7SEXPREC"
 "_ZN4Rcpp24CppFunction_WithFormals3I5ImageS1_iiED0Ev"
 "_ZN4Rcpp24CppFunction_WithFormals3I5ImageS1_iiED1Ev"
 "_ZN4Rcpp24CppFunction_WithFormals3I5ImageS1_NS_6VectorILi14ENS_15PreserveStorageEEES4_E11get_formalsEv"
 "_ZN4Rcpp24CppFunction_WithFormals3I5ImageS1_NS_6VectorILi14ENS_15PreserveStorageEEES4_E16get_function_ptrEv"
 "_ZN4Rcpp24CppFunction_WithFormals3I5ImageS1_NS_6VectorILi14ENS_15PreserveStorageEEES4_E5nargsEv"
 "_ZN4Rcpp24CppFunction_WithFormals3I5ImageS1_NS_6VectorILi14ENS_15PreserveStorageEEES4_E9signatureERSsPKc"
 "_ZN4Rcpp24CppFunction_WithFormals3I5ImageS1_NS_6VectorILi14ENS_15PreserveStorageEEES4_EC1EPFS1_S1_S4_S4_ENS2_ILi19ES3_EEPKc"
 "_ZN4Rcpp24CppFunction_WithFormals3I5ImageS1_NS_6VectorILi14ENS_15PreserveStorageEEES4_EclEPP7SEXPREC"
 "_ZN4Rcpp24CppFunction_WithFormals3I5ImageS1_NS_6VectorILi14ENS_15PreserveStorageEEES4_ED0Ev"
 "_ZN4Rcpp24CppFunction_WithFormals3I5ImageS1_NS_6VectorILi14ENS_15PreserveStorageEEES4_ED1Ev"
 "_ZN4Rcpp24CppFunction_WithFormals3I5ImageS1_S1_iE11get_formalsEv"
 "_ZN4Rcpp24CppFunction_WithFormals3I5ImageS1_S1_iE16get_function_ptrEv"
 "_ZN4Rcpp24CppFunction_WithFormals3I5ImageS1_S1_iE5nargsEv"
 "_ZN4Rcpp24CppFunction_WithFormals3I5ImageS1_S1_iE9signatureERSsPKc"
 "_ZN4Rcpp24CppFunction_WithFormals3I5ImageS1_S1_iEC1EPFS1_S1_S1_iENS_6VectorILi19ENS_15PreserveStorageEEEPKc"
 "_ZN4Rcpp24CppFunction_WithFormals3I5ImageS1_S1_iEclEPP7SEXPREC"
 "_ZN4Rcpp24CppFunction_WithFormals3I5ImageS1_S1_iED0Ev"
 "_ZN4Rcpp24CppFunction_WithFormals3I5ImageS1_S1_iED1Ev"
 "_ZN4Rcpp24CppFunction_WithFormals3IN4arma3MatIdEENS1_3ColIfEEddE11get_formalsEv"
 "_ZN4Rcpp24CppFunction_WithFormals3IN4arma3MatIdEENS1_3ColIfEEddE16get_function_ptrEv"
 "_ZN4Rcpp24CppFunction_WithFormals3IN4arma3MatIdEENS1_3ColIfEEddE5nargsEv"
 "_ZN4Rcpp24CppFunction_WithFormals3IN4arma3MatIdEENS1_3ColIfEEddE9signatureERSsPKc"
 "_ZN4Rcpp24CppFunction_WithFormals3IN4arma3MatIdEENS1_3ColIfEEddEC1EPFS3_S5_ddENS_6VectorILi19ENS_15PreserveStorageEEEPKc"
 "_ZN4Rcpp24CppFunction_WithFormals3IN4arma3MatIdEENS1_3ColIfEEddEclEPP7SEXPREC"
 "_ZN4Rcpp24CppFunction_WithFormals3IN4arma3MatIdEENS1_3ColIfEEddED0Ev"
 "_ZN4Rcpp24CppFunction_WithFormals3IN4arma3MatIdEENS1_3ColIfEEddED1Ev"
 "_ZN4Rcpp24CppFunction_WithFormals3INS_14DataFrame_ImplINS_15PreserveStorageEEE5ImageSsbE11get_formalsEv"
 "_ZN4Rcpp24CppFunction_WithFormals3INS_14DataFrame_ImplINS_15PreserveStorageEEE5ImageSsbE16get_function_ptrEv"
 "_ZN4Rcpp24CppFunction_WithFormals3INS_14DataFrame_ImplINS_15PreserveStorageEEE5ImageSsbE5nargsEv"
 "_ZN4Rcpp24CppFunction_WithFormals3INS_14DataFrame_ImplINS_15PreserveStorageEEE5ImageSsbE9signatureERSsPKc"
 "_ZN4Rcpp24CppFunction_WithFormals3INS_14DataFrame_ImplINS_15PreserveStorageEEE5ImageSsbEC1EPFS3_S4_SsbENS_6VectorILi19ES2_EEPKc"
 "_ZN4Rcpp24CppFunction_WithFormals3INS_14DataFrame_ImplINS_15PreserveStorageEEE5ImageSsbEclEPP7SEXPREC"
 "_ZN4Rcpp24CppFunction_WithFormals3INS_14DataFrame_ImplINS_15PreserveStorageEEE5ImageSsbED0Ev"
 "_ZN4Rcpp24CppFunction_WithFormals3INS_14DataFrame_ImplINS_15PreserveStorageEEE5ImageSsbED1Ev"
 "_ZN4Rcpp24CppFunction_WithFormals3Iv5ImageNS_6MatrixILi13ENS_15PreserveStorageEEENS_6VectorILi13ES3_EEE11get_formalsEv"
 "_ZN4Rcpp24CppFunction_WithFormals3Iv5ImageNS_6MatrixILi13ENS_15PreserveStorageEEENS_6VectorILi13ES3_EEE16get_function_ptrEv"
 "_ZN4Rcpp24CppFunction_WithFormals3Iv5ImageNS_6MatrixILi13ENS_15PreserveStorageEEENS_6VectorILi13ES3_EEE5nargsEv"
 "_ZN4Rcpp24CppFunction_WithFormals3Iv5ImageNS_6MatrixILi13ENS_15PreserveStorageEEENS_6VectorILi13ES3_EEE7is_voidEv"
 "_ZN4Rcpp24CppFunction_WithFormals3Iv5ImageNS_6MatrixILi13ENS_15PreserveStorageEEENS_6VectorILi13ES3_EEE9signatureERSsPKc"
 "_ZN4Rcpp24CppFunction_WithFormals3Iv5ImageNS_6MatrixILi13ENS_15PreserveStorageEEENS_6VectorILi13ES3_EEEC1EPFvS1_S4_S6_ENS5_ILi19ES3_EEPKc"
 "_ZN4Rcpp24CppFunction_WithFormals3Iv5ImageNS_6MatrixILi13ENS_15PreserveStorageEEENS_6VectorILi13ES3_EEEclEPP7SEXPREC"
 "_ZN4Rcpp24CppFunction_WithFormals3Iv5ImageNS_6MatrixILi13ENS_15PreserveStorageEEENS_6VectorILi13ES3_EEED0Ev"
 "_ZN4Rcpp24CppFunction_WithFormals3Iv5ImageNS_6MatrixILi13ENS_15PreserveStorageEEENS_6VectorILi13ES3_EEED1Ev"
 "_ZN4Rcpp24CppFunction_WithFormals3IvSsiiE11get_formalsEv"
 "_ZN4Rcpp24CppFunction_WithFormals3IvSsiiE16get_function_ptrEv"
 "_ZN4Rcpp24CppFunction_WithFormals3IvSsiiE5nargsEv"
 "_ZN4Rcpp24CppFunction_WithFormals3IvSsiiE7is_voidEv"
 "_ZN4Rcpp24CppFunction_WithFormals3IvSsiiE9signatureERSsPKc"
 "_ZN4Rcpp24CppFunction_WithFormals3IvSsiiEC1EPFvSsiiENS_6VectorILi19ENS_15PreserveStorageEEEPKc"
 "_ZN4Rcpp24CppFunction_WithFormals3IvSsiiEclEPP7SEXPREC"
 "_ZN4Rcpp24CppFunction_WithFormals3IvSsiiED0Ev"
 "_ZN4Rcpp24CppFunction_WithFormals3IvSsiiED1Ev"
 "_ZN4Rcpp24CppFunction_WithFormals4I5ImageS1_dS1_dE11get_formalsEv"
 "_ZN4Rcpp24CppFunction_WithFormals4I5ImageS1_dS1_dE16get_function_ptrEv"
 "_ZN4Rcpp24CppFunction_WithFormals4I5ImageS1_dS1_dE5nargsEv"
 "_ZN4Rcpp24CppFunction_WithFormals4I5ImageS1_dS1_dE9signatureERSsPKc"
 "_ZN4Rcpp24CppFunction_WithFormals4I5ImageS1_dS1_dEC1EPFS1_S1_dS1_dENS_6VectorILi19ENS_15PreserveStorageEEEPKc"
 "_ZN4Rcpp24CppFunction_WithFormals4I5ImageS1_dS1_dEclEPP7SEXPREC"
 "_ZN4Rcpp24CppFunction_WithFormals4I5ImageS1_dS1_dED0Ev"
 "_ZN4Rcpp24CppFunction_WithFormals4I5ImageS1_dS1_dED1Ev"
 "_ZN4Rcpp24CppFunction_WithFormals4I5ImageS1_iddE11get_formalsEv"
 "_ZN4Rcpp24CppFunction_WithFormals4I5ImageS1_iddE16get_function_ptrEv"
 "_ZN4Rcpp24CppFunction_WithFormals4I5ImageS1_iddE5nargsEv"
 "_ZN4Rcpp24CppFunction_WithFormals4I5ImageS1_iddE9signatureERSsPKc"
 "_ZN4Rcpp24CppFunction_WithFormals4I5ImageS1_iddEC1EPFS1_S1_iddENS_6VectorILi19ENS_15PreserveStorageEEEPKc"
 "_ZN4Rcpp24CppFunction_WithFormals4I5ImageS1_iddEclEPP7SEXPREC"
 "_ZN4Rcpp24CppFunction_WithFormals4I5ImageS1_iddED0Ev"
 "_ZN4Rcpp24CppFunction_WithFormals4I5ImageS1_iddED1Ev"
 "_ZN4Rcpp24CppFunction_WithFormals4I5ImageS1_iibE11get_formalsEv"
 "_ZN4Rcpp24CppFunction_WithFormals4I5ImageS1_iibE16get_function_ptrEv"
 "_ZN4Rcpp24CppFunction_WithFormals4I5ImageS1_iibE5nargsEv"
 "_ZN4Rcpp24CppFunction_WithFormals4I5ImageS1_iibE9signatureERSsPKc"
 "_ZN4Rcpp24CppFunction_WithFormals4I5ImageS1_iibEC1EPFS1_S1_iibENS_6VectorILi19ENS_15PreserveStorageEEEPKc"
 "_ZN4Rcpp24CppFunction_WithFormals4I5ImageS1_iibEclEPP7SEXPREC"
 "_ZN4Rcpp24CppFunction_WithFormals4I5ImageS1_iibED0Ev"
 "_ZN4Rcpp24CppFunction_WithFormals4I5ImageS1_iibED1Ev"
 "_ZN4Rcpp24CppFunction_WithFormals4I5ImageS1_iidE11get_formalsEv"
 "_ZN4Rcpp24CppFunction_WithFormals4I5ImageS1_iidE16get_function_ptrEv"
 "_ZN4Rcpp24CppFunction_WithFormals4I5ImageS1_iidE5nargsEv"
 "_ZN4Rcpp24CppFunction_WithFormals4I5ImageS1_iidE9signatureERSsPKc"
 "_ZN4Rcpp24CppFunction_WithFormals4I5ImageS1_iidEC1EPFS1_S1_iidENS_6VectorILi19ENS_15PreserveStorageEEEPKc"
 "_ZN4Rcpp24CppFunction_WithFormals4I5ImageS1_iidEclEPP7SEXPREC"
 "_ZN4Rcpp24CppFunction_WithFormals4I5ImageS1_iidED0Ev"
 "_ZN4Rcpp24CppFunction_WithFormals4I5ImageS1_iidED1Ev"
 "_ZN4Rcpp24CppFunction_WithFormals4I5ImageS1_iNS_6VectorILi14ENS_15PreserveStorageEEEiE11get_formalsEv"
 "_ZN4Rcpp24CppFunction_WithFormals4I5ImageS1_iNS_6VectorILi14ENS_15PreserveStorageEEEiE16get_function_ptrEv"
 "_ZN4Rcpp24CppFunction_WithFormals4I5ImageS1_iNS_6VectorILi14ENS_15PreserveStorageEEEiE5nargsEv"
 "_ZN4Rcpp24CppFunction_WithFormals4I5ImageS1_iNS_6VectorILi14ENS_15PreserveStorageEEEiE9signatureERSsPKc"
 "_ZN4Rcpp24CppFunction_WithFormals4I5ImageS1_iNS_6VectorILi14ENS_15PreserveStorageEEEiEC1EPFS1_S1_iS4_iENS2_ILi19ES3_EEPKc"
 "_ZN4Rcpp24CppFunction_WithFormals4I5ImageS1_iNS_6VectorILi14ENS_15PreserveStorageEEEiEclEPP7SEXPREC"
 "_ZN4Rcpp24CppFunction_WithFormals4I5ImageS1_iNS_6VectorILi14ENS_15PreserveStorageEEEiED0Ev"
 "_ZN4Rcpp24CppFunction_WithFormals4I5ImageS1_iNS_6VectorILi14ENS_15PreserveStorageEEEiED1Ev"
 "_ZN4Rcpp24CppFunction_WithFormals4I5ImageS1_S1_diE11get_formalsEv"
 "_ZN4Rcpp24CppFunction_WithFormals4I5ImageS1_S1_diE16get_function_ptrEv"
 "_ZN4Rcpp24CppFunction_WithFormals4I5ImageS1_S1_diE5nargsEv"
 "_ZN4Rcpp24CppFunction_WithFormals4I5ImageS1_S1_diE9signatureERSsPKc"
 "_ZN4Rcpp24CppFunction_WithFormals4I5ImageS1_S1_diEC1EPFS1_S1_S1_diENS_6VectorILi19ENS_15PreserveStorageEEEPKc"
 "_ZN4Rcpp24CppFunction_WithFormals4I5ImageS1_S1_diEclEPP7SEXPREC"
 "_ZN4Rcpp24CppFunction_WithFormals4I5ImageS1_S1_diED0Ev"
 "_ZN4Rcpp24CppFunction_WithFormals4I5ImageS1_S1_diED1Ev"
 "_ZN4Rcpp24CppFunction_WithFormals4I5ImageS1_S1_iS1_E11get_formalsEv"
 "_ZN4Rcpp24CppFunction_WithFormals4I5ImageS1_S1_iS1_E16get_function_ptrEv"
 "_ZN4Rcpp24CppFunction_WithFormals4I5ImageS1_S1_iS1_E5nargsEv"
 "_ZN4Rcpp24CppFunction_WithFormals4I5ImageS1_S1_iS1_E9signatureERSsPKc"
 "_ZN4Rcpp24CppFunction_WithFormals4I5ImageS1_S1_iS1_EC1EPFS1_S1_S1_iS1_ENS_6VectorILi19ENS_15PreserveStorageEEEPKc"
 "_ZN4Rcpp24CppFunction_WithFormals4I5ImageS1_S1_iS1_EclEPP7SEXPREC"
 "_ZN4Rcpp24CppFunction_WithFormals4I5ImageS1_S1_iS1_ED0Ev"
 "_ZN4Rcpp24CppFunction_WithFormals4I5ImageS1_S1_iS1_ED1Ev"
 "_ZN4Rcpp24CppFunction_WithFormals4INS_6VectorILi14ENS_15PreserveStorageEEESsidiE11get_formalsEv"
 "_ZN4Rcpp24CppFunction_WithFormals4INS_6VectorILi14ENS_15PreserveStorageEEESsidiE16get_function_ptrEv"
 "_ZN4Rcpp24CppFunction_WithFormals4INS_6VectorILi14ENS_15PreserveStorageEEESsidiE5nargsEv"
 "_ZN4Rcpp24CppFunction_WithFormals4INS_6VectorILi14ENS_15PreserveStorageEEESsidiE9signatureERSsPKc"
 "_ZN4Rcpp24CppFunction_WithFormals4INS_6VectorILi14ENS_15PreserveStorageEEESsidiEC1EPFS3_SsidiENS1_ILi19ES2_EEPKc"
 "_ZN4Rcpp24CppFunction_WithFormals4INS_6VectorILi14ENS_15PreserveStorageEEESsidiEclEPP7SEXPREC"
 "_ZN4Rcpp24CppFunction_WithFormals4INS_6VectorILi14ENS_15PreserveStorageEEESsidiED0Ev"
 "_ZN4Rcpp24CppFunction_WithFormals4INS_6VectorILi14ENS_15PreserveStorageEEESsidiED1Ev"
 "_ZN4Rcpp24CppFunction_WithFormals4INS_6VectorILi19ENS_15PreserveStorageEEE5ImageiiNS1_ILi14ES2_EEE11get_formalsEv"
 "_ZN4Rcpp24CppFunction_WithFormals4INS_6VectorILi19ENS_15PreserveStorageEEE5ImageiiNS1_ILi14ES2_EEE16get_function_ptrEv"
 "_ZN4Rcpp24CppFunction_WithFormals4INS_6VectorILi19ENS_15PreserveStorageEEE5ImageiiNS1_ILi14ES2_EEE5nargsEv"
 "_ZN4Rcpp24CppFunction_WithFormals4INS_6VectorILi19ENS_15PreserveStorageEEE5ImageiiNS1_ILi14ES2_EEE9signatureERSsPKc"
 "_ZN4Rcpp24CppFunction_WithFormals4INS_6VectorILi19ENS_15PreserveStorageEEE5ImageiiNS1_ILi14ES2_EEEC1EPFS3_S4_iiS5_ES3_PKc"
 "_ZN4Rcpp24CppFunction_WithFormals4INS_6VectorILi19ENS_15PreserveStorageEEE5ImageiiNS1_ILi14ES2_EEEclEPP7SEXPREC"
 "_ZN4Rcpp24CppFunction_WithFormals4INS_6VectorILi19ENS_15PreserveStorageEEE5ImageiiNS1_ILi14ES2_EEED0Ev"
 "_ZN4Rcpp24CppFunction_WithFormals4INS_6VectorILi19ENS_15PreserveStorageEEE5ImageiiNS1_ILi14ES2_EEED1Ev"
 "_ZN4Rcpp24CppFunction_WithFormals5I5ImageRS1_iiiiE11get_formalsEv"
 "_ZN4Rcpp24CppFunction_WithFormals5I5ImageRS1_iiiiE16get_function_ptrEv"
 "_ZN4Rcpp24CppFunction_WithFormals5I5ImageRS1_iiiiE5nargsEv"
 "_ZN4Rcpp24CppFunction_WithFormals5I5ImageRS1_iiiiE9signatureERSsPKc"
 "_ZN4Rcpp24CppFunction_WithFormals5I5ImageRS1_iiiiEC1EPFS1_S2_iiiiENS_6VectorILi19ENS_15PreserveStorageEEEPKc"
 "_ZN4Rcpp24CppFunction_WithFormals5I5ImageRS1_iiiiEclEPP7SEXPREC"
 "_ZN4Rcpp24CppFunction_WithFormals5I5ImageRS1_iiiiED0Ev"
 "_ZN4Rcpp24CppFunction_WithFormals5I5ImageRS1_iiiiED1Ev"
 "_ZN4Rcpp24CppFunction_WithFormals5I5ImageS1_iiddE11get_formalsEv"
 "_ZN4Rcpp24CppFunction_WithFormals5I5ImageS1_iiddE16get_function_ptrEv"
 "_ZN4Rcpp24CppFunction_WithFormals5I5ImageS1_iiddE5nargsEv"
 "_ZN4Rcpp24CppFunction_WithFormals5I5ImageS1_iiddE9signatureERSsPKc"
 "_ZN4Rcpp24CppFunction_WithFormals5I5ImageS1_iiddEC1EPFS1_S1_iiddENS_6VectorILi19ENS_15PreserveStorageEEEPKc"
 "_ZN4Rcpp24CppFunction_WithFormals5I5ImageS1_iiddEclEPP7SEXPREC"
 "_ZN4Rcpp24CppFunction_WithFormals5I5ImageS1_iiddED0Ev"
 "_ZN4Rcpp24CppFunction_WithFormals5I5ImageS1_iiddED1Ev"
 "_ZN4Rcpp24CppFunction_WithFormals5I5ImageS1_iiidE11get_formalsEv"
 "_ZN4Rcpp24CppFunction_WithFormals5I5ImageS1_iiidE16get_function_ptrEv"
 "_ZN4Rcpp24CppFunction_WithFormals5I5ImageS1_iiidE5nargsEv"
 "_ZN4Rcpp24CppFunction_WithFormals5I5ImageS1_iiidE9signatureERSsPKc"
 "_ZN4Rcpp24CppFunction_WithFormals5I5ImageS1_iiidEC1EPFS1_S1_iiidENS_6VectorILi19ENS_15PreserveStorageEEEPKc"
 "_ZN4Rcpp24CppFunction_WithFormals5I5ImageS1_iiidEclEPP7SEXPREC"
 "_ZN4Rcpp24CppFunction_WithFormals5I5ImageS1_iiidED0Ev"
 "_ZN4Rcpp24CppFunction_WithFormals5I5ImageS1_iiidED1Ev"
 "_ZN4Rcpp24CppFunction_WithFormals5Iv5ImageSsiiiE11get_formalsEv"
 "_ZN4Rcpp24CppFunction_WithFormals5Iv5ImageSsiiiE16get_function_ptrEv"
 "_ZN4Rcpp24CppFunction_WithFormals5Iv5ImageSsiiiE5nargsEv"
 "_ZN4Rcpp24CppFunction_WithFormals5Iv5ImageSsiiiE7is_voidEv"
 "_ZN4Rcpp24CppFunction_WithFormals5Iv5ImageSsiiiE9signatureERSsPKc"
 "_ZN4Rcpp24CppFunction_WithFormals5Iv5ImageSsiiiEC1EPFvS1_SsiiiENS_6VectorILi19ENS_15PreserveStorageEEEPKc"
 "_ZN4Rcpp24CppFunction_WithFormals5Iv5ImageSsiiiEclEPP7SEXPREC"
 "_ZN4Rcpp24CppFunction_WithFormals5Iv5ImageSsiiiED0Ev"
 "_ZN4Rcpp24CppFunction_WithFormals5Iv5ImageSsiiiED1Ev"
 "_ZN4Rcpp24CppFunction_WithFormals6I5ImageS1_diiidE11get_formalsEv"
 "_ZN4Rcpp24CppFunction_WithFormals6I5ImageS1_diiidE16get_function_ptrEv"
 "_ZN4Rcpp24CppFunction_WithFormals6I5ImageS1_diiidE5nargsEv"
 "_ZN4Rcpp24CppFunction_WithFormals6I5ImageS1_diiidE9signatureERSsPKc"
 "_ZN4Rcpp24CppFunction_WithFormals6I5ImageS1_diiidEC1EPFS1_S1_diiidENS_6VectorILi19ENS_15PreserveStorageEEEPKc"
 "_ZN4Rcpp24CppFunction_WithFormals6I5ImageS1_diiidEclEPP7SEXPREC"
 "_ZN4Rcpp24CppFunction_WithFormals6I5ImageS1_diiidED0Ev"
 "_ZN4Rcpp24CppFunction_WithFormals6I5ImageS1_diiidED1Ev"
 "_ZN4Rcpp24CppFunction_WithFormals6I5ImageS1_iiddiE11get_formalsEv"
 "_ZN4Rcpp24CppFunction_WithFormals6I5ImageS1_iiddiE16get_function_ptrEv"
 "_ZN4Rcpp24CppFunction_WithFormals6I5ImageS1_iiddiE5nargsEv"
 "_ZN4Rcpp24CppFunction_WithFormals6I5ImageS1_iiddiE9signatureERSsPKc"
 "_ZN4Rcpp24CppFunction_WithFormals6I5ImageS1_iiddiEC1EPFS1_S1_iiddiENS_6VectorILi19ENS_15PreserveStorageEEEPKc"
 "_ZN4Rcpp24CppFunction_WithFormals6I5ImageS1_iiddiEclEPP7SEXPREC"
 "_ZN4Rcpp24CppFunction_WithFormals6I5ImageS1_iiddiED0Ev"
 "_ZN4Rcpp24CppFunction_WithFormals6I5ImageS1_iiddiED1Ev"
 "_ZN4Rcpp24CppFunction_WithFormals6I5ImageS1_iiiiiE11get_formalsEv"
 "_ZN4Rcpp24CppFunction_WithFormals6I5ImageS1_iiiiiE16get_function_ptrEv"
 "_ZN4Rcpp24CppFunction_WithFormals6I5ImageS1_iiiiiE5nargsEv"
 "_ZN4Rcpp24CppFunction_WithFormals6I5ImageS1_iiiiiE9signatureERSsPKc"
 "_ZN4Rcpp24CppFunction_WithFormals6I5ImageS1_iiiiiEC1EPFS1_S1_iiiiiENS_6VectorILi19ENS_15PreserveStorageEEEPKc"
 "_ZN4Rcpp24CppFunction_WithFormals6I5ImageS1_iiiiiEclEPP7SEXPREC"
 "_ZN4Rcpp24CppFunction_WithFormals6I5ImageS1_iiiiiED0Ev"
 "_ZN4Rcpp24CppFunction_WithFormals6I5ImageS1_iiiiiED1Ev"
 "_ZN4Rcpp24CppFunction_WithFormals6I5ImageS1_N4arma3MatIfEENS_6VectorILi13ENS_15PreserveStorageEEEiiS7_E11get_formalsEv"
 "_ZN4Rcpp24CppFunction_WithFormals6I5ImageS1_N4arma3MatIfEENS_6VectorILi13ENS_15PreserveStorageEEEiiS7_E16get_function_ptrEv"
 "_ZN4Rcpp24CppFunction_WithFormals6I5ImageS1_N4arma3MatIfEENS_6VectorILi13ENS_15PreserveStorageEEEiiS7_E5nargsEv"
 "_ZN4Rcpp24CppFunction_WithFormals6I5ImageS1_N4arma3MatIfEENS_6VectorILi13ENS_15PreserveStorageEEEiiS7_E9signatureERSsPKc"
 "_ZN4Rcpp24CppFunction_WithFormals6I5ImageS1_N4arma3MatIfEENS_6VectorILi13ENS_15PreserveStorageEEEiiS7_EC1EPFS1_S1_S4_S7_iiS7_ENS5_ILi19ES6_EEPKc"
 "_ZN4Rcpp24CppFunction_WithFormals6I5ImageS1_N4arma3MatIfEENS_6VectorILi13ENS_15PreserveStorageEEEiiS7_EclEPP7SEXPREC"
 "_ZN4Rcpp24CppFunction_WithFormals6I5ImageS1_N4arma3MatIfEENS_6VectorILi13ENS_15PreserveStorageEEEiiS7_ED0Ev"
 "_ZN4Rcpp24CppFunction_WithFormals6I5ImageS1_N4arma3MatIfEENS_6VectorILi13ENS_15PreserveStorageEEEiiS7_ED1Ev"
 "_ZN4Rcpp24CppFunction_WithFormals6IN4arma3MatIfEE5ImageS4_iidiE11get_formalsEv"
 "_ZN4Rcpp24CppFunction_WithFormals6IN4arma3MatIfEE5ImageS4_iidiE16get_function_ptrEv"
 "_ZN4Rcpp24CppFunction_WithFormals6IN4arma3MatIfEE5ImageS4_iidiE5nargsEv"
 "_ZN4Rcpp24CppFunction_WithFormals6IN4arma3MatIfEE5ImageS4_iidiE9signatureERSsPKc"
 "_ZN4Rcpp24CppFunction_WithFormals6IN4arma3MatIfEE5ImageS4_iidiEC1EPFS3_S4_S4_iidiENS_6VectorILi19ENS_15PreserveStorageEEEPKc"
 "_ZN4Rcpp24CppFunction_WithFormals6IN4arma3MatIfEE5ImageS4_iidiEclEPP7SEXPREC"
 "_ZN4Rcpp24CppFunction_WithFormals6IN4arma3MatIfEE5ImageS4_iidiED0Ev"
 "_ZN4Rcpp24CppFunction_WithFormals6IN4arma3MatIfEE5ImageS4_iidiED1Ev"
 "_ZN4Rcpp24CppFunction_WithFormals6Iv5ImageNS_6VectorILi14ENS_15PreserveStorageEEES4_NS2_ILi13ES3_EENS_6MatrixILi13ES3_EES5_E11get_formalsEv"
 "_ZN4Rcpp24CppFunction_WithFormals6Iv5ImageNS_6VectorILi14ENS_15PreserveStorageEEES4_NS2_ILi13ES3_EENS_6MatrixILi13ES3_EES5_E16get_function_ptrEv"
 "_ZN4Rcpp24CppFunction_WithFormals6Iv5ImageNS_6VectorILi14ENS_15PreserveStorageEEES4_NS2_ILi13ES3_EENS_6MatrixILi13ES3_EES5_E5nargsEv"
 "_ZN4Rcpp24CppFunction_WithFormals6Iv5ImageNS_6VectorILi14ENS_15PreserveStorageEEES4_NS2_ILi13ES3_EENS_6MatrixILi13ES3_EES5_E7is_voidEv"
 "_ZN4Rcpp24CppFunction_WithFormals6Iv5ImageNS_6VectorILi14ENS_15PreserveStorageEEES4_NS2_ILi13ES3_EENS_6MatrixILi13ES3_EES5_E9signatureERSsPKc"
 "_ZN4Rcpp24CppFunction_WithFormals6Iv5ImageNS_6VectorILi14ENS_15PreserveStorageEEES4_NS2_ILi13ES3_EENS_6MatrixILi13ES3_EES5_EC1EPFvS1_S4_S4_S5_S7_S5_ENS2_ILi19ES3_EEPKc"
 "_ZN4Rcpp24CppFunction_WithFormals6Iv5ImageNS_6VectorILi14ENS_15PreserveStorageEEES4_NS2_ILi13ES3_EENS_6MatrixILi13ES3_EES5_EclEPP7SEXPREC"
 "_ZN4Rcpp24CppFunction_WithFormals6Iv5ImageNS_6VectorILi14ENS_15PreserveStorageEEES4_NS2_ILi13ES3_EENS_6MatrixILi13ES3_EES5_ED0Ev"
 "_ZN4Rcpp24CppFunction_WithFormals6Iv5ImageNS_6VectorILi14ENS_15PreserveStorageEEES4_NS2_ILi13ES3_EENS_6MatrixILi13ES3_EES5_ED1Ev"
 "_ZN4Rcpp24CppFunction_WithFormals7I5ImageRS1_iiiiiNS_6VectorILi13ENS_15PreserveStorageEEEE11get_formalsEv"
 "_ZN4Rcpp24CppFunction_WithFormals7I5ImageRS1_iiiiiNS_6VectorILi13ENS_15PreserveStorageEEEE16get_function_ptrEv"
 "_ZN4Rcpp24CppFunction_WithFormals7I5ImageRS1_iiiiiNS_6VectorILi13ENS_15PreserveStorageEEEE5nargsEv"
 "_ZN4Rcpp24CppFunction_WithFormals7I5ImageRS1_iiiiiNS_6VectorILi13ENS_15PreserveStorageEEEE9signatureERSsPKc"
 "_ZN4Rcpp24CppFunction_WithFormals7I5ImageRS1_iiiiiNS_6VectorILi13ENS_15PreserveStorageEEEEC1EPFS1_S2_iiiiiS5_ENS3_ILi19ES4_EEPKc"
 "_ZN4Rcpp24CppFunction_WithFormals7I5ImageRS1_iiiiiNS_6VectorILi13ENS_15PreserveStorageEEEEclEPP7SEXPREC"
 "_ZN4Rcpp24CppFunction_WithFormals7I5ImageRS1_iiiiiNS_6VectorILi13ENS_15PreserveStorageEEEED0Ev"
 "_ZN4Rcpp24CppFunction_WithFormals7I5ImageRS1_iiiiiNS_6VectorILi13ENS_15PreserveStorageEEEED1Ev"
 "_ZN4Rcpp24CppFunction_WithFormals7Iv5ImageNS_6VectorILi14ENS_15PreserveStorageEEES4_S4_S4_NS_6MatrixILi13ES3_EENS2_ILi13ES3_EEE11get_formalsEv"
 "_ZN4Rcpp24CppFunction_WithFormals7Iv5ImageNS_6VectorILi14ENS_15PreserveStorageEEES4_S4_S4_NS_6MatrixILi13ES3_EENS2_ILi13ES3_EEE16get_function_ptrEv"
 "_ZN4Rcpp24CppFunction_WithFormals7Iv5ImageNS_6VectorILi14ENS_15PreserveStorageEEES4_S4_S4_NS_6MatrixILi13ES3_EENS2_ILi13ES3_EEE5nargsEv"
 "_ZN4Rcpp24CppFunction_WithFormals7Iv5ImageNS_6VectorILi14ENS_15PreserveStorageEEES4_S4_S4_NS_6MatrixILi13ES3_EENS2_ILi13ES3_EEE7is_voidEv"
 "_ZN4Rcpp24CppFunction_WithFormals7Iv5ImageNS_6VectorILi14ENS_15PreserveStorageEEES4_S4_S4_NS_6MatrixILi13ES3_EENS2_ILi13ES3_EEE9signatureERSsPKc"
 "_ZN4Rcpp24CppFunction_WithFormals7Iv5ImageNS_6VectorILi14ENS_15PreserveStorageEEES4_S4_S4_NS_6MatrixILi13ES3_EENS2_ILi13ES3_EEEC1EPFvS1_S4_S4_S4_S4_S6_S7_ENS2_ILi19ES3_EEPKc"
 "_ZN4Rcpp24CppFunction_WithFormals7Iv5ImageNS_6VectorILi14ENS_15PreserveStorageEEES4_S4_S4_NS_6MatrixILi13ES3_EENS2_ILi13ES3_EEEclEPP7SEXPREC"
 "_ZN4Rcpp24CppFunction_WithFormals7Iv5ImageNS_6VectorILi14ENS_15PreserveStorageEEES4_S4_S4_NS_6MatrixILi13ES3_EENS2_ILi13ES3_EEED0Ev"
 "_ZN4Rcpp24CppFunction_WithFormals7Iv5ImageNS_6VectorILi14ENS_15PreserveStorageEEES4_S4_S4_NS_6MatrixILi13ES3_EENS2_ILi13ES3_EEED1Ev"
 "_ZN4Rcpp24CppFunction_WithFormals8IN4arma4CubeIdEE5ImageS4_diiiidE11get_formalsEv"
 "_ZN4Rcpp24CppFunction_WithFormals8IN4arma4CubeIdEE5ImageS4_diiiidE16get_function_ptrEv"
 "_ZN4Rcpp24CppFunction_WithFormals8IN4arma4CubeIdEE5ImageS4_diiiidE5nargsEv"
 "_ZN4Rcpp24CppFunction_WithFormals8IN4arma4CubeIdEE5ImageS4_diiiidE9signatureERSsPKc"
 "_ZN4Rcpp24CppFunction_WithFormals8IN4arma4CubeIdEE5ImageS4_diiiidEC1EPFS3_S4_S4_diiiidENS_6VectorILi19ENS_15PreserveStorageEEEPKc"
 "_ZN4Rcpp24CppFunction_WithFormals8IN4arma4CubeIdEE5ImageS4_diiiidEclEPP7SEXPREC"
 "_ZN4Rcpp24CppFunction_WithFormals8IN4arma4CubeIdEE5ImageS4_diiiidED0Ev"
 "_ZN4Rcpp24CppFunction_WithFormals8IN4arma4CubeIdEE5ImageS4_diiiidED1Ev"
 "_ZN4Rcpp24CppFunction_WithFormals8Iv5ImageNS_6VectorILi14ENS_15PreserveStorageEEES4_S4_S4_S4_NS_6MatrixILi13ES3_EENS2_ILi13ES3_EEE11get_formalsEv"
 "_ZN4Rcpp24CppFunction_WithFormals8Iv5ImageNS_6VectorILi14ENS_15PreserveStorageEEES4_S4_S4_S4_NS_6MatrixILi13ES3_EENS2_ILi13ES3_EEE16get_function_ptrEv"
 "_ZN4Rcpp24CppFunction_WithFormals8Iv5ImageNS_6VectorILi14ENS_15PreserveStorageEEES4_S4_S4_S4_NS_6MatrixILi13ES3_EENS2_ILi13ES3_EEE5nargsEv"
 "_ZN4Rcpp24CppFunction_WithFormals8Iv5ImageNS_6VectorILi14ENS_15PreserveStorageEEES4_S4_S4_S4_NS_6MatrixILi13ES3_EENS2_ILi13ES3_EEE7is_voidEv"
 "_ZN4Rcpp24CppFunction_WithFormals8Iv5ImageNS_6VectorILi14ENS_15PreserveStorageEEES4_S4_S4_S4_NS_6MatrixILi13ES3_EENS2_ILi13ES3_EEE9signatureERSsPKc"
 "_ZN4Rcpp24CppFunction_WithFormals8Iv5ImageNS_6VectorILi14ENS_15PreserveStorageEEES4_S4_S4_S4_NS_6MatrixILi13ES3_EENS2_ILi13ES3_EEEC1EPFvS1_S4_S4_S4_S4_S4_S6_S7_ENS2_ILi19ES3_EEPKc"
 "_ZN4Rcpp24CppFunction_WithFormals8Iv5ImageNS_6VectorILi14ENS_15PreserveStorageEEES4_S4_S4_S4_NS_6MatrixILi13ES3_EENS2_ILi13ES3_EEEclEPP7SEXPREC"
 "_ZN4Rcpp24CppFunction_WithFormals8Iv5ImageNS_6VectorILi14ENS_15PreserveStorageEEES4_S4_S4_S4_NS_6MatrixILi13ES3_EENS2_ILi13ES3_EEED0Ev"
 "_ZN4Rcpp24CppFunction_WithFormals8Iv5ImageNS_6VectorILi14ENS_15PreserveStorageEEES4_S4_S4_S4_NS_6MatrixILi13ES3_EENS2_ILi13ES3_EEED1Ev"
 "_ZN4Rcpp24CppFunction_WithFormals9Iv5ImageNS_6VectorILi16ENS_15PreserveStorageEEENS2_ILi14ES3_EES5_NS2_ILi13ES3_EES5_NS_6MatrixILi13ES3_EES6_NS2_ILi10ES3_EEE11get_formalsEv"
 "_ZN4Rcpp24CppFunction_WithFormals9Iv5ImageNS_6VectorILi16ENS_15PreserveStorageEEENS2_ILi14ES3_EES5_NS2_ILi13ES3_EES5_NS_6MatrixILi13ES3_EES6_NS2_ILi10ES3_EEE16get_function_ptrEv"
 "_ZN4Rcpp24CppFunction_WithFormals9Iv5ImageNS_6VectorILi16ENS_15PreserveStorageEEENS2_ILi14ES3_EES5_NS2_ILi13ES3_EES5_NS_6MatrixILi13ES3_EES6_NS2_ILi10ES3_EEE5nargsEv"
 "_ZN4Rcpp24CppFunction_WithFormals9Iv5ImageNS_6VectorILi16ENS_15PreserveStorageEEENS2_ILi14ES3_EES5_NS2_ILi13ES3_EES5_NS_6MatrixILi13ES3_EES6_NS2_ILi10ES3_EEE7is_voidEv"
 "_ZN4Rcpp24CppFunction_WithFormals9Iv5ImageNS_6VectorILi16ENS_15PreserveStorageEEENS2_ILi14ES3_EES5_NS2_ILi13ES3_EES5_NS_6MatrixILi13ES3_EES6_NS2_ILi10ES3_EEE9signatureERSsPKc"
 "_ZN4Rcpp24CppFunction_WithFormals9Iv5ImageNS_6VectorILi16ENS_15PreserveStorageEEENS2_ILi14ES3_EES5_NS2_ILi13ES3_EES5_NS_6MatrixILi13ES3_EES6_NS2_ILi10ES3_EEEC1EPFvS1_S4_S5_S5_S6_S5_S8_S6_S9_ENS2_ILi19ES3_EEPKc"
 "_ZN4Rcpp24CppFunction_WithFormals9Iv5ImageNS_6VectorILi16ENS_15PreserveStorageEEENS2_ILi14ES3_EES5_NS2_ILi13ES3_EES5_NS_6MatrixILi13ES3_EES6_NS2_ILi10ES3_EEEclEPP7SEXPREC"
 "_ZN4Rcpp24CppFunction_WithFormals9Iv5ImageNS_6VectorILi16ENS_15PreserveStorageEEENS2_ILi14ES3_EES5_NS2_ILi13ES3_EES5_NS_6MatrixILi13ES3_EES6_NS2_ILi10ES3_EEED0Ev"
 "_ZN4Rcpp24CppFunction_WithFormals9Iv5ImageNS_6VectorILi16ENS_15PreserveStorageEEENS2_ILi14ES3_EES5_NS2_ILi13ES3_EES5_NS_6MatrixILi13ES3_EES6_NS2_ILi10ES3_EEED1Ev"
 "_ZN4Rcpp24get_return_type_dispatchI5ImageEESsNS_6traits17integral_constantIbLb0EEE"
 "_ZN4Rcpp24get_return_type_dispatchIbEESsNS_6traits17integral_constantIbLb0EEE"
 "_ZN4Rcpp24get_return_type_dispatchIdEESsNS_6traits17integral_constantIbLb0EEE"
 "_ZN4Rcpp24get_return_type_dispatchIfEESsNS_6traits17integral_constantIbLb0EEE"
 "_ZN4Rcpp24get_return_type_dispatchIhEESsNS_6traits17integral_constantIbLb0EEE"
 "_ZN4Rcpp24get_return_type_dispatchIiEESsNS_6traits17integral_constantIbLb0EEE"
 "_ZN4Rcpp24get_return_type_dispatchIN4arma3ColIfEEEESsNS_6traits17integral_constantIbLb0EEE"
 "_ZN4Rcpp24get_return_type_dispatchIN4arma3MatIdEEEESsNS_6traits17integral_constantIbLb0EEE"
 "_ZN4Rcpp24get_return_type_dispatchIN4arma3MatIfEEEESsNS_6traits17integral_constantIbLb0EEE"
 "_ZN4Rcpp24get_return_type_dispatchIN4arma4CubeIdEEEESsNS_6traits17integral_constantIbLb0EEE"
 "_ZN4Rcpp24get_return_type_dispatchIN4arma4CubeIiEEEESsNS_6traits17integral_constantIbLb0EEE"
 "_ZN4Rcpp24get_return_type_dispatchINS_14DataFrame_ImplINS_15PreserveStorageEEEEESsNS_6traits17integral_constantIbLb0EEE"
 "_ZN4Rcpp24get_return_type_dispatchINS_6MatrixILi13ENS_15PreserveStorageEEEEESsNS_6traits17integral_constantIbLb0EEE"
 "_ZN4Rcpp24get_return_type_dispatchINS_6MatrixILi14ENS_15PreserveStorageEEEEESsNS_6traits17integral_constantIbLb0EEE"
 "_ZN4Rcpp24get_return_type_dispatchINS_6VectorILi10ENS_15PreserveStorageEEEEESsNS_6traits17integral_constantIbLb0EEE"
 "_ZN4Rcpp24get_return_type_dispatchIR5ImageEESsNS_6traits17integral_constantIbLb0EEE"
 "_ZN4Rcpp24get_return_type_dispatchIRNS_6VectorILi19ENS_15PreserveStorageEEEEESsNS_6traits17integral_constantIbLb0EEE"
 "_ZN4Rcpp24get_return_type_dispatchISsEESsNS_6traits17integral_constantIbLb0EEE"
 "_ZN4Rcpp24get_return_type_dispatchIyEESsNS_6traits17integral_constantIbLb0EEE"
 "_ZN4Rcpp25CppFunction_WithFormals10Iv5ImageNS_6VectorILi14ENS_15PreserveStorageEEES4_S4_S4_S4_S4_S4_NS_6MatrixILi13ES3_EENS2_ILi13ES3_EEE11get_formalsEv"
 "_ZN4Rcpp25CppFunction_WithFormals10Iv5ImageNS_6VectorILi14ENS_15PreserveStorageEEES4_S4_S4_S4_S4_S4_NS_6MatrixILi13ES3_EENS2_ILi13ES3_EEE16get_function_ptrEv"
 "_ZN4Rcpp25CppFunction_WithFormals10Iv5ImageNS_6VectorILi14ENS_15PreserveStorageEEES4_S4_S4_S4_S4_S4_NS_6MatrixILi13ES3_EENS2_ILi13ES3_EEE5nargsEv"
 "_ZN4Rcpp25CppFunction_WithFormals10Iv5ImageNS_6VectorILi14ENS_15PreserveStorageEEES4_S4_S4_S4_S4_S4_NS_6MatrixILi13ES3_EENS2_ILi13ES3_EEE7is_voidEv"
 "_ZN4Rcpp25CppFunction_WithFormals10Iv5ImageNS_6VectorILi14ENS_15PreserveStorageEEES4_S4_S4_S4_S4_S4_NS_6MatrixILi13ES3_EENS2_ILi13ES3_EEE9signatureERSsPKc"
 "_ZN4Rcpp25CppFunction_WithFormals10Iv5ImageNS_6VectorILi14ENS_15PreserveStorageEEES4_S4_S4_S4_S4_S4_NS_6MatrixILi13ES3_EENS2_ILi13ES3_EEEC1EPFvS1_S4_S4_S4_S4_S4_S4_S4_S6_S7_ENS2_ILi19ES3_EEPKc"
 "_ZN4Rcpp25CppFunction_WithFormals10Iv5ImageNS_6VectorILi14ENS_15PreserveStorageEEES4_S4_S4_S4_S4_S4_NS_6MatrixILi13ES3_EENS2_ILi13ES3_EEEclEPP7SEXPREC"
 "_ZN4Rcpp25CppFunction_WithFormals10Iv5ImageNS_6VectorILi14ENS_15PreserveStorageEEES4_S4_S4_S4_S4_S4_NS_6MatrixILi13ES3_EENS2_ILi13ES3_EEED0Ev"
 "_ZN4Rcpp25CppFunction_WithFormals10Iv5ImageNS_6VectorILi14ENS_15PreserveStorageEEES4_S4_S4_S4_S4_S4_NS_6MatrixILi13ES3_EENS2_ILi13ES3_EEED1Ev"
 "_ZN4Rcpp25CppFunction_WithFormals20INS_14DataFrame_ImplINS_15PreserveStorageEEE5ImagefffyfbffbhbffbffbffE11get_formalsEv"
 "_ZN4Rcpp25CppFunction_WithFormals20INS_14DataFrame_ImplINS_15PreserveStorageEEE5ImagefffyfbffbhbffbffbffE16get_function_ptrEv"
 "_ZN4Rcpp25CppFunction_WithFormals20INS_14DataFrame_ImplINS_15PreserveStorageEEE5ImagefffyfbffbhbffbffbffE5nargsEv"
 "_ZN4Rcpp25CppFunction_WithFormals20INS_14DataFrame_ImplINS_15PreserveStorageEEE5ImagefffyfbffbhbffbffbffE9signatureERSsPKc"
 "_ZN4Rcpp25CppFunction_WithFormals20INS_14DataFrame_ImplINS_15PreserveStorageEEE5ImagefffyfbffbhbffbffbffEC1EPFS3_S4_fffyfbffbhbffbffbffENS_6VectorILi19ES2_EEPKc"
 "_ZN4Rcpp25CppFunction_WithFormals20INS_14DataFrame_ImplINS_15PreserveStorageEEE5ImagefffyfbffbhbffbffbffEclEPP7SEXPREC"
 "_ZN4Rcpp25CppFunction_WithFormals20INS_14DataFrame_ImplINS_15PreserveStorageEEE5ImagefffyfbffbhbffbffbffED0Ev"
 "_ZN4Rcpp25CppFunction_WithFormals20INS_14DataFrame_ImplINS_15PreserveStorageEEE5ImagefffyfbffbhbffbffbffED1Ev"
 "_ZN4Rcpp25standard_delete_finalizerI11VideoWriterEEvPT_"
 "_ZN4Rcpp25standard_delete_finalizerI5ImageEEvPT_"
 "_ZN4Rcpp25standard_delete_finalizerI5VideoEEvPT_"
 "_ZN4Rcpp25standard_delete_finalizerI6StreamEEvPT_"
 "_ZN4Rcpp25standard_delete_finalizerINS_11CppPropertyI11VideoWriterEEEEvPT_"
 "_ZN4Rcpp25standard_delete_finalizerINS_11CppPropertyI5ImageEEEEvPT_"
 "_ZN4Rcpp25standard_delete_finalizerINS_11CppPropertyI5VideoEEEEvPT_"
 "_ZN4Rcpp25standard_delete_finalizerINS_11CppPropertyI6StreamEEEEvPT_"
 "_ZN4Rcpp25standard_delete_finalizerINS_17SignedConstructorI11VideoWriterEEEEvPT_"
 "_ZN4Rcpp25standard_delete_finalizerINS_17SignedConstructorI5ImageEEEEvPT_"
 "_ZN4Rcpp25standard_delete_finalizerINS_17SignedConstructorI5VideoEEEEvPT_"
 "_ZN4Rcpp25standard_delete_finalizerINS_17SignedConstructorI6StreamEEEEvPT_"
 "_ZN4Rcpp25standard_delete_finalizerINS_6ModuleEEEvPT_"
 "_ZN4Rcpp25standard_delete_finalizerISt6vectorIPNS_12SignedMethodI11VideoWriterEESaIS5_EEEEvPT_"
 "_ZN4Rcpp25standard_delete_finalizerISt6vectorIPNS_12SignedMethodI5ImageEESaIS5_EEEEvPT_"
 "_ZN4Rcpp25standard_delete_finalizerISt6vectorIPNS_12SignedMethodI5VideoEESaIS5_EEEEvPT_"
 "_ZN4Rcpp25standard_delete_finalizerISt6vectorIPNS_12SignedMethodI6StreamEESaIS5_EEEEvPT_"
 "_ZN4Rcpp2asI5ImageEET_P7SEXPREC"
 "_ZN4Rcpp2asIbEET_P7SEXPREC"
 "_ZN4Rcpp2asIdEET_P7SEXPREC"
 "_ZN4Rcpp2asIfEET_P7SEXPREC"
 "_ZN4Rcpp2asIhEET_P7SEXPREC"
 "_ZN4Rcpp2asIiEET_P7SEXPREC"
 "_ZN4Rcpp2asIN4arma3ColIfEEEET_P7SEXPREC"
 "_ZN4Rcpp2asIN4arma3MatIfEEEET_P7SEXPREC"
 "_ZN4Rcpp2asIN4arma4CubeIdEEEET_P7SEXPREC"
 "_ZN4Rcpp2asIN4arma4CubeIiEEEET_P7SEXPREC"
 "_ZN4Rcpp2asINS_13Function_ImplINS_15PreserveStorageEEEEET_P7SEXPREC"
 "_ZN4Rcpp2asINS_6MatrixILi13ENS_15PreserveStorageEEEEET_P7SEXPREC"
 "_ZN4Rcpp2asINS_6MatrixILi14ENS_15PreserveStorageEEEEET_P7SEXPREC"
 "_ZN4Rcpp2asINS_6VectorILi10ENS_15PreserveStorageEEEEET_P7SEXPREC"
 "_ZN4Rcpp2asINS_6VectorILi13ENS_15PreserveStorageEEEEET_P7SEXPREC"
 "_ZN4Rcpp2asINS_6VectorILi14ENS_15PreserveStorageEEEEET_P7SEXPREC"
 "_ZN4Rcpp2asINS_6VectorILi16ENS_15PreserveStorageEEEEET_P7SEXPREC"
 "_ZN4Rcpp2asINS_6VectorILi19ENS_15PreserveStorageEEEEET_P7SEXPREC"
 "_ZN4Rcpp2asIR5ImageEET_P7SEXPREC"
 "_ZN4Rcpp2asISsEET_P7SEXPREC"
 "_ZN4Rcpp2asIyEET_P7SEXPREC"
 "_ZN4Rcpp3yesEPP7SEXPRECi"
 "_ZN4Rcpp4growEP7SEXPRECS1_"
 "_ZN4Rcpp4growEPKcP7SEXPREC"
 "_ZN4Rcpp4growINS_4XPtrI5ImageNS_15PreserveStorageEXadL_ZNS_25standard_delete_finalizerIS2_EEvPT_EELb0EEEEEP7SEXPRECRKS5_S9_"
 "_ZN4Rcpp4growISsEEP7SEXPRECRKT_S2_"
 "_ZN4Rcpp4stopERKSs"
 "_ZN4Rcpp4stopIIEEEvPKcDpOT_"
 "_ZN4Rcpp4stopIIRiiEEEvPKcDpOT_"
 "_ZN4Rcpp4wrapI5ImageEEP7SEXPRECRKT_"
 "_ZN4Rcpp4wrapIbEEP7SEXPRECRKT_"
 "_ZN4Rcpp4wrapIdEEP7SEXPRECRKN4arma3MatIT_EE"
 "_ZN4Rcpp4wrapIdEEP7SEXPRECRKN4arma4CubeIT_EE"
 "_ZN4Rcpp4wrapIdEEP7SEXPRECRKT_"
 "_ZN4Rcpp4wrapIfEEP7SEXPRECRKN4arma3MatIT_EE"
 "_ZN4Rcpp4wrapIiEEP7SEXPRECRKT_"
 "_ZN4Rcpp4wrapIN9__gnu_cxx17__normal_iteratorIPKiSt6vectorIiSaIiEEEEEEP7SEXPRECT_SB_"
 "_ZN4Rcpp4wrapINS_14DataFrame_ImplINS_15PreserveStorageEEEEEP7SEXPRECRKT_"
 "_ZN4Rcpp4wrapINS_17S4_CppConstructorI11VideoWriterEEEEP7SEXPRECRKT_"
 "_ZN4Rcpp4wrapINS_17S4_CppConstructorI5ImageEEEEP7SEXPRECRKT_"
 "_ZN4Rcpp4wrapINS_17S4_CppConstructorI5VideoEEEEP7SEXPRECRKT_"
 "_ZN4Rcpp4wrapINS_17S4_CppConstructorI6StreamEEEEP7SEXPRECRKT_"
 "_ZN4Rcpp4wrapINS_23S4_CppOverloadedMethodsI11VideoWriterEEEEP7SEXPRECRKT_"
 "_ZN4Rcpp4wrapINS_23S4_CppOverloadedMethodsI5ImageEEEEP7SEXPRECRKT_"
 "_ZN4Rcpp4wrapINS_23S4_CppOverloadedMethodsI5VideoEEEEP7SEXPRECRKT_"
 "_ZN4Rcpp4wrapINS_23S4_CppOverloadedMethodsI6StreamEEEEP7SEXPRECRKT_"
 "_ZN4Rcpp4wrapINS_4XPtrI5ImageNS_15PreserveStorageEXadL_ZNS_25standard_delete_finalizerIS2_EEvPT_EELb0EEEEEP7SEXPRECRKS5_"
 "_ZN4Rcpp4wrapINS_4XPtrINS_10class_BaseENS_15PreserveStorageEXadL_ZNS_25standard_delete_finalizerIS2_EEvPT_EELb0EEEEEP7SEXPRECRKS5_"
 "_ZN4Rcpp4wrapINS_4XPtrINS_11CppPropertyI11VideoWriterEENS_15PreserveStorageEXadL_ZNS_25standard_delete_finalizerIS4_EEvPT_EELb0EEEEEP7SEXPRECRKS7_"
 "_ZN4Rcpp4wrapINS_4XPtrINS_11CppPropertyI5ImageEENS_15PreserveStorageEXadL_ZNS_25standard_delete_finalizerIS4_EEvPT_EELb0EEEEEP7SEXPRECRKS7_"
 "_ZN4Rcpp4wrapINS_4XPtrINS_11CppPropertyI5VideoEENS_15PreserveStorageEXadL_ZNS_25standard_delete_finalizerIS4_EEvPT_EELb0EEEEEP7SEXPRECRKS7_"
 "_ZN4Rcpp4wrapINS_4XPtrINS_11CppPropertyI6StreamEENS_15PreserveStorageEXadL_ZNS_25standard_delete_finalizerIS4_EEvPT_EELb0EEEEEP7SEXPRECRKS7_"
 "_ZN4Rcpp4wrapINS_4XPtrINS_17SignedConstructorI11VideoWriterEENS_15PreserveStorageEXadL_ZNS_25standard_delete_finalizerIS4_EEvPT_EELb0EEEEEP7SEXPRECRKS7_"
 "_ZN4Rcpp4wrapINS_4XPtrINS_17SignedConstructorI5ImageEENS_15PreserveStorageEXadL_ZNS_25standard_delete_finalizerIS4_EEvPT_EELb0EEEEEP7SEXPRECRKS7_"
 "_ZN4Rcpp4wrapINS_4XPtrINS_17SignedConstructorI5VideoEENS_15PreserveStorageEXadL_ZNS_25standard_delete_finalizerIS4_EEvPT_EELb0EEEEEP7SEXPRECRKS7_"
 "_ZN4Rcpp4wrapINS_4XPtrINS_17SignedConstructorI6StreamEENS_15PreserveStorageEXadL_ZNS_25standard_delete_finalizerIS4_EEvPT_EELb0EEEEEP7SEXPRECRKS7_"
 "_ZN4Rcpp4wrapINS_4XPtrISt6vectorIPNS_12SignedMethodI11VideoWriterEESaIS6_EENS_15PreserveStorageEXadL_ZNS_25standard_delete_finalizerIS8_EEvPT_EELb0EEEEEP7SEXPRECRKSB_"
 "_ZN4Rcpp4wrapINS_4XPtrISt6vectorIPNS_12SignedMethodI5ImageEESaIS6_EENS_15PreserveStorageEXadL_ZNS_25standard_delete_finalizerIS8_EEvPT_EELb0EEEEEP7SEXPRECRKSB_"
 "_ZN4Rcpp4wrapINS_4XPtrISt6vectorIPNS_12SignedMethodI5VideoEESaIS6_EENS_15PreserveStorageEXadL_ZNS_25standard_delete_finalizerIS8_EEvPT_EELb0EEEEEP7SEXPRECRKSB_"
 "_ZN4Rcpp4wrapINS_4XPtrISt6vectorIPNS_12SignedMethodI6StreamEESaIS6_EENS_15PreserveStorageEXadL_ZNS_25standard_delete_finalizerIS8_EEvPT_EELb0EEEEEP7SEXPRECRKSB_"
 "_ZN4Rcpp4wrapINS_5sugar21Plus_Vector_PrimitiveILi14ELb1ENS_6VectorILi14ENS_15PreserveStorageEEEEEEEP7SEXPRECRKT_"
 "_ZN4Rcpp4wrapINS_5sugar21Plus_Vector_PrimitiveILi14ELb1ENS1_17UnaryMinus_VectorILi14ELb1ENS_6VectorILi14ENS_15PreserveStorageEEEEEEEEEP7SEXPRECRKT_"
 "_ZN4Rcpp4wrapINS_6MatrixILi14ENS_15PreserveStorageEEEEEP7SEXPRECRKT_"
 "_ZN4Rcpp4wrapINS_6ShieldIP7SEXPRECEEEES3_RKT_"
 "_ZN4Rcpp4wrapINS_6VectorILi10ENS_15PreserveStorageEEEEEP7SEXPRECRKT_"
 "_ZN4Rcpp4wrapINS_6VectorILi13ENS_15PreserveStorageEEEEEP7SEXPRECRKT_"
 "_ZN4Rcpp4wrapINS_6VectorILi14ENS_15PreserveStorageEEEEEP7SEXPRECRKT_"
 "_ZN4Rcpp4wrapINS_6VectorILi16ENS_15PreserveStorageEEEEEP7SEXPRECRKT_"
 "_ZN4Rcpp4wrapINS_6VectorILi19ENS_15PreserveStorageEEEEEP7SEXPRECRKT_"
 "_ZN4Rcpp4wrapINS_8S4_fieldI11VideoWriterEEEEP7SEXPRECRKT_"
 "_ZN4Rcpp4wrapINS_8S4_fieldI5ImageEEEEP7SEXPRECRKT_"
 "_ZN4Rcpp4wrapINS_8S4_fieldI5VideoEEEEP7SEXPRECRKT_"
 "_ZN4Rcpp4wrapINS_8S4_fieldI6StreamEEEEP7SEXPRECRKT_"
 "_ZN4Rcpp4wrapINS_9DimensionEEEP7SEXPRECRKT_"
 "_ZN4Rcpp4wrapIP7SEXPRECEES2_RKT_"
 "_ZN4Rcpp4wrapIPKdEEP7SEXPRECT_S5_"
 "_ZN4Rcpp4wrapIPKfEEP7SEXPRECT_S5_"
 "_ZN4Rcpp4wrapISsEEP7SEXPRECRKT_"
 "_ZN4Rcpp4XPtrI11VideoWriterNS_15PreserveStorageEXadL_ZNS_25standard_delete_finalizerIS1_EEvPT_EELb0EE18setDeleteFinalizerEv"
 "_ZN4Rcpp4XPtrI11VideoWriterNS_15PreserveStorageEXadL_ZNS_25standard_delete_finalizerIS1_EEvPT_EELb0EE6updateEP7SEXPREC"
 "_ZN4Rcpp4XPtrI11VideoWriterNS_15PreserveStorageEXadL_ZNS_25standard_delete_finalizerIS1_EEvPT_EELb0EEC1EP7SEXPREC"
 "_ZN4Rcpp4XPtrI11VideoWriterNS_15PreserveStorageEXadL_ZNS_25standard_delete_finalizerIS1_EEvPT_EELb0EEC1EPS1_bP7SEXPRECS9_"
 "_ZN4Rcpp4XPtrI11VideoWriterNS_15PreserveStorageEXadL_ZNS_25standard_delete_finalizerIS1_EEvPT_EELb0EEcvPS1_Ev"
 "_ZN4Rcpp4XPtrI11VideoWriterNS_15PreserveStorageEXadL_ZNS_25standard_delete_finalizerIS1_EEvPT_EELb0EED1Ev"
 "_ZN4Rcpp4XPtrI5ImageNS_15PreserveStorageEXadL_ZNS_25standard_delete_finalizerIS1_EEvPT_EELb0EE18setDeleteFinalizerEv"
 "_ZN4Rcpp4XPtrI5ImageNS_15PreserveStorageEXadL_ZNS_25standard_delete_finalizerIS1_EEvPT_EELb0EE6updateEP7SEXPREC"
 "_ZN4Rcpp4XPtrI5ImageNS_15PreserveStorageEXadL_ZNS_25standard_delete_finalizerIS1_EEvPT_EELb0EEC1EP7SEXPREC"
 "_ZN4Rcpp4XPtrI5ImageNS_15PreserveStorageEXadL_ZNS_25standard_delete_finalizerIS1_EEvPT_EELb0EEC1EPS1_bP7SEXPRECS9_"
 "_ZN4Rcpp4XPtrI5ImageNS_15PreserveStorageEXadL_ZNS_25standard_delete_finalizerIS1_EEvPT_EELb0EEcvPS1_Ev"
 "_ZN4Rcpp4XPtrI5ImageNS_15PreserveStorageEXadL_ZNS_25standard_delete_finalizerIS1_EEvPT_EELb0EED1Ev"
 "_ZN4Rcpp4XPtrI5VideoNS_15PreserveStorageEXadL_ZNS_25standard_delete_finalizerIS1_EEvPT_EELb0EE18setDeleteFinalizerEv"
 "_ZN4Rcpp4XPtrI5VideoNS_15PreserveStorageEXadL_ZNS_25standard_delete_finalizerIS1_EEvPT_EELb0EE6updateEP7SEXPREC"
 "_ZN4Rcpp4XPtrI5VideoNS_15PreserveStorageEXadL_ZNS_25standard_delete_finalizerIS1_EEvPT_EELb0EEC1EP7SEXPREC"
 "_ZN4Rcpp4XPtrI5VideoNS_15PreserveStorageEXadL_ZNS_25standard_delete_finalizerIS1_EEvPT_EELb0EEC1EPS1_bP7SEXPRECS9_"
 "_ZN4Rcpp4XPtrI5VideoNS_15PreserveStorageEXadL_ZNS_25standard_delete_finalizerIS1_EEvPT_EELb0EEcvPS1_Ev"
 "_ZN4Rcpp4XPtrI5VideoNS_15PreserveStorageEXadL_ZNS_25standard_delete_finalizerIS1_EEvPT_EELb0EED1Ev"
 "_ZN4Rcpp4XPtrI6StreamNS_15PreserveStorageEXadL_ZNS_25standard_delete_finalizerIS1_EEvPT_EELb0EE18setDeleteFinalizerEv"
 "_ZN4Rcpp4XPtrI6StreamNS_15PreserveStorageEXadL_ZNS_25standard_delete_finalizerIS1_EEvPT_EELb0EE6updateEP7SEXPREC"
 "_ZN4Rcpp4XPtrI6StreamNS_15PreserveStorageEXadL_ZNS_25standard_delete_finalizerIS1_EEvPT_EELb0EEC1EP7SEXPREC"
 "_ZN4Rcpp4XPtrI6StreamNS_15PreserveStorageEXadL_ZNS_25standard_delete_finalizerIS1_EEvPT_EELb0EEC1EPS1_bP7SEXPRECS9_"
 "_ZN4Rcpp4XPtrI6StreamNS_15PreserveStorageEXadL_ZNS_25standard_delete_finalizerIS1_EEvPT_EELb0EEcvPS1_Ev"
 "_ZN4Rcpp4XPtrI6StreamNS_15PreserveStorageEXadL_ZNS_25standard_delete_finalizerIS1_EEvPT_EELb0EED1Ev"
 "_ZN4Rcpp4XPtrINS_11CppPropertyI11VideoWriterEENS_15PreserveStorageEXadL_ZNS_25standard_delete_finalizerIS3_EEvPT_EELb0EE18setDeleteFinalizerEv"
 "_ZN4Rcpp4XPtrINS_11CppPropertyI11VideoWriterEENS_15PreserveStorageEXadL_ZNS_25standard_delete_finalizerIS3_EEvPT_EELb0EE6updateEP7SEXPREC"
 "_ZN4Rcpp4XPtrINS_11CppPropertyI11VideoWriterEENS_15PreserveStorageEXadL_ZNS_25standard_delete_finalizerIS3_EEvPT_EELb0EEC1EPS3_bP7SEXPRECSB_"
 "_ZN4Rcpp4XPtrINS_11CppPropertyI11VideoWriterEENS_15PreserveStorageEXadL_ZNS_25standard_delete_finalizerIS3_EEvPT_EELb0EED1Ev"
 "_ZN4Rcpp4XPtrINS_11CppPropertyI5ImageEENS_15PreserveStorageEXadL_ZNS_25standard_delete_finalizerIS3_EEvPT_EELb0EE18setDeleteFinalizerEv"
 "_ZN4Rcpp4XPtrINS_11CppPropertyI5ImageEENS_15PreserveStorageEXadL_ZNS_25standard_delete_finalizerIS3_EEvPT_EELb0EE6updateEP7SEXPREC"
 "_ZN4Rcpp4XPtrINS_11CppPropertyI5ImageEENS_15PreserveStorageEXadL_ZNS_25standard_delete_finalizerIS3_EEvPT_EELb0EEC1EPS3_bP7SEXPRECSB_"
 "_ZN4Rcpp4XPtrINS_11CppPropertyI5ImageEENS_15PreserveStorageEXadL_ZNS_25standard_delete_finalizerIS3_EEvPT_EELb0EED1Ev"
 "_ZN4Rcpp4XPtrINS_11CppPropertyI5VideoEENS_15PreserveStorageEXadL_ZNS_25standard_delete_finalizerIS3_EEvPT_EELb0EE18setDeleteFinalizerEv"
 "_ZN4Rcpp4XPtrINS_11CppPropertyI5VideoEENS_15PreserveStorageEXadL_ZNS_25standard_delete_finalizerIS3_EEvPT_EELb0EE6updateEP7SEXPREC"
 "_ZN4Rcpp4XPtrINS_11CppPropertyI5VideoEENS_15PreserveStorageEXadL_ZNS_25standard_delete_finalizerIS3_EEvPT_EELb0EEC1EPS3_bP7SEXPRECSB_"
 "_ZN4Rcpp4XPtrINS_11CppPropertyI5VideoEENS_15PreserveStorageEXadL_ZNS_25standard_delete_finalizerIS3_EEvPT_EELb0EED1Ev"
 "_ZN4Rcpp4XPtrINS_11CppPropertyI6StreamEENS_15PreserveStorageEXadL_ZNS_25standard_delete_finalizerIS3_EEvPT_EELb0EE18setDeleteFinalizerEv"
 "_ZN4Rcpp4XPtrINS_11CppPropertyI6StreamEENS_15PreserveStorageEXadL_ZNS_25standard_delete_finalizerIS3_EEvPT_EELb0EE6updateEP7SEXPREC"
 "_ZN4Rcpp4XPtrINS_11CppPropertyI6StreamEENS_15PreserveStorageEXadL_ZNS_25standard_delete_finalizerIS3_EEvPT_EELb0EEC1EPS3_bP7SEXPRECSB_"
 "_ZN4Rcpp4XPtrINS_11CppPropertyI6StreamEENS_15PreserveStorageEXadL_ZNS_25standard_delete_finalizerIS3_EEvPT_EELb0EED1Ev"
 "_ZN4Rcpp4XPtrINS_17SignedConstructorI11VideoWriterEENS_15PreserveStorageEXadL_ZNS_25standard_delete_finalizerIS3_EEvPT_EELb0EE18setDeleteFinalizerEv"
 "_ZN4Rcpp4XPtrINS_17SignedConstructorI11VideoWriterEENS_15PreserveStorageEXadL_ZNS_25standard_delete_finalizerIS3_EEvPT_EELb0EE6updateEP7SEXPREC"
 "_ZN4Rcpp4XPtrINS_17SignedConstructorI11VideoWriterEENS_15PreserveStorageEXadL_ZNS_25standard_delete_finalizerIS3_EEvPT_EELb0EEC1EPS3_bP7SEXPRECSB_"
 "_ZN4Rcpp4XPtrINS_17SignedConstructorI11VideoWriterEENS_15PreserveStorageEXadL_ZNS_25standard_delete_finalizerIS3_EEvPT_EELb0EED1Ev"
 "_ZN4Rcpp4XPtrINS_17SignedConstructorI5ImageEENS_15PreserveStorageEXadL_ZNS_25standard_delete_finalizerIS3_EEvPT_EELb0EE18setDeleteFinalizerEv"
 "_ZN4Rcpp4XPtrINS_17SignedConstructorI5ImageEENS_15PreserveStorageEXadL_ZNS_25standard_delete_finalizerIS3_EEvPT_EELb0EE6updateEP7SEXPREC"
 "_ZN4Rcpp4XPtrINS_17SignedConstructorI5ImageEENS_15PreserveStorageEXadL_ZNS_25standard_delete_finalizerIS3_EEvPT_EELb0EEC1EPS3_bP7SEXPRECSB_"
 "_ZN4Rcpp4XPtrINS_17SignedConstructorI5ImageEENS_15PreserveStorageEXadL_ZNS_25standard_delete_finalizerIS3_EEvPT_EELb0EED1Ev"
 "_ZN4Rcpp4XPtrINS_17SignedConstructorI5VideoEENS_15PreserveStorageEXadL_ZNS_25standard_delete_finalizerIS3_EEvPT_EELb0EE18setDeleteFinalizerEv"
 "_ZN4Rcpp4XPtrINS_17SignedConstructorI5VideoEENS_15PreserveStorageEXadL_ZNS_25standard_delete_finalizerIS3_EEvPT_EELb0EE6updateEP7SEXPREC"
 "_ZN4Rcpp4XPtrINS_17SignedConstructorI5VideoEENS_15PreserveStorageEXadL_ZNS_25standard_delete_finalizerIS3_EEvPT_EELb0EEC1EPS3_bP7SEXPRECSB_"
 "_ZN4Rcpp4XPtrINS_17SignedConstructorI5VideoEENS_15PreserveStorageEXadL_ZNS_25standard_delete_finalizerIS3_EEvPT_EELb0EED1Ev"
 "_ZN4Rcpp4XPtrINS_17SignedConstructorI6StreamEENS_15PreserveStorageEXadL_ZNS_25standard_delete_finalizerIS3_EEvPT_EELb0EE18setDeleteFinalizerEv"
 "_ZN4Rcpp4XPtrINS_17SignedConstructorI6StreamEENS_15PreserveStorageEXadL_ZNS_25standard_delete_finalizerIS3_EEvPT_EELb0EE6updateEP7SEXPREC"
 "_ZN4Rcpp4XPtrINS_17SignedConstructorI6StreamEENS_15PreserveStorageEXadL_ZNS_25standard_delete_finalizerIS3_EEvPT_EELb0EEC1EPS3_bP7SEXPRECSB_"
 "_ZN4Rcpp4XPtrINS_17SignedConstructorI6StreamEENS_15PreserveStorageEXadL_ZNS_25standard_delete_finalizerIS3_EEvPT_EELb0EED1Ev"
 "_ZN4Rcpp4XPtrINS_6ModuleENS_15PreserveStorageEXadL_ZNS_25standard_delete_finalizerIS1_EEvPT_EELb0EE18setDeleteFinalizerEv"
 "_ZN4Rcpp4XPtrINS_6ModuleENS_15PreserveStorageEXadL_ZNS_25standard_delete_finalizerIS1_EEvPT_EELb0EE6updateEP7SEXPREC"
 "_ZN4Rcpp4XPtrINS_6ModuleENS_15PreserveStorageEXadL_ZNS_25standard_delete_finalizerIS1_EEvPT_EELb0EEC1EPS1_bP7SEXPRECS9_"
 "_ZN4Rcpp4XPtrINS_6ModuleENS_15PreserveStorageEXadL_ZNS_25standard_delete_finalizerIS1_EEvPT_EELb0EED1Ev"
 "_ZN4Rcpp4XPtrISt6vectorIPNS_12SignedMethodI11VideoWriterEESaIS5_EENS_15PreserveStorageEXadL_ZNS_25standard_delete_finalizerIS7_EEvPT_EELb0EE18setDeleteFinalizerEv"
 "_ZN4Rcpp4XPtrISt6vectorIPNS_12SignedMethodI11VideoWriterEESaIS5_EENS_15PreserveStorageEXadL_ZNS_25standard_delete_finalizerIS7_EEvPT_EELb0EE6updateEP7SEXPREC"
 "_ZN4Rcpp4XPtrISt6vectorIPNS_12SignedMethodI11VideoWriterEESaIS5_EENS_15PreserveStorageEXadL_ZNS_25standard_delete_finalizerIS7_EEvPT_EELb0EEC1EPS7_bP7SEXPRECSF_"
 "_ZN4Rcpp4XPtrISt6vectorIPNS_12SignedMethodI11VideoWriterEESaIS5_EENS_15PreserveStorageEXadL_ZNS_25standard_delete_finalizerIS7_EEvPT_EELb0EED1Ev"
 "_ZN4Rcpp4XPtrISt6vectorIPNS_12SignedMethodI5ImageEESaIS5_EENS_15PreserveStorageEXadL_ZNS_25standard_delete_finalizerIS7_EEvPT_EELb0EE18setDeleteFinalizerEv"
 "_ZN4Rcpp4XPtrISt6vectorIPNS_12SignedMethodI5ImageEESaIS5_EENS_15PreserveStorageEXadL_ZNS_25standard_delete_finalizerIS7_EEvPT_EELb0EE6updateEP7SEXPREC"
 "_ZN4Rcpp4XPtrISt6vectorIPNS_12SignedMethodI5ImageEESaIS5_EENS_15PreserveStorageEXadL_ZNS_25standard_delete_finalizerIS7_EEvPT_EELb0EEC1EPS7_bP7SEXPRECSF_"
 "_ZN4Rcpp4XPtrISt6vectorIPNS_12SignedMethodI5ImageEESaIS5_EENS_15PreserveStorageEXadL_ZNS_25standard_delete_finalizerIS7_EEvPT_EELb0EED1Ev"
 "_ZN4Rcpp4XPtrISt6vectorIPNS_12SignedMethodI5VideoEESaIS5_EENS_15PreserveStorageEXadL_ZNS_25standard_delete_finalizerIS7_EEvPT_EELb0EE18setDeleteFinalizerEv"
 "_ZN4Rcpp4XPtrISt6vectorIPNS_12SignedMethodI5VideoEESaIS5_EENS_15PreserveStorageEXadL_ZNS_25standard_delete_finalizerIS7_EEvPT_EELb0EE6updateEP7SEXPREC"
 "_ZN4Rcpp4XPtrISt6vectorIPNS_12SignedMethodI5VideoEESaIS5_EENS_15PreserveStorageEXadL_ZNS_25standard_delete_finalizerIS7_EEvPT_EELb0EEC1EPS7_bP7SEXPRECSF_"
 "_ZN4Rcpp4XPtrISt6vectorIPNS_12SignedMethodI5VideoEESaIS5_EENS_15PreserveStorageEXadL_ZNS_25standard_delete_finalizerIS7_EEvPT_EELb0EED1Ev"
 "_ZN4Rcpp4XPtrISt6vectorIPNS_12SignedMethodI6StreamEESaIS5_EENS_15PreserveStorageEXadL_ZNS_25standard_delete_finalizerIS7_EEvPT_EELb0EE18setDeleteFinalizerEv"
 "_ZN4Rcpp4XPtrISt6vectorIPNS_12SignedMethodI6StreamEESaIS5_EENS_15PreserveStorageEXadL_ZNS_25standard_delete_finalizerIS7_EEvPT_EELb0EE6updateEP7SEXPREC"
 "_ZN4Rcpp4XPtrISt6vectorIPNS_12SignedMethodI6StreamEESaIS5_EENS_15PreserveStorageEXadL_ZNS_25standard_delete_finalizerIS7_EEvPT_EELb0EEC1EPS7_bP7SEXPRECSF_"
 "_ZN4Rcpp4XPtrISt6vectorIPNS_12SignedMethodI6StreamEESaIS5_EENS_15PreserveStorageEXadL_ZNS_25standard_delete_finalizerIS7_EEvPT_EELb0EED1Ev"
 "_ZN4Rcpp5ArmorIP7SEXPRECE4initES2_"
 "_ZN4Rcpp5ArmorIP7SEXPRECEaSIS2_EERS3_RKT_"
 "_ZN4Rcpp5ArmorIP7SEXPRECEC1Ev"
 "_ZN4Rcpp5ArmorIP7SEXPRECED1Ev"
 "_ZN4Rcpp5NamedERKSs"
 "_ZN4Rcpp5sugar17UnaryMinus_VectorILi14ELb1ENS_6VectorILi14ENS_15PreserveStorageEEEEC1ERKNS_10VectorBaseILi14ELb1ES4_EE"
 "_ZN4Rcpp5sugar21Plus_Vector_PrimitiveILi14ELb1ENS_6VectorILi14ENS_15PreserveStorageEEEEC1ERKNS_10VectorBaseILi14ELb1ES4_EEd"
 "_ZN4Rcpp5sugar21Plus_Vector_PrimitiveILi14ELb1ENS0_17UnaryMinus_VectorILi14ELb1ENS_6VectorILi14ENS_15PreserveStorageEEEEEEC1ERKNS_10VectorBaseILi14ELb1ES6_EEd"
 "_ZN4Rcpp6class_I11VideoWriterE10getMethodsERKNS_4XPtrINS_10class_BaseENS_15PreserveStorageEXadL_ZNS_25standard_delete_finalizerIS4_EEvPT_EELb0EEERSs"
 "_ZN4Rcpp6class_I11VideoWriterE10has_methodERKSs"
 "_ZN4Rcpp6class_I11VideoWriterE11constructorEPKcPFbPP7SEXPRECiE"
 "_ZN4Rcpp6class_I11VideoWriterE11constructorISsSsdiibSsEERS2_PKcPFbPP7SEXPRECiE"
 "_ZN4Rcpp6class_I11VideoWriterE11getPropertyEP7SEXPRECS4_"
 "_ZN4Rcpp6class_I11VideoWriterE11invoke_voidEP7SEXPRECS4_PS4_i"
 "_ZN4Rcpp6class_I11VideoWriterE11newInstanceEPP7SEXPRECi"
 "_ZN4Rcpp6class_I11VideoWriterE11setPropertyEP7SEXPRECS4_S4_"
 "_ZN4Rcpp6class_I11VideoWriterE12get_instanceEv"
 "_ZN4Rcpp6class_I11VideoWriterE12has_propertyERKSs"
 "_ZN4Rcpp6class_I11VideoWriterE12method_namesEv"
 "_ZN4Rcpp6class_I11VideoWriterE13methods_arityEv"
 "_ZN4Rcpp6class_I11VideoWriterE13run_finalizerEP7SEXPREC"
 "_ZN4Rcpp6class_I11VideoWriterE14AddConstructorEPNS_16Constructor_BaseIS1_EEPFbPP7SEXPRECiEPKc"
 "_ZN4Rcpp6class_I11VideoWriterE14invoke_notvoidEP7SEXPRECS4_PS4_i"
 "_ZN4Rcpp6class_I11VideoWriterE14property_classERKSs"
 "_ZN4Rcpp6class_I11VideoWriterE14property_namesEv"
 "_ZN4Rcpp6class_I11VideoWriterE15getConstructorsERKNS_4XPtrINS_10class_BaseENS_15PreserveStorageEXadL_ZNS_25standard_delete_finalizerIS4_EEvPT_EELb0EEERSs"
 "_ZN4Rcpp6class_I11VideoWriterE16methods_voidnessEv"
 "_ZN4Rcpp6class_I11VideoWriterE16property_classesEv"
 "_ZN4Rcpp6class_I11VideoWriterE17get_typeinfo_nameEv"
 "_ZN4Rcpp6class_I11VideoWriterE20property_is_readonlyERKSs"
 "_ZN4Rcpp6class_I11VideoWriterE23has_default_constructorEv"
 "_ZN4Rcpp6class_I11VideoWriterE6fieldsERKNS_4XPtrINS_10class_BaseENS_15PreserveStorageEXadL_ZNS_25standard_delete_finalizerIS4_EEvPT_EELb0EEE"
 "_ZN4Rcpp6class_I11VideoWriterE6invokeEP7SEXPRECS4_PS4_i"
 "_ZN4Rcpp6class_I11VideoWriterE6methodIbEERS2_PKcMS1_FT_vES6_PFbPP7SEXPRECiE"
 "_ZN4Rcpp6class_I11VideoWriterE6methodIbSsdEERS2_PKcMS1_FT_T0_T1_ES6_PFbPP7SEXPRECiE"
 "_ZN4Rcpp6class_I11VideoWriterE6methodIbSsSsdiibSsEERS2_PKcMS1_FT_T0_T1_T2_T3_T4_T5_T6_ES6_PFbPP7SEXPRECiE"
 "_ZN4Rcpp6class_I11VideoWriterE6methodIdEERS2_PKcMS1_FT_vES6_PFbPP7SEXPRECiE"
 "_ZN4Rcpp6class_I11VideoWriterE6methodIdSsEERS2_PKcMS1_FT_T0_ES6_PFbPP7SEXPRECiE"
 "_ZN4Rcpp6class_I11VideoWriterE6methodIiEERS2_PKcMS1_FT_vES6_PFbPP7SEXPRECiE"
 "_ZN4Rcpp6class_I11VideoWriterE6methodINS_6VectorILi14ENS_15PreserveStorageEEEEERS2_PKcMS1_FT_vES9_PFbPP7SEXPRECiE"
 "_ZN4Rcpp6class_I11VideoWriterE6methodISsEERS2_PKcMS1_FT_vES6_PFbPP7SEXPRECiE"
 "_ZN4Rcpp6class_I11VideoWriterE6methodIv5ImageEERS2_PKcMS1_FT_T0_ES7_PFbPP7SEXPRECiE"
 "_ZN4Rcpp6class_I11VideoWriterE6methodIvEERS2_PKcMS1_FT_vES6_PFbPP7SEXPRECiE"
 "_ZN4Rcpp6class_I11VideoWriterE8completeEv"
 "_ZN4Rcpp6class_I11VideoWriterE9AddMethodEPKcPNS_9CppMethodIS1_EEPFbPP7SEXPRECiES4_"
 "_ZN4Rcpp6class_I11VideoWriterEC1EPKcS4_"
 "_ZN4Rcpp6class_I11VideoWriterEC1Ev"
 "_ZN4Rcpp6class_I11VideoWriterED0Ev"
 "_ZN4Rcpp6class_I11VideoWriterED1Ev"
 "_ZN4Rcpp6class_I5ImageE10getMethodsERKNS_4XPtrINS_10class_BaseENS_15PreserveStorageEXadL_ZNS_25standard_delete_finalizerIS4_EEvPT_EELb0EEERSs"
 "_ZN4Rcpp6class_I5ImageE10has_methodERKSs"
 "_ZN4Rcpp6class_I5ImageE11constructorEPKcPFbPP7SEXPRECiE"
 "_ZN4Rcpp6class_I5ImageE11constructorIN4arma4CubeIdEEEERS2_PKcPFbPP7SEXPRECiE"
 "_ZN4Rcpp6class_I5ImageE11constructorIN4arma4CubeIiEEEERS2_PKcPFbPP7SEXPRECiE"
 "_ZN4Rcpp6class_I5ImageE11constructorISsEERS2_PKcPFbPP7SEXPRECiE"
 "_ZN4Rcpp6class_I5ImageE11getPropertyEP7SEXPRECS4_"
 "_ZN4Rcpp6class_I5ImageE11invoke_voidEP7SEXPRECS4_PS4_i"
 "_ZN4Rcpp6class_I5ImageE11newInstanceEPP7SEXPRECi"
 "_ZN4Rcpp6class_I5ImageE11setPropertyEP7SEXPRECS4_S4_"
 "_ZN4Rcpp6class_I5ImageE12get_instanceEv"
 "_ZN4Rcpp6class_I5ImageE12has_propertyERKSs"
 "_ZN4Rcpp6class_I5ImageE12method_namesEv"
 "_ZN4Rcpp6class_I5ImageE13methods_arityEv"
 "_ZN4Rcpp6class_I5ImageE13run_finalizerEP7SEXPREC"
 "_ZN4Rcpp6class_I5ImageE14AddConstructorEPNS_16Constructor_BaseIS1_EEPFbPP7SEXPRECiEPKc"
 "_ZN4Rcpp6class_I5ImageE14invoke_notvoidEP7SEXPRECS4_PS4_i"
 "_ZN4Rcpp6class_I5ImageE14property_classERKSs"
 "_ZN4Rcpp6class_I5ImageE14property_namesEv"
 "_ZN4Rcpp6class_I5ImageE15getConstructorsERKNS_4XPtrINS_10class_BaseENS_15PreserveStorageEXadL_ZNS_25standard_delete_finalizerIS4_EEvPT_EELb0EEERSs"
 "_ZN4Rcpp6class_I5ImageE16methods_voidnessEv"
 "_ZN4Rcpp6class_I5ImageE16property_classesEv"
 "_ZN4Rcpp6class_I5ImageE17get_typeinfo_nameEv"
 "_ZN4Rcpp6class_I5ImageE20property_is_readonlyERKSs"
 "_ZN4Rcpp6class_I5ImageE23has_default_constructorEv"
 "_ZN4Rcpp6class_I5ImageE6fieldsERKNS_4XPtrINS_10class_BaseENS_15PreserveStorageEXadL_ZNS_25standard_delete_finalizerIS4_EEvPT_EELb0EEE"
 "_ZN4Rcpp6class_I5ImageE6invokeEP7SEXPRECS4_PS4_i"
 "_ZN4Rcpp6class_I5ImageE6methodIbN4arma4CubeIdEEEERS2_PKcMS1_FT_T0_ES9_PFbPP7SEXPRECiE"
 "_ZN4Rcpp6class_I5ImageE6methodIbSsEERS2_PKcMS1_FT_T0_ES6_PFbPP7SEXPRECiE"
 "_ZN4Rcpp6class_I5ImageE6methodIiEERS2_PKcMS1_FT_vES6_PFbPP7SEXPRECiE"
 "_ZN4Rcpp6class_I5ImageE6methodIN4arma4CubeIdEEEERS2_PKcMS1_FT_vES9_PFbPP7SEXPRECiE"
 "_ZN4Rcpp6class_I5ImageE6methodINS_6MatrixILi14ENS_15PreserveStorageEEENS_6VectorILi13ES5_EES8_EERS2_PKcMS1_FT_T0_T1_ESB_PFbPP7SEXPRECiE"
 "_ZN4Rcpp6class_I5ImageE6methodINS_6VectorILi14ENS_15PreserveStorageEEEEERS2_PKcMS1_FT_vES9_PFbPP7SEXPRECiE"
 "_ZN4Rcpp6class_I5ImageE6methodISsEERS2_PKcMS1_FT_vES6_PFbPP7SEXPRECiE"
 "_ZN4Rcpp6class_I5ImageE6methodIviEERS2_PKcMS1_FT_T0_ES6_PFbPP7SEXPRECiE"
 "_ZN4Rcpp6class_I5ImageE6methodIvNS_6VectorILi13ENS_15PreserveStorageEEES6_NS_6MatrixILi13ES5_EEEERS2_PKcMS1_FT_T0_T1_T2_ESB_PFbPP7SEXPRECiE"
 "_ZN4Rcpp6class_I5ImageE6methodIvSsEERS2_PKcMS1_FT_T0_ES6_PFbPP7SEXPRECiE"
 "_ZN4Rcpp6class_I5ImageE8completeEv"
 "_ZN4Rcpp6class_I5ImageE9AddMethodEPKcPNS_9CppMethodIS1_EEPFbPP7SEXPRECiES4_"
 "_ZN4Rcpp6class_I5ImageEC1EPKcS4_"
 "_ZN4Rcpp6class_I5ImageEC1Ev"
 "_ZN4Rcpp6class_I5ImageED0Ev"
 "_ZN4Rcpp6class_I5ImageED1Ev"
 "_ZN4Rcpp6class_I5VideoE10getMethodsERKNS_4XPtrINS_10class_BaseENS_15PreserveStorageEXadL_ZNS_25standard_delete_finalizerIS4_EEvPT_EELb0EEERSs"
 "_ZN4Rcpp6class_I5VideoE10has_methodERKSs"
 "_ZN4Rcpp6class_I5VideoE11constructorEPKcPFbPP7SEXPRECiE"
 "_ZN4Rcpp6class_I5VideoE11constructorISsSsEERS2_PKcPFbPP7SEXPRECiE"
 "_ZN4Rcpp6class_I5VideoE11getPropertyEP7SEXPRECS4_"
 "_ZN4Rcpp6class_I5VideoE11invoke_voidEP7SEXPRECS4_PS4_i"
 "_ZN4Rcpp6class_I5VideoE11newInstanceEPP7SEXPRECi"
 "_ZN4Rcpp6class_I5VideoE11setPropertyEP7SEXPRECS4_S4_"
 "_ZN4Rcpp6class_I5VideoE12get_instanceEv"
 "_ZN4Rcpp6class_I5VideoE12has_propertyERKSs"
 "_ZN4Rcpp6class_I5VideoE12method_namesEv"
 "_ZN4Rcpp6class_I5VideoE13methods_arityEv"
 "_ZN4Rcpp6class_I5VideoE13run_finalizerEP7SEXPREC"
 "_ZN4Rcpp6class_I5VideoE14AddConstructorEPNS_16Constructor_BaseIS1_EEPFbPP7SEXPRECiEPKc"
 "_ZN4Rcpp6class_I5VideoE14invoke_notvoidEP7SEXPRECS4_PS4_i"
 "_ZN4Rcpp6class_I5VideoE14property_classERKSs"
 "_ZN4Rcpp6class_I5VideoE14property_namesEv"
 "_ZN4Rcpp6class_I5VideoE15getConstructorsERKNS_4XPtrINS_10class_BaseENS_15PreserveStorageEXadL_ZNS_25standard_delete_finalizerIS4_EEvPT_EELb0EEERSs"
 "_ZN4Rcpp6class_I5VideoE16methods_voidnessEv"
 "_ZN4Rcpp6class_I5VideoE16property_classesEv"
 "_ZN4Rcpp6class_I5VideoE17get_typeinfo_nameEv"
 "_ZN4Rcpp6class_I5VideoE20property_is_readonlyERKSs"
 "_ZN4Rcpp6class_I5VideoE23has_default_constructorEv"
 "_ZN4Rcpp6class_I5VideoE6fieldsERKNS_4XPtrINS_10class_BaseENS_15PreserveStorageEXadL_ZNS_25standard_delete_finalizerIS4_EEvPT_EELb0EEE"
 "_ZN4Rcpp6class_I5VideoE6invokeEP7SEXPRECS4_PS4_i"
 "_ZN4Rcpp6class_I5VideoE6methodI5ImageEERS2_PKcMS1_FT_vES7_PFbPP7SEXPRECiE"
 "_ZN4Rcpp6class_I5VideoE6methodI5ImageiEERS2_PKcMS1_FT_T0_ES7_PFbPP7SEXPRECiE"
 "_ZN4Rcpp6class_I5VideoE6methodIbEERS2_PKcMS1_FT_vES6_PFbPP7SEXPRECiE"
 "_ZN4Rcpp6class_I5VideoE6methodIbSsdEERS2_PKcMS1_FT_T0_T1_ES6_PFbPP7SEXPRECiE"
 "_ZN4Rcpp6class_I5VideoE6methodIbSsSsEERS2_PKcMS1_FT_T0_T1_ES6_PFbPP7SEXPRECiE"
 "_ZN4Rcpp6class_I5VideoE6methodIdEERS2_PKcMS1_FT_vES6_PFbPP7SEXPRECiE"
 "_ZN4Rcpp6class_I5VideoE6methodIdSsEERS2_PKcMS1_FT_T0_ES6_PFbPP7SEXPRECiE"
 "_ZN4Rcpp6class_I5VideoE6methodIiEERS2_PKcMS1_FT_vES6_PFbPP7SEXPRECiE"
 "_ZN4Rcpp6class_I5VideoE6methodINS_6VectorILi14ENS_15PreserveStorageEEEEERS2_PKcMS1_FT_vES9_PFbPP7SEXPRECiE"
 "_ZN4Rcpp6class_I5VideoE6methodISsEERS2_PKcMS1_FT_vES6_PFbPP7SEXPRECiE"
 "_ZN4Rcpp6class_I5VideoE6methodIvEERS2_PKcMS1_FT_vES6_PFbPP7SEXPRECiE"
 "_ZN4Rcpp6class_I5VideoE8completeEv"
 "_ZN4Rcpp6class_I5VideoE9AddMethodEPKcPNS_9CppMethodIS1_EEPFbPP7SEXPRECiES4_"
 "_ZN4Rcpp6class_I5VideoEC1EPKcS4_"
 "_ZN4Rcpp6class_I5VideoEC1Ev"
 "_ZN4Rcpp6class_I5VideoED0Ev"
 "_ZN4Rcpp6class_I5VideoED1Ev"
 "_ZN4Rcpp6class_I6StreamE10getMethodsERKNS_4XPtrINS_10class_BaseENS_15PreserveStorageEXadL_ZNS_25standard_delete_finalizerIS4_EEvPT_EELb0EEERSs"
 "_ZN4Rcpp6class_I6StreamE10has_methodERKSs"
 "_ZN4Rcpp6class_I6StreamE11constructorEPKcPFbPP7SEXPRECiE"
 "_ZN4Rcpp6class_I6StreamE11constructorIiSsEERS2_PKcPFbPP7SEXPRECiE"
 "_ZN4Rcpp6class_I6StreamE11getPropertyEP7SEXPRECS4_"
 "_ZN4Rcpp6class_I6StreamE11invoke_voidEP7SEXPRECS4_PS4_i"
 "_ZN4Rcpp6class_I6StreamE11newInstanceEPP7SEXPRECi"
 "_ZN4Rcpp6class_I6StreamE11setPropertyEP7SEXPRECS4_S4_"
 "_ZN4Rcpp6class_I6StreamE12get_instanceEv"
 "_ZN4Rcpp6class_I6StreamE12has_propertyERKSs"
 "_ZN4Rcpp6class_I6StreamE12method_namesEv"
 "_ZN4Rcpp6class_I6StreamE13methods_arityEv"
 "_ZN4Rcpp6class_I6StreamE13run_finalizerEP7SEXPREC"
 "_ZN4Rcpp6class_I6StreamE14AddConstructorEPNS_16Constructor_BaseIS1_EEPFbPP7SEXPRECiEPKc"
 "_ZN4Rcpp6class_I6StreamE14invoke_notvoidEP7SEXPRECS4_PS4_i"
 "_ZN4Rcpp6class_I6StreamE14property_classERKSs"
 "_ZN4Rcpp6class_I6StreamE14property_namesEv"
 "_ZN4Rcpp6class_I6StreamE15getConstructorsERKNS_4XPtrINS_10class_BaseENS_15PreserveStorageEXadL_ZNS_25standard_delete_finalizerIS4_EEvPT_EELb0EEERSs"
 "_ZN4Rcpp6class_I6StreamE16methods_voidnessEv"
 "_ZN4Rcpp6class_I6StreamE16property_classesEv"
 "_ZN4Rcpp6class_I6StreamE17get_typeinfo_nameEv"
 "_ZN4Rcpp6class_I6StreamE20property_is_readonlyERKSs"
 "_ZN4Rcpp6class_I6StreamE23has_default_constructorEv"
 "_ZN4Rcpp6class_I6StreamE6fieldsERKNS_4XPtrINS_10class_BaseENS_15PreserveStorageEXadL_ZNS_25standard_delete_finalizerIS4_EEvPT_EELb0EEE"
 "_ZN4Rcpp6class_I6StreamE6invokeEP7SEXPRECS4_PS4_i"
 "_ZN4Rcpp6class_I6StreamE6methodI5ImageEERS2_PKcMS1_FT_vES7_PFbPP7SEXPRECiE"
 "_ZN4Rcpp6class_I6StreamE6methodIbEERS2_PKcMS1_FT_vES6_PFbPP7SEXPRECiE"
 "_ZN4Rcpp6class_I6StreamE6methodIbiSsEERS2_PKcMS1_FT_T0_T1_ES6_PFbPP7SEXPRECiE"
 "_ZN4Rcpp6class_I6StreamE6methodIbSsdEERS2_PKcMS1_FT_T0_T1_ES6_PFbPP7SEXPRECiE"
 "_ZN4Rcpp6class_I6StreamE6methodIdSsEERS2_PKcMS1_FT_T0_ES6_PFbPP7SEXPRECiE"
 "_ZN4Rcpp6class_I6StreamE6methodIiEERS2_PKcMS1_FT_vES6_PFbPP7SEXPRECiE"
 "_ZN4Rcpp6class_I6StreamE6methodINS_6VectorILi14ENS_15PreserveStorageEEEEERS2_PKcMS1_FT_vES9_PFbPP7SEXPRECiE"
 "_ZN4Rcpp6class_I6StreamE6methodIvEERS2_PKcMS1_FT_vES6_PFbPP7SEXPRECiE"
 "_ZN4Rcpp6class_I6StreamE8completeEv"
 "_ZN4Rcpp6class_I6StreamE9AddMethodEPKcPNS_9CppMethodIS1_EEPFbPP7SEXPRECiES4_"
 "_ZN4Rcpp6class_I6StreamEC1EPKcS4_"
 "_ZN4Rcpp6class_I6StreamEC1Ev"
 "_ZN4Rcpp6class_I6StreamED0Ev"
 "_ZN4Rcpp6class_I6StreamED1Ev"
 "_ZN4Rcpp6MatrixILi13ENS_15PreserveStorageEE5beginEv"
 "_ZN4Rcpp6MatrixILi13ENS_15PreserveStorageEEC1EP7SEXPREC"
 "_ZN4Rcpp6MatrixILi13ENS_15PreserveStorageEEC1ERKS2_"
 "_ZN4Rcpp6MatrixILi13ENS_15PreserveStorageEEclENS_8internal16NamedPlaceHolderEi"
 "_ZN4Rcpp6MatrixILi13ENS_15PreserveStorageEEclERKyS4_"
 "_ZN4Rcpp6MatrixILi13ENS_15PreserveStorageEED1Ev"
 "_ZN4Rcpp6MatrixILi14ENS_15PreserveStorageEE5beginEv"
 "_ZN4Rcpp6MatrixILi14ENS_15PreserveStorageEEC1EP7SEXPREC"
 "_ZN4Rcpp6MatrixILi14ENS_15PreserveStorageEEC1ERKiS4_"
 "_ZN4Rcpp6MatrixILi14ENS_15PreserveStorageEEC1ERKS2_"
 "_ZN4Rcpp6MatrixILi14ENS_15PreserveStorageEEclENS_8internal16NamedPlaceHolderEi"
 "_ZN4Rcpp6MatrixILi14ENS_15PreserveStorageEEclERKyS4_"
 "_ZN4Rcpp6MatrixILi14ENS_15PreserveStorageEED1Ev"
 "_ZN4Rcpp6Module17get_class_pointerERKSs"
 "_ZN4Rcpp6Module3AddEPKcPNS_11CppFunctionE"
 "_ZN4Rcpp6Module8AddClassEPKcPNS_10class_BaseE"
 "_ZN4Rcpp6Module9has_classERKSs"
 "_ZN4Rcpp6ModuleC1EPKc"
 "_ZN4Rcpp6ModuleD1Ev"
 "_ZN4Rcpp6objectI5ImageEC1EPS1_"
 "_ZN4Rcpp6objectI5ImageEcvPS1_Ev"
 "_ZN4Rcpp6r_castILi10EEEP7SEXPRECS2_"
 "_ZN4Rcpp6r_castILi13EEEP7SEXPRECS2_"
 "_ZN4Rcpp6r_castILi14EEEP7SEXPRECS2_"
 "_ZN4Rcpp6r_castILi16EEEP7SEXPRECS2_"
 "_ZN4Rcpp6r_castILi19EEEP7SEXPRECS2_"
 "_ZN4Rcpp6r_castILi24EEEP7SEXPRECS2_"
 "_ZN4Rcpp6ShieldIP7SEXPRECEC1ES2_"
 "_ZN4Rcpp6ShieldIP7SEXPRECED1Ev"
 "_ZN4Rcpp6traits11proxy_cacheILi16ENS_15PreserveStorageEE3refEx"
 "_ZN4Rcpp6traits11proxy_cacheILi16ENS_15PreserveStorageEE6updateERKNS_6VectorILi16ES2_EE"
 "_ZN4Rcpp6traits11proxy_cacheILi16ENS_15PreserveStorageEEC1Ev"
 "_ZN4Rcpp6traits11proxy_cacheILi16ENS_15PreserveStorageEED1Ev"
 "_ZN4Rcpp6traits11proxy_cacheILi19ENS_15PreserveStorageEE3refEx"
 "_ZN4Rcpp6traits11proxy_cacheILi19ENS_15PreserveStorageEE6updateERKNS_6VectorILi19ES2_EE"
 "_ZN4Rcpp6traits11proxy_cacheILi19ENS_15PreserveStorageEEC1Ev"
 "_ZN4Rcpp6traits11proxy_cacheILi19ENS_15PreserveStorageEED1Ev"
 "_ZN4Rcpp6traits12named_objectI5ImageEC1ERKSsRKS2_"
 "_ZN4Rcpp6traits12named_objectIiEC1ERKSsRKi"
 "_ZN4Rcpp6traits12named_objectINS_14DataFrame_ImplINS_15PreserveStorageEEEEC1ERKSsRKS4_"
 "_ZN4Rcpp6traits12named_objectINS_5sugar21Plus_Vector_PrimitiveILi14ELb1ENS_6VectorILi14ENS_15PreserveStorageEEEEEEC1ERKSsRKS7_"
 "_ZN4Rcpp6traits12named_objectINS_5sugar21Plus_Vector_PrimitiveILi14ELb1ENS2_17UnaryMinus_VectorILi14ELb1ENS_6VectorILi14ENS_15PreserveStorageEEEEEEEEC1ERKSsRKS9_"
 "_ZN4Rcpp6traits12named_objectINS_6VectorILi13ENS_15PreserveStorageEEEEC1ERKSsRKS4_"
 "_ZN4Rcpp6traits12named_objectINS_6VectorILi14ENS_15PreserveStorageEEEEC1ERKSsRKS4_"
 "_ZN4Rcpp6traits14MatrixExporterIN4arma3MatIfEEfE3getEv"
 "_ZN4Rcpp6traits14MatrixExporterIN4arma3MatIfEEfEC2EP7SEXPREC"
 "_ZN4Rcpp6traits14MatrixExporterIN4arma3MatIfEEfED2Ev"
 "_ZN4Rcpp6traits14r_vector_cacheILi10ENS_15PreserveStorageEE3refEx"
 "_ZN4Rcpp6traits14r_vector_cacheILi10ENS_15PreserveStorageEE6updateERKNS_6VectorILi10ES2_EE"
 "_ZN4Rcpp6traits14r_vector_cacheILi10ENS_15PreserveStorageEEC1Ev"
 "_ZN4Rcpp6traits14r_vector_cacheILi13ENS_15PreserveStorageEE3refEx"
 "_ZN4Rcpp6traits14r_vector_cacheILi13ENS_15PreserveStorageEE6updateERKNS_6VectorILi13ES2_EE"
 "_ZN4Rcpp6traits14r_vector_cacheILi13ENS_15PreserveStorageEEC1Ev"
 "_ZN4Rcpp6traits14r_vector_cacheILi14ENS_15PreserveStorageEE3refEx"
 "_ZN4Rcpp6traits14r_vector_cacheILi14ENS_15PreserveStorageEE6updateERKNS_6VectorILi14ES2_EE"
 "_ZN4Rcpp6traits14r_vector_cacheILi14ENS_15PreserveStorageEEC1Ev"
 "_ZN4Rcpp6traits16IndexingExporterIN4arma3ColIfEEfE3getEv"
 "_ZN4Rcpp6traits16IndexingExporterIN4arma3ColIfEEfEC2EP7SEXPREC"
 "_ZN4Rcpp6traits16IndexingExporterIN4arma3ColIfEEfED2Ev"
 "_ZN4Rcpp6traits24expands_to_logical__implILi10EEC2Ev"
 "_ZN4Rcpp6traits24expands_to_logical__implILi13EEC2Ev"
 "_ZN4Rcpp6traits24expands_to_logical__implILi14EEC2Ev"
 "_ZN4Rcpp6traits24expands_to_logical__implILi16EEC2Ev"
 "_ZN4Rcpp6traits24expands_to_logical__implILi19EEC2Ev"
 "_ZN4Rcpp6traits5is_naILi14EEEbNS0_12storage_typeIXT_EE4typeE"
 "_ZN4Rcpp6traits8ExporterIN4arma3ColIfEEEC1EP7SEXPREC"
 "_ZN4Rcpp6traits8ExporterIN4arma3ColIfEEED1Ev"
 "_ZN4Rcpp6traits8ExporterIN4arma3MatIfEEEC1EP7SEXPREC"
 "_ZN4Rcpp6traits8ExporterIN4arma3MatIfEEED1Ev"
 "_ZN4Rcpp6traits8ExporterIN4arma4CubeIdEEE3getEv"
 "_ZN4Rcpp6traits8ExporterIN4arma4CubeIdEEEC1EP7SEXPREC"
 "_ZN4Rcpp6traits8ExporterIN4arma4CubeIdEEED1Ev"
 "_ZN4Rcpp6traits8ExporterIN4arma4CubeIiEEE3getEv"
 "_ZN4Rcpp6traits8ExporterIN4arma4CubeIiEEEC1EP7SEXPREC"
 "_ZN4Rcpp6traits8ExporterIN4arma4CubeIiEEED1Ev"
 "_ZN4Rcpp6traits8ExporterINS_13Function_ImplINS_15PreserveStorageEEEE3getEv"
 "_ZN4Rcpp6traits8ExporterINS_13Function_ImplINS_15PreserveStorageEEEEC1EP7SEXPREC"
 "_ZN4Rcpp6traits8ExporterINS_13Function_ImplINS_15PreserveStorageEEEED1Ev"
 "_ZN4Rcpp6traits8ExporterINS_6MatrixILi13ENS_15PreserveStorageEEEE3getEv"
 "_ZN4Rcpp6traits8ExporterINS_6MatrixILi13ENS_15PreserveStorageEEEEC1EP7SEXPREC"
 "_ZN4Rcpp6traits8ExporterINS_6MatrixILi13ENS_15PreserveStorageEEEED1Ev"
 "_ZN4Rcpp6traits8ExporterINS_6MatrixILi14ENS_15PreserveStorageEEEE3getEv"
 "_ZN4Rcpp6traits8ExporterINS_6MatrixILi14ENS_15PreserveStorageEEEEC1EP7SEXPREC"
 "_ZN4Rcpp6traits8ExporterINS_6MatrixILi14ENS_15PreserveStorageEEEED1Ev"
 "_ZN4Rcpp6traits8ExporterINS_6VectorILi10ENS_15PreserveStorageEEEE3getEv"
 "_ZN4Rcpp6traits8ExporterINS_6VectorILi10ENS_15PreserveStorageEEEEC1EP7SEXPREC"
 "_ZN4Rcpp6traits8ExporterINS_6VectorILi10ENS_15PreserveStorageEEEED1Ev"
 "_ZN4Rcpp6traits8ExporterINS_6VectorILi13ENS_15PreserveStorageEEEE3getEv"
 "_ZN4Rcpp6traits8ExporterINS_6VectorILi13ENS_15PreserveStorageEEEEC1EP7SEXPREC"
 "_ZN4Rcpp6traits8ExporterINS_6VectorILi13ENS_15PreserveStorageEEEED1Ev"
 "_ZN4Rcpp6traits8ExporterINS_6VectorILi14ENS_15PreserveStorageEEEE3getEv"
 "_ZN4Rcpp6traits8ExporterINS_6VectorILi14ENS_15PreserveStorageEEEEC1EP7SEXPREC"
 "_ZN4Rcpp6traits8ExporterINS_6VectorILi14ENS_15PreserveStorageEEEED1Ev"
 "_ZN4Rcpp6traits8ExporterINS_6VectorILi16ENS_15PreserveStorageEEEE3getEv"
 "_ZN4Rcpp6traits8ExporterINS_6VectorILi16ENS_15PreserveStorageEEEEC1EP7SEXPREC"
 "_ZN4Rcpp6traits8ExporterINS_6VectorILi16ENS_15PreserveStorageEEEED1Ev"
 "_ZN4Rcpp6traits8ExporterINS_6VectorILi19ENS_15PreserveStorageEEEE3getEv"
 "_ZN4Rcpp6traits8ExporterINS_6VectorILi19ENS_15PreserveStorageEEEEC1EP7SEXPREC"
 "_ZN4Rcpp6traits8ExporterINS_6VectorILi19ENS_15PreserveStorageEEEED1Ev"
 "_ZN4Rcpp6VectorILi10ENS_15PreserveStorageEE4initEv"
 "_ZN4Rcpp6VectorILi10ENS_15PreserveStorageEE6updateEP7SEXPREC"
 "_ZN4Rcpp6VectorILi10ENS_15PreserveStorageEEC1EP7SEXPREC"
 "_ZN4Rcpp6VectorILi10ENS_15PreserveStorageEEC1ERKi"
 "_ZN4Rcpp6VectorILi10ENS_15PreserveStorageEEC1ERKS2_"
 "_ZN4Rcpp6VectorILi10ENS_15PreserveStorageEEclERKy"
 "_ZN4Rcpp6VectorILi10ENS_15PreserveStorageEED1Ev"
 "_ZN4Rcpp6VectorILi10ENS_15PreserveStorageEEixEx"
 "_ZN4Rcpp6VectorILi13ENS_15PreserveStorageEE17import_expressionINS_12MatrixColumnILi13EEEEEvRKT_x"
 "_ZN4Rcpp6VectorILi13ENS_15PreserveStorageEE23import_sugar_expressionILb1ENS_12MatrixColumnILi13EEEEEvRKNS_10VectorBaseILi13EXT_ET0_EENS_6traits17integral_constantIbLb0EEE"
 "_ZN4Rcpp6VectorILi13ENS_15PreserveStorageEE4initEv"
 "_ZN4Rcpp6VectorILi13ENS_15PreserveStorageEE5beginEv"
 "_ZN4Rcpp6VectorILi13ENS_15PreserveStorageEE6updateEP7SEXPREC"
 "_ZN4Rcpp6VectorILi13ENS_15PreserveStorageEEC1EP7SEXPREC"
 "_ZN4Rcpp6VectorILi13ENS_15PreserveStorageEEC1ERKi"
 "_ZN4Rcpp6VectorILi13ENS_15PreserveStorageEEC1ERKS2_"
 "_ZN4Rcpp6VectorILi13ENS_15PreserveStorageEEC1ILb1ENS_12MatrixColumnILi13EEEEERKNS_10VectorBaseILi13EXT_ET0_EE"
 "_ZN4Rcpp6VectorILi13ENS_15PreserveStorageEEC1IyEET_PNS_6traits9enable_ifIXsrNS5_13is_arithmeticIS4_EE5valueEvE4typeE"
 "_ZN4Rcpp6VectorILi13ENS_15PreserveStorageEEC2EP7SEXPREC"
 "_ZN4Rcpp6VectorILi13ENS_15PreserveStorageEEclERKy"
 "_ZN4Rcpp6VectorILi13ENS_15PreserveStorageEED1Ev"
 "_ZN4Rcpp6VectorILi13ENS_15PreserveStorageEED2Ev"
 "_ZN4Rcpp6VectorILi13ENS_15PreserveStorageEEixEx"
 "_ZN4Rcpp6VectorILi14ENS_15PreserveStorageEE16create__dispatchIdddEES2_NS_6traits17integral_constantIbLb0EEERKT_RKT0_RKT1_"
 "_ZN4Rcpp6VectorILi14ENS_15PreserveStorageEE16create__dispatchIddEES2_NS_6traits17integral_constantIbLb0EEERKT_RKT0_"
 "_ZN4Rcpp6VectorILi14ENS_15PreserveStorageEE16create__dispatchIhEES2_NS_6traits17integral_constantIbLb0EEERKT_"
 "_ZN4Rcpp6VectorILi14ENS_15PreserveStorageEE16create__dispatchIiiEES2_NS_6traits17integral_constantIbLb0EEERKT_RKT0_"
 "_ZN4Rcpp6VectorILi14ENS_15PreserveStorageEE16create__dispatchIiiiEES2_NS_6traits17integral_constantIbLb0EEERKT_RKT0_RKT1_"
 "_ZN4Rcpp6VectorILi14ENS_15PreserveStorageEE16create__dispatchItEES2_NS_6traits17integral_constantIbLb0EEERKT_"
 "_ZN4Rcpp6VectorILi14ENS_15PreserveStorageEE17import_expressionINS_5sugar21Plus_Vector_PrimitiveILi14ELb1ENS4_17UnaryMinus_VectorILi14ELb1ES2_EEEEEEvRKT_x"
 "_ZN4Rcpp6VectorILi14ENS_15PreserveStorageEE17import_expressionINS_5sugar21Plus_Vector_PrimitiveILi14ELb1ES2_EEEEvRKT_x"
 "_ZN4Rcpp6VectorILi14ENS_15PreserveStorageEE23import_sugar_expressionILb1ENS_5sugar21Plus_Vector_PrimitiveILi14ELb1ENS4_17UnaryMinus_VectorILi14ELb1ES2_EEEEEEvRKNS_10VectorBaseILi14EXT_ET0_EENS_6traits17integral_constantIbLb0EEE"
 "_ZN4Rcpp6VectorILi14ENS_15PreserveStorageEE23import_sugar_expressionILb1ENS_5sugar21Plus_Vector_PrimitiveILi14ELb1ES2_EEEEvRKNS_10VectorBaseILi14EXT_ET0_EENS_6traits17integral_constantIbLb0EEE"
 "_ZN4Rcpp6VectorILi14ENS_15PreserveStorageEE4initEv"
 "_ZN4Rcpp6VectorILi14ENS_15PreserveStorageEE5beginEv"
 "_ZN4Rcpp6VectorILi14ENS_15PreserveStorageEE6createIdddEES2_RKT_RKT0_RKT1_"
 "_ZN4Rcpp6VectorILi14ENS_15PreserveStorageEE6createIddEES2_RKT_RKT0_"
 "_ZN4Rcpp6VectorILi14ENS_15PreserveStorageEE6createIhEES2_RKT_"
 "_ZN4Rcpp6VectorILi14ENS_15PreserveStorageEE6createIiiEES2_RKT_RKT0_"
 "_ZN4Rcpp6VectorILi14ENS_15PreserveStorageEE6createIiiiEES2_RKT_RKT0_RKT1_"
 "_ZN4Rcpp6VectorILi14ENS_15PreserveStorageEE6createItEES2_RKT_"
 "_ZN4Rcpp6VectorILi14ENS_15PreserveStorageEE6updateEP7SEXPREC"
 "_ZN4Rcpp6VectorILi14ENS_15PreserveStorageEEaSERKS2_"
 "_ZN4Rcpp6VectorILi14ENS_15PreserveStorageEEC1EP7SEXPREC"
 "_ZN4Rcpp6VectorILi14ENS_15PreserveStorageEEC1ERKi"
 "_ZN4Rcpp6VectorILi14ENS_15PreserveStorageEEC1ERKS2_"
 "_ZN4Rcpp6VectorILi14ENS_15PreserveStorageEEC1Ev"
 "_ZN4Rcpp6VectorILi14ENS_15PreserveStorageEEC1ILb1ENS_5sugar21Plus_Vector_PrimitiveILi14ELb1ENS4_17UnaryMinus_VectorILi14ELb1ES2_EEEEEERKNS_10VectorBaseILi14EXT_ET0_EE"
 "_ZN4Rcpp6VectorILi14ENS_15PreserveStorageEEC1ILb1ENS_5sugar21Plus_Vector_PrimitiveILi14ELb1ES2_EEEERKNS_10VectorBaseILi14EXT_ET0_EE"
 "_ZN4Rcpp6VectorILi14ENS_15PreserveStorageEEC1IyEET_PNS_6traits9enable_ifIXsrNS5_13is_arithmeticIS4_EE5valueEvE4typeE"
 "_ZN4Rcpp6VectorILi14ENS_15PreserveStorageEEC2EP7SEXPREC"
 "_ZN4Rcpp6VectorILi14ENS_15PreserveStorageEEC2ERKNS_9DimensionE"
 "_ZN4Rcpp6VectorILi14ENS_15PreserveStorageEEclERKy"
 "_ZN4Rcpp6VectorILi14ENS_15PreserveStorageEED1Ev"
 "_ZN4Rcpp6VectorILi14ENS_15PreserveStorageEED2Ev"
 "_ZN4Rcpp6VectorILi14ENS_15PreserveStorageEEixEx"
 "_ZN4Rcpp6VectorILi16ENS_15PreserveStorageEE16create__dispatchIA4_cA2_cS5_EES2_NS_6traits17integral_constantIbLb0EEERKT_RKT0_RKT1_"
 "_ZN4Rcpp6VectorILi16ENS_15PreserveStorageEE16create__dispatchIA4_cS4_EES2_NS_6traits17integral_constantIbLb0EEERKT_RKT0_"
 "_ZN4Rcpp6VectorILi16ENS_15PreserveStorageEE18erase_single__implENS_8internal14Proxy_IteratorINS3_12string_proxyILi16ES1_EEEE"
 "_ZN4Rcpp6VectorILi16ENS_15PreserveStorageEE3endEv"
 "_ZN4Rcpp6VectorILi16ENS_15PreserveStorageEE4initEv"
 "_ZN4Rcpp6VectorILi16ENS_15PreserveStorageEE5beginEv"
 "_ZN4Rcpp6VectorILi16ENS_15PreserveStorageEE5eraseEi"
 "_ZN4Rcpp6VectorILi16ENS_15PreserveStorageEE6createIA4_cA2_cS5_EES2_RKT_RKT0_RKT1_"
 "_ZN4Rcpp6VectorILi16ENS_15PreserveStorageEE6createIA4_cS4_EES2_RKT_RKT0_"
 "_ZN4Rcpp6VectorILi16ENS_15PreserveStorageEE6updateEP7SEXPREC"
 "_ZN4Rcpp6VectorILi16ENS_15PreserveStorageEEC1EP7SEXPREC"
 "_ZN4Rcpp6VectorILi16ENS_15PreserveStorageEEC1ERKi"
 "_ZN4Rcpp6VectorILi16ENS_15PreserveStorageEEC1ERKS2_"
 "_ZN4Rcpp6VectorILi16ENS_15PreserveStorageEEC1IxEET_PNS_6traits9enable_ifIXsrNS5_13is_arithmeticIS4_EE5valueEvE4typeE"
 "_ZN4Rcpp6VectorILi16ENS_15PreserveStorageEEclERKy"
 "_ZN4Rcpp6VectorILi16ENS_15PreserveStorageEED1Ev"
 "_ZN4Rcpp6VectorILi16ENS_15PreserveStorageEEixEx"
 "_ZN4Rcpp6VectorILi19ENS_15PreserveStorageEE15replace_elementINS_6traits12named_objectI5ImageEEEEvNS_8internal14Proxy_IteratorINS8_13generic_proxyILi19ES1_EEEEP7SEXPRECxRKT_"
 "_ZN4Rcpp6VectorILi19ENS_15PreserveStorageEE15replace_elementINS_6traits12named_objectIiEEEEvNS_8internal14Proxy_IteratorINS7_13generic_proxyILi19ES1_EEEEP7SEXPRECxRKT_"
 "_ZN4Rcpp6VectorILi19ENS_15PreserveStorageEE15replace_elementINS_6traits12named_objectINS_14DataFrame_ImplIS1_EEEEEEvNS_8internal14Proxy_IteratorINS9_13generic_proxyILi19ES1_EEEEP7SEXPRECxRKT_"
 "_ZN4Rcpp6VectorILi19ENS_15PreserveStorageEE15replace_elementINS_6traits12named_objectINS_5sugar21Plus_Vector_PrimitiveILi14ELb1ENS0_ILi14ES1_EEEEEEEEvNS_8internal14Proxy_IteratorINSB_13generic_proxyILi19ES1_EEEEP7SEXPRECxRKT_"
 "_ZN4Rcpp6VectorILi19ENS_15PreserveStorageEE15replace_elementINS_6traits12named_objectINS_5sugar21Plus_Vector_PrimitiveILi14ELb1ENS6_17UnaryMinus_VectorILi14ELb1ENS0_ILi14ES1_EEEEEEEEEEvNS_8internal14Proxy_IteratorINSD_13generic_proxyILi19ES1_EEEEP7SEXPRECxRKT_"
 "_ZN4Rcpp6VectorILi19ENS_15PreserveStorageEE15replace_elementINS_6traits12named_objectINS0_ILi13ES1_EEEEEEvNS_8internal14Proxy_IteratorINS8_13generic_proxyILi19ES1_EEEEP7SEXPRECxRKT_"
 "_ZN4Rcpp6VectorILi19ENS_15PreserveStorageEE15replace_elementINS_6traits12named_objectINS0_ILi14ES1_EEEEEEvNS_8internal14Proxy_IteratorINS8_13generic_proxyILi19ES1_EEEEP7SEXPRECxRKT_"
 "_ZN4Rcpp6VectorILi19ENS_15PreserveStorageEE15replace_elementINS_8ArgumentEEEvNS_8internal14Proxy_IteratorINS5_13generic_proxyILi19ES1_EEEEP7SEXPRECxRKT_"
 "_ZN4Rcpp6VectorILi19ENS_15PreserveStorageEE16create__dispatchIbEES2_NS_6traits17integral_constantIbLb0EEERKT_"
 "_ZN4Rcpp6VectorILi19ENS_15PreserveStorageEE16create__dispatchIbP7SEXPRECEES2_NS_6traits17integral_constantIbLb0EEERKT_RKT0_"
 "_ZN4Rcpp6VectorILi19ENS_15PreserveStorageEE16create__dispatchINS_6traits12named_objectIiEENS5_I5ImageEEEES2_NS4_17integral_constantIbLb1EEERKT_RKT0_"
 "_ZN4Rcpp6VectorILi19ENS_15PreserveStorageEE16create__dispatchINS_6traits12named_objectIiEES6_S6_EES2_NS4_17integral_constantIbLb1EEERKT_RKT0_RKT1_"
 "_ZN4Rcpp6VectorILi19ENS_15PreserveStorageEE16create__dispatchINS_6traits12named_objectINS_14DataFrame_ImplIS1_EEEES8_EES2_NS4_17integral_constantIbLb1EEERKT_RKT0_"
 "_ZN4Rcpp6VectorILi19ENS_15PreserveStorageEE16create__dispatchINS_6traits12named_objectINS0_ILi13ES1_EEEENS5_INS_5sugar21Plus_Vector_PrimitiveILi14ELb1ENS0_ILi14ES1_EEEEEENS5_INS9_ILi14ELb1ENS8_17UnaryMinus_VectorILi14ELb1ESA_EEEEEENS5_ISA_EEEES2_NS4_17integral_constantIbLb1EEERKT_RKT0_RKT1_RKT2_"
 "_ZN4Rcpp6VectorILi19ENS_15PreserveStorageEE16create__dispatchINS_6traits12named_objectINS0_ILi13ES1_EEEENS5_INS0_ILi14ES1_EEEENS5_INS_5sugar21Plus_Vector_PrimitiveILi14ELb1ENSA_17UnaryMinus_VectorILi14ELb1ES8_EEEEEEEES2_NS4_17integral_constantIbLb1EEERKT_RKT0_RKT1_"
 "_ZN4Rcpp6VectorILi19ENS_15PreserveStorageEE16create__dispatchINS_6traits12named_objectINS0_ILi13ES1_EEEES7_S7_S7_S7_EES2_NS4_17integral_constantIbLb1EEERKT_RKT0_RKT1_RKT2_RKT3_"
 "_ZN4Rcpp6VectorILi19ENS_15PreserveStorageEE16create__dispatchINS_6traits12named_objectINS0_ILi14ES1_EEEES7_EES2_NS4_17integral_constantIbLb1EEERKT_RKT0_"
 "_ZN4Rcpp6VectorILi19ENS_15PreserveStorageEE16create__dispatchINS_6traits12named_objectINS0_ILi14ES1_EEEES7_S7_S7_EES2_NS4_17integral_constantIbLb1EEERKT_RKT0_RKT1_RKT2_"
 "_ZN4Rcpp6VectorILi19ENS_15PreserveStorageEE16create__dispatchINS_8ArgumentEEES2_NS_6traits17integral_constantIbLb1EEERKT_"
 "_ZN4Rcpp6VectorILi19ENS_15PreserveStorageEE16create__dispatchINS_8ArgumentES4_EES2_NS_6traits17integral_constantIbLb1EEERKT_RKT0_"
 "_ZN4Rcpp6VectorILi19ENS_15PreserveStorageEE16create__dispatchINS_8ArgumentES4_S4_EES2_NS_6traits17integral_constantIbLb1EEERKT_RKT0_RKT1_"
 "_ZN4Rcpp6VectorILi19ENS_15PreserveStorageEE16create__dispatchINS_8ArgumentES4_S4_S4_EES2_NS_6traits17integral_constantIbLb1EEERKT_RKT0_RKT1_RKT2_"
 "_ZN4Rcpp6VectorILi19ENS_15PreserveStorageEE16create__dispatchINS_8ArgumentES4_S4_S4_S4_EES2_NS_6traits17integral_constantIbLb1EEERKT_RKT0_RKT1_RKT2_RKT3_"
 "_ZN4Rcpp6VectorILi19ENS_15PreserveStorageEE16create__dispatchINS_8ArgumentES4_S4_S4_S4_S4_EES2_NS_6traits17integral_constantIbLb1EEERKT_RKT0_RKT1_RKT2_RKT3_RKT4_"
 "_ZN4Rcpp6VectorILi19ENS_15PreserveStorageEE16create__dispatchINS_8ArgumentES4_S4_S4_S4_S4_S4_EES2_NS_6traits17integral_constantIbLb1EEERKT_RKT0_RKT1_RKT2_RKT3_RKT4_RKT5_"
 "_ZN4Rcpp6VectorILi19ENS_15PreserveStorageEE16create__dispatchINS_8ArgumentES4_S4_S4_S4_S4_S4_S4_EES2_NS_6traits17integral_constantIbLb1EEERKT_RKT0_RKT1_RKT2_RKT3_RKT4_RKT5_RKT6_"
 "_ZN4Rcpp6VectorILi19ENS_15PreserveStorageEE16create__dispatchINS_8ArgumentES4_S4_S4_S4_S4_S4_S4_S4_EES2_NS_6traits17integral_constantIbLb1EEERKT_RKT0_RKT1_RKT2_RKT3_RKT4_RKT5_RKT6_RKT7_"
 "_ZN4Rcpp6VectorILi19ENS_15PreserveStorageEE16create__dispatchINS_8ArgumentES4_S4_S4_S4_S4_S4_S4_S4_S4_EES2_NS_6traits17integral_constantIbLb1EEERKT_RKT0_RKT1_RKT2_RKT3_RKT4_RKT5_RKT6_RKT7_RKT8_"
 "_ZN4Rcpp6VectorILi19ENS_15PreserveStorageEE16create__dispatchINS_8ArgumentES4_S4_S4_S4_S4_S4_S4_S4_S4_S4_S4_S4_S4_S4_S4_S4_S4_S4_S4_EES2_NS_6traits17integral_constantIbLb1EEERKT_RKT0_RKT1_RKT2_RKT3_RKT4_RKT5_RKT6_RKT7_RKT8_RKT9_RKT10_RKT11_RKT12_RKT13_RKT14_RKT15_RKT16_RKT17_RKT18_"
 "_ZN4Rcpp6VectorILi19ENS_15PreserveStorageEE18erase_single__implENS_8internal14Proxy_IteratorINS3_13generic_proxyILi19ES1_EEEE"
 "_ZN4Rcpp6VectorILi19ENS_15PreserveStorageEE25replace_element__dispatchINS_6traits12named_objectI5ImageEEEEvNS4_17integral_constantIbLb1EEENS_8internal14Proxy_IteratorINSA_13generic_proxyILi19ES1_EEEEP7SEXPRECxRKT_"
 "_ZN4Rcpp6VectorILi19ENS_15PreserveStorageEE25replace_element__dispatchINS_6traits12named_objectIiEEEEvNS4_17integral_constantIbLb1EEENS_8internal14Proxy_IteratorINS9_13generic_proxyILi19ES1_EEEEP7SEXPRECxRKT_"
 "_ZN4Rcpp6VectorILi19ENS_15PreserveStorageEE25replace_element__dispatchINS_6traits12named_objectINS_14DataFrame_ImplIS1_EEEEEEvNS4_17integral_constantIbLb1EEENS_8internal14Proxy_IteratorINSB_13generic_proxyILi19ES1_EEEEP7SEXPRECxRKT_"
 "_ZN4Rcpp6VectorILi19ENS_15PreserveStorageEE25replace_element__dispatchINS_6traits12named_objectINS_5sugar21Plus_Vector_PrimitiveILi14ELb1ENS0_ILi14ES1_EEEEEEEEvNS4_17integral_constantIbLb1EEENS_8internal14Proxy_IteratorINSD_13generic_proxyILi19ES1_EEEEP7SEXPRECxRKT_"
 "_ZN4Rcpp6VectorILi19ENS_15PreserveStorageEE25replace_element__dispatchINS_6traits12named_objectINS_5sugar21Plus_Vector_PrimitiveILi14ELb1ENS6_17UnaryMinus_VectorILi14ELb1ENS0_ILi14ES1_EEEEEEEEEEvNS4_17integral_constantIbLb1EEENS_8internal14Proxy_IteratorINSF_13generic_proxyILi19ES1_EEEEP7SEXPRECxRKT_"
 "_ZN4Rcpp6VectorILi19ENS_15PreserveStorageEE25replace_element__dispatchINS_6traits12named_objectINS0_ILi13ES1_EEEEEEvNS4_17integral_constantIbLb1EEENS_8internal14Proxy_IteratorINSA_13generic_proxyILi19ES1_EEEEP7SEXPRECxRKT_"
 "_ZN4Rcpp6VectorILi19ENS_15PreserveStorageEE25replace_element__dispatchINS_6traits12named_objectINS0_ILi14ES1_EEEEEEvNS4_17integral_constantIbLb1EEENS_8internal14Proxy_IteratorINSA_13generic_proxyILi19ES1_EEEEP7SEXPRECxRKT_"
 "_ZN4Rcpp6VectorILi19ENS_15PreserveStorageEE25replace_element__dispatchINS_8ArgumentEEEvNS_6traits17integral_constantIbLb1EEENS_8internal14Proxy_IteratorINS8_13generic_proxyILi19ES1_EEEEP7SEXPRECxRKT_"
 "_ZN4Rcpp6VectorILi19ENS_15PreserveStorageEE37replace_element__dispatch__isArgumentINS_6traits12named_objectI5ImageEEEEvNS4_17integral_constantIbLb0EEENS_8internal14Proxy_IteratorINSA_13generic_proxyILi19ES1_EEEEP7SEXPRECxRKT_"
 "_ZN4Rcpp6VectorILi19ENS_15PreserveStorageEE37replace_element__dispatch__isArgumentINS_6traits12named_objectIiEEEEvNS4_17integral_constantIbLb0EEENS_8internal14Proxy_IteratorINS9_13generic_proxyILi19ES1_EEEEP7SEXPRECxRKT_"
 "_ZN4Rcpp6VectorILi19ENS_15PreserveStorageEE37replace_element__dispatch__isArgumentINS_6traits12named_objectINS_14DataFrame_ImplIS1_EEEEEEvNS4_17integral_constantIbLb0EEENS_8internal14Proxy_IteratorINSB_13generic_proxyILi19ES1_EEEEP7SEXPRECxRKT_"
 "_ZN4Rcpp6VectorILi19ENS_15PreserveStorageEE37replace_element__dispatch__isArgumentINS_6traits12named_objectINS_5sugar21Plus_Vector_PrimitiveILi14ELb1ENS0_ILi14ES1_EEEEEEEEvNS4_17integral_constantIbLb0EEENS_8internal14Proxy_IteratorINSD_13generic_proxyILi19ES1_EEEEP7SEXPRECxRKT_"
 "_ZN4Rcpp6VectorILi19ENS_15PreserveStorageEE37replace_element__dispatch__isArgumentINS_6traits12named_objectINS_5sugar21Plus_Vector_PrimitiveILi14ELb1ENS6_17UnaryMinus_VectorILi14ELb1ENS0_ILi14ES1_EEEEEEEEEEvNS4_17integral_constantIbLb0EEENS_8internal14Proxy_IteratorINSF_13generic_proxyILi19ES1_EEEEP7SEXPRECxRKT_"
 "_ZN4Rcpp6VectorILi19ENS_15PreserveStorageEE37replace_element__dispatch__isArgumentINS_6traits12named_objectINS0_ILi13ES1_EEEEEEvNS4_17integral_constantIbLb0EEENS_8internal14Proxy_IteratorINSA_13generic_proxyILi19ES1_EEEEP7SEXPRECxRKT_"
 "_ZN4Rcpp6VectorILi19ENS_15PreserveStorageEE37replace_element__dispatch__isArgumentINS_6traits12named_objectINS0_ILi14ES1_EEEEEEvNS4_17integral_constantIbLb0EEENS_8internal14Proxy_IteratorINSA_13generic_proxyILi19ES1_EEEEP7SEXPRECxRKT_"
 "_ZN4Rcpp6VectorILi19ENS_15PreserveStorageEE37replace_element__dispatch__isArgumentINS_8ArgumentEEEvNS_6traits17integral_constantIbLb1EEENS_8internal14Proxy_IteratorINS8_13generic_proxyILi19ES1_EEEEP7SEXPRECxRKT_"
 "_ZN4Rcpp6VectorILi19ENS_15PreserveStorageEE3endEv"
 "_ZN4Rcpp6VectorILi19ENS_15PreserveStorageEE4initEv"
 "_ZN4Rcpp6VectorILi19ENS_15PreserveStorageEE5beginEv"
 "_ZN4Rcpp6VectorILi19ENS_15PreserveStorageEE5eraseEi"
 "_ZN4Rcpp6VectorILi19ENS_15PreserveStorageEE6createIbEES2_RKT_"
 "_ZN4Rcpp6VectorILi19ENS_15PreserveStorageEE6createIbP7SEXPRECEES2_RKT_RKT0_"
 "_ZN4Rcpp6VectorILi19ENS_15PreserveStorageEE6createINS_6traits12named_objectIiEENS5_I5ImageEEEES2_RKT_RKT0_"
 "_ZN4Rcpp6VectorILi19ENS_15PreserveStorageEE6createINS_6traits12named_objectIiEES6_S6_EES2_RKT_RKT0_RKT1_"
 "_ZN4Rcpp6VectorILi19ENS_15PreserveStorageEE6createINS_6traits12named_objectINS_14DataFrame_ImplIS1_EEEES8_EES2_RKT_RKT0_"
 "_ZN4Rcpp6VectorILi19ENS_15PreserveStorageEE6createINS_6traits12named_objectINS0_ILi13ES1_EEEENS5_INS_5sugar21Plus_Vector_PrimitiveILi14ELb1ENS0_ILi14ES1_EEEEEENS5_INS9_ILi14ELb1ENS8_17UnaryMinus_VectorILi14ELb1ESA_EEEEEENS5_ISA_EEEES2_RKT_RKT0_RKT1_RKT2_"
 "_ZN4Rcpp6VectorILi19ENS_15PreserveStorageEE6createINS_6traits12named_objectINS0_ILi13ES1_EEEENS5_INS0_ILi14ES1_EEEENS5_INS_5sugar21Plus_Vector_PrimitiveILi14ELb1ENSA_17UnaryMinus_VectorILi14ELb1ES8_EEEEEEEES2_RKT_RKT0_RKT1_"
 "_ZN4Rcpp6VectorILi19ENS_15PreserveStorageEE6createINS_6traits12named_objectINS0_ILi13ES1_EEEES7_S7_S7_S7_EES2_RKT_RKT0_RKT1_RKT2_RKT3_"
 "_ZN4Rcpp6VectorILi19ENS_15PreserveStorageEE6createINS_6traits12named_objectINS0_ILi14ES1_EEEES7_EES2_RKT_RKT0_"
 "_ZN4Rcpp6VectorILi19ENS_15PreserveStorageEE6createINS_6traits12named_objectINS0_ILi14ES1_EEEES7_S7_S7_EES2_RKT_RKT0_RKT1_RKT2_"
 "_ZN4Rcpp6VectorILi19ENS_15PreserveStorageEE6createINS_8ArgumentEEES2_RKT_"
 "_ZN4Rcpp6VectorILi19ENS_15PreserveStorageEE6createINS_8ArgumentES4_EES2_RKT_RKT0_"
 "_ZN4Rcpp6VectorILi19ENS_15PreserveStorageEE6createINS_8ArgumentES4_S4_EES2_RKT_RKT0_RKT1_"
 "_ZN4Rcpp6VectorILi19ENS_15PreserveStorageEE6createINS_8ArgumentES4_S4_S4_EES2_RKT_RKT0_RKT1_RKT2_"
 "_ZN4Rcpp6VectorILi19ENS_15PreserveStorageEE6createINS_8ArgumentES4_S4_S4_S4_EES2_RKT_RKT0_RKT1_RKT2_RKT3_"
 "_ZN4Rcpp6VectorILi19ENS_15PreserveStorageEE6createINS_8ArgumentES4_S4_S4_S4_S4_EES2_RKT_RKT0_RKT1_RKT2_RKT3_RKT4_"
 "_ZN4Rcpp6VectorILi19ENS_15PreserveStorageEE6createINS_8ArgumentES4_S4_S4_S4_S4_S4_EES2_RKT_RKT0_RKT1_RKT2_RKT3_RKT4_RKT5_"
 "_ZN4Rcpp6VectorILi19ENS_15PreserveStorageEE6createINS_8ArgumentES4_S4_S4_S4_S4_S4_S4_EES2_RKT_RKT0_RKT1_RKT2_RKT3_RKT4_RKT5_RKT6_"
 "_ZN4Rcpp6VectorILi19ENS_15PreserveStorageEE6createINS_8ArgumentES4_S4_S4_S4_S4_S4_S4_S4_EES2_RKT_RKT0_RKT1_RKT2_RKT3_RKT4_RKT5_RKT6_RKT7_"
 "_ZN4Rcpp6VectorILi19ENS_15PreserveStorageEE6createINS_8ArgumentES4_S4_S4_S4_S4_S4_S4_S4_S4_EES2_RKT_RKT0_RKT1_RKT2_RKT3_RKT4_RKT5_RKT6_RKT7_RKT8_"
 "_ZN4Rcpp6VectorILi19ENS_15PreserveStorageEE6createINS_8ArgumentES4_S4_S4_S4_S4_S4_S4_S4_S4_S4_S4_S4_S4_S4_S4_S4_S4_S4_S4_EES2_RKT_RKT0_RKT1_RKT2_RKT3_RKT4_RKT5_RKT6_RKT7_RKT8_RKT9_RKT10_RKT11_RKT12_RKT13_RKT14_RKT15_RKT16_RKT17_RKT18_"
 "_ZN4Rcpp6VectorILi19ENS_15PreserveStorageEE6updateEP7SEXPREC"
 "_ZN4Rcpp6VectorILi19ENS_15PreserveStorageEEC1EP7SEXPREC"
 "_ZN4Rcpp6VectorILi19ENS_15PreserveStorageEEC1EPKc"
 "_ZN4Rcpp6VectorILi19ENS_15PreserveStorageEEC1ERKi"
 "_ZN4Rcpp6VectorILi19ENS_15PreserveStorageEEC1ERKS2_"
 "_ZN4Rcpp6VectorILi19ENS_15PreserveStorageEEC1IxEET_PNS_6traits9enable_ifIXsrNS5_13is_arithmeticIS4_EE5valueEvE4typeE"
 "_ZN4Rcpp6VectorILi19ENS_15PreserveStorageEEC1IyEET_PNS_6traits9enable_ifIXsrNS5_13is_arithmeticIS4_EE5valueEvE4typeE"
 "_ZN4Rcpp6VectorILi19ENS_15PreserveStorageEEC2Ev"
 "_ZN4Rcpp6VectorILi19ENS_15PreserveStorageEED1Ev"
 "_ZN4Rcpp6VectorILi19ENS_15PreserveStorageEED2Ev"
 "_ZN4Rcpp6VectorILi19ENS_15PreserveStorageEEixEx"
 "_ZN4Rcpp7ShelterIP7SEXPRECEC1Ev"
 "_ZN4Rcpp7ShelterIP7SEXPRECEclES2_"
 "_ZN4Rcpp7ShelterIP7SEXPRECED1Ev"
 "_ZN4Rcpp8ArgumentaSI5ImageEENS_6traits12named_objectIT_EERKS5_"
 "_ZN4Rcpp8ArgumentaSIiEENS_6traits12named_objectIT_EERKS4_"
 "_ZN4Rcpp8ArgumentaSINS_14DataFrame_ImplINS_15PreserveStorageEEEEENS_6traits12named_objectIT_EERKS7_"
 "_ZN4Rcpp8ArgumentaSINS_5sugar21Plus_Vector_PrimitiveILi14ELb1ENS_6VectorILi14ENS_15PreserveStorageEEEEEEENS_6traits12named_objectIT_EERKSA_"
 "_ZN4Rcpp8ArgumentaSINS_5sugar21Plus_Vector_PrimitiveILi14ELb1ENS2_17UnaryMinus_VectorILi14ELb1ENS_6VectorILi14ENS_15PreserveStorageEEEEEEEEENS_6traits12named_objectIT_EERKSC_"
 "_ZN4Rcpp8ArgumentaSINS_6VectorILi13ENS_15PreserveStorageEEEEENS_6traits12named_objectIT_EERKS7_"
 "_ZN4Rcpp8ArgumentaSINS_6VectorILi14ENS_15PreserveStorageEEEEENS_6traits12named_objectIT_EERKS7_"
 "_ZN4Rcpp8ArgumentC1ERKSs"
 "_ZN4Rcpp8ArgumentD1Ev"
 "_ZN4Rcpp8colnamesEP7SEXPREC"
 "_ZN4Rcpp8functionI5ImageNS_6VectorILi19ENS_15PreserveStorageEEEEEvPKcPFT_T0_ES4_S6_"
 "_ZN4Rcpp8functionI5ImageRNS_6VectorILi19ENS_15PreserveStorageEEEEEvPKcPFT_T0_ES4_S7_"
 "_ZN4Rcpp8functionI5ImageRS1_iiiiEEvPKcPFT_T0_T1_T2_T3_T4_ENS_6VectorILi19ENS_15PreserveStorageEEES4_"
 "_ZN4Rcpp8functionI5ImageRS1_iiiiiNS_6VectorILi13ENS_15PreserveStorageEEEEEvPKcPFT_T0_T1_T2_T3_T4_T5_T6_ENS3_ILi19ES4_EES7_"
 "_ZN4Rcpp8functionI5ImageS1_dbEEvPKcPFT_T0_T1_T2_ENS_6VectorILi19ENS_15PreserveStorageEEES3_"
 "_ZN4Rcpp8functionI5ImageS1_dEEvPKcPFT_T0_T1_ENS_6VectorILi19ENS_15PreserveStorageEEES3_"
 "_ZN4Rcpp8functionI5ImageS1_diiidEEvPKcPFT_T0_T1_T2_T3_T4_T5_ENS_6VectorILi19ENS_15PreserveStorageEEES3_"
 "_ZN4Rcpp8functionI5ImageS1_dS1_dEEvPKcPFT_T0_T1_T2_T3_ENS_6VectorILi19ENS_15PreserveStorageEEES3_"
 "_ZN4Rcpp8functionI5ImageS1_EEvPKcPFT_T0_ENS_6VectorILi19ENS_15PreserveStorageEEES3_"
 "_ZN4Rcpp8functionI5ImageS1_iddEEvPKcPFT_T0_T1_T2_T3_ENS_6VectorILi19ENS_15PreserveStorageEEES3_"
 "_ZN4Rcpp8functionI5ImageS1_idEEvPKcPFT_T0_T1_T2_ENS_6VectorILi19ENS_15PreserveStorageEEES3_"
 "_ZN4Rcpp8functionI5ImageS1_iEEvPKcPFT_T0_T1_ENS_6VectorILi19ENS_15PreserveStorageEEES3_"
 "_ZN4Rcpp8functionI5ImageS1_iibEEvPKcPFT_T0_T1_T2_T3_ENS_6VectorILi19ENS_15PreserveStorageEEES3_"
 "_ZN4Rcpp8functionI5ImageS1_iiddEEvPKcPFT_T0_T1_T2_T3_T4_ENS_6VectorILi19ENS_15PreserveStorageEEES3_"
 "_ZN4Rcpp8functionI5ImageS1_iiddiEEvPKcPFT_T0_T1_T2_T3_T4_T5_ENS_6VectorILi19ENS_15PreserveStorageEEES3_"
 "_ZN4Rcpp8functionI5ImageS1_iidEEvPKcPFT_T0_T1_T2_T3_ENS_6VectorILi19ENS_15PreserveStorageEEES3_"
 "_ZN4Rcpp8functionI5ImageS1_iiEEvPKcPFT_T0_T1_T2_ENS_6VectorILi19ENS_15PreserveStorageEEES3_"
 "_ZN4Rcpp8functionI5ImageS1_iiidEEvPKcPFT_T0_T1_T2_T3_T4_ENS_6VectorILi19ENS_15PreserveStorageEEES3_"
 "_ZN4Rcpp8functionI5ImageS1_iiiiiEEvPKcPFT_T0_T1_T2_T3_T4_T5_ENS_6VectorILi19ENS_15PreserveStorageEEES3_"
 "_ZN4Rcpp8functionI5ImageS1_iNS_6VectorILi14ENS_15PreserveStorageEEEiEEvPKcPFT_T0_T1_T2_T3_ENS2_ILi19ES3_EES6_"
 "_ZN4Rcpp8functionI5ImageS1_N4arma3MatIfEENS_6VectorILi13ENS_15PreserveStorageEEEiiS7_EEvPKcPFT_T0_T1_T2_T3_T4_T5_ENS5_ILi19ES6_EES9_"
 "_ZN4Rcpp8functionI5ImageS1_NS_6MatrixILi14ENS_15PreserveStorageEEEEEvPKcPFT_T0_T1_ENS_6VectorILi19ES3_EES6_"
 "_ZN4Rcpp8functionI5ImageS1_NS_6VectorILi14ENS_15PreserveStorageEEES4_EEvPKcPFT_T0_T1_T2_ENS2_ILi19ES3_EES6_"
 "_ZN4Rcpp8functionI5ImageS1_S1_diEEvPKcPFT_T0_T1_T2_T3_ENS_6VectorILi19ENS_15PreserveStorageEEES3_"
 "_ZN4Rcpp8functionI5ImageS1_S1_EEvPKcPFT_T0_T1_ENS_6VectorILi19ENS_15PreserveStorageEEES3_"
 "_ZN4Rcpp8functionI5ImageS1_S1_iEEvPKcPFT_T0_T1_T2_ENS_6VectorILi19ENS_15PreserveStorageEEES3_"
 "_ZN4Rcpp8functionI5ImageS1_S1_iS1_EEvPKcPFT_T0_T1_T2_T3_ENS_6VectorILi19ENS_15PreserveStorageEEES3_"
 "_ZN4Rcpp8functionId5ImageEEvPKcPFT_T0_ENS_6VectorILi19ENS_15PreserveStorageEEES3_"
 "_ZN4Rcpp8functionId5ImageS1_EEvPKcPFT_T0_T1_ENS_6VectorILi19ENS_15PreserveStorageEEES3_"
 "_ZN4Rcpp8functionIN4arma3MatIdEENS1_3ColIfEEddEEvPKcPFT_T0_T1_T2_ENS_6VectorILi19ENS_15PreserveStorageEEES7_"
 "_ZN4Rcpp8functionIN4arma3MatIfEE5ImageS4_iidiEEvPKcPFT_T0_T1_T2_T3_T4_T5_ENS_6VectorILi19ENS_15PreserveStorageEEES6_"
 "_ZN4Rcpp8functionIN4arma4CubeIdEE5ImageS4_diiiidEEvPKcPFT_T0_T1_T2_T3_T4_T5_T6_T7_ENS_6VectorILi19ENS_15PreserveStorageEEES6_"
 "_ZN4Rcpp8functionINS_14DataFrame_ImplINS_15PreserveStorageEEE5ImageEEvPKcPFT_T0_ENS_6VectorILi19ES2_EES6_"
 "_ZN4Rcpp8functionINS_14DataFrame_ImplINS_15PreserveStorageEEE5ImagefffyfbffbhbffbffbffEEvPKcPFT_T0_T1_T2_T3_T4_T5_T6_T7_T8_T9_T10_T11_T12_T13_T14_T15_T16_T17_T18_T19_ENS_6VectorILi19ES2_EES6_"
 "_ZN4Rcpp8functionINS_14DataFrame_ImplINS_15PreserveStorageEEE5ImageSsbEEvPKcPFT_T0_T1_T2_ENS_6VectorILi19ES2_EES6_"
 "_ZN4Rcpp8functionINS_14DataFrame_ImplINS_15PreserveStorageEEESsEEvPKcPFT_T0_ENS_6VectorILi19ES2_EES5_"
 "_ZN4Rcpp8functionINS_6MatrixILi14ENS_15PreserveStorageEEE5ImageEEvPKcPFT_T0_ENS_6VectorILi19ES2_EES6_"
 "_ZN4Rcpp8functionINS_6VectorILi14ENS_15PreserveStorageEEESsidiEEvPKcPFT_T0_T1_T2_T3_ENS1_ILi19ES2_EES5_"
 "_ZN4Rcpp8functionINS_6VectorILi19ENS_15PreserveStorageEEE5ImageEEvPKcPFT_T0_ES3_S6_"
 "_ZN4Rcpp8functionINS_6VectorILi19ENS_15PreserveStorageEEE5ImageiEEvPKcPFT_T0_T1_ES3_S6_"
 "_ZN4Rcpp8functionINS_6VectorILi19ENS_15PreserveStorageEEE5ImageiiNS1_ILi14ES2_EEEEvPKcPFT_T0_T1_T2_T3_ES3_S7_"
 "_ZN4Rcpp8functionINS_6VectorILi19ENS_15PreserveStorageEEESsEEvPKcPFT_T0_ES3_S5_"
 "_ZN4Rcpp8functionIv5ImageNS_6MatrixILi13ENS_15PreserveStorageEEENS_6VectorILi13ES3_EEEEvPKcPFT_T0_T1_T2_ENS5_ILi19ES3_EES8_"
 "_ZN4Rcpp8functionIv5ImageNS_6VectorILi14ENS_15PreserveStorageEEES4_NS2_ILi13ES3_EENS_6MatrixILi13ES3_EES5_EEvPKcPFT_T0_T1_T2_T3_T4_T5_ENS2_ILi19ES3_EES9_"
 "_ZN4Rcpp8functionIv5ImageNS_6VectorILi14ENS_15PreserveStorageEEES4_S4_S4_NS_6MatrixILi13ES3_EENS2_ILi13ES3_EEEEvPKcPFT_T0_T1_T2_T3_T4_T5_T6_ENS2_ILi19ES3_EES9_"
 "_ZN4Rcpp8functionIv5ImageNS_6VectorILi14ENS_15PreserveStorageEEES4_S4_S4_S4_NS_6MatrixILi13ES3_EENS2_ILi13ES3_EEEEvPKcPFT_T0_T1_T2_T3_T4_T5_T6_T7_ENS2_ILi19ES3_EES9_"
 "_ZN4Rcpp8functionIv5ImageNS_6VectorILi14ENS_15PreserveStorageEEES4_S4_S4_S4_S4_S4_NS_6MatrixILi13ES3_EENS2_ILi13ES3_EEEEvPKcPFT_T0_T1_T2_T3_T4_T5_T6_T7_T8_T9_ENS2_ILi19ES3_EES9_"
 "_ZN4Rcpp8functionIv5ImageNS_6VectorILi16ENS_15PreserveStorageEEENS2_ILi14ES3_EES5_NS2_ILi13ES3_EES5_NS_6MatrixILi13ES3_EES6_NS2_ILi10ES3_EEEEvPKcPFT_T0_T1_T2_T3_T4_T5_T6_T7_T8_ENS2_ILi19ES3_EESB_"
 "_ZN4Rcpp8functionIv5ImageSsiiiEEvPKcPFT_T0_T1_T2_T3_T4_ENS_6VectorILi19ENS_15PreserveStorageEEES3_"
 "_ZN4Rcpp8functionIvEEvPKcPFT_vENS_6VectorILi19ENS_15PreserveStorageEEES2_"
 "_ZN4Rcpp8functionIvSsEEvPKcPFT_T0_ENS_6VectorILi19ENS_15PreserveStorageEEES2_"
 "_ZN4Rcpp8functionIvSsiiEEvPKcPFT_T0_T1_T2_ENS_6VectorILi19ENS_15PreserveStorageEEES2_"
 "_ZN4Rcpp8internal10basic_castILi10EEEP7SEXPRECS3_"
 "_ZN4Rcpp8internal10basic_castILi13EEEP7SEXPRECS3_"
 "_ZN4Rcpp8internal10basic_castILi14EEEP7SEXPRECS3_"
 "_ZN4Rcpp8internal10basic_castILi24EEEP7SEXPRECS3_"
 "_ZN4Rcpp8internal10range_wrapIN9__gnu_cxx17__normal_iteratorIPKiSt6vectorIiSaIiEEEEEEP7SEXPRECT_SC_"
 "_ZN4Rcpp8internal10range_wrapIPKdEEP7SEXPRECT_S6_"
 "_ZN4Rcpp8internal10range_wrapIPKfEEP7SEXPRECT_S6_"
 "_ZN4Rcpp8internal10resumeJumpEP7SEXPREC"
 "_ZN4Rcpp8internal11r_true_castILi10EEEP7SEXPRECS3_"
 "_ZN4Rcpp8internal11r_true_castILi13EEEP7SEXPRECS3_"
 "_ZN4Rcpp8internal11r_true_castILi14EEEP7SEXPRECS3_"
 "_ZN4Rcpp8internal11r_true_castILi16EEEP7SEXPRECS3_"
 "_ZN4Rcpp8internal11r_true_castILi19EEEP7SEXPRECS3_"
 "_ZN4Rcpp8internal11r_true_castILi24EEEP7SEXPRECS3_"
 "_ZN4Rcpp8internal12DimNameProxy6assignEP7SEXPREC"
 "_ZN4Rcpp8internal12DimNameProxyaSEP7SEXPREC"
 "_ZN4Rcpp8internal12DimNameProxyC1EP7SEXPRECi"
 "_ZN4Rcpp8internal12primitive_asIbEET_P7SEXPREC"
 "_ZN4Rcpp8internal12primitive_asIdEET_P7SEXPREC"
 "_ZN4Rcpp8internal12primitive_asIfEET_P7SEXPREC"
 "_ZN4Rcpp8internal12primitive_asIhEET_P7SEXPREC"
 "_ZN4Rcpp8internal12primitive_asIiEET_P7SEXPREC"
 "_ZN4Rcpp8internal12primitive_asIyEET_P7SEXPREC"
 "_ZN4Rcpp8internal12string_proxyILi16ENS_15PreserveStorageEE3setEP7SEXPREC"
 "_ZN4Rcpp8internal12string_proxyILi16ENS_15PreserveStorageEE3setISsEEvRKT_"
 "_ZN4Rcpp8internal12string_proxyILi16ENS_15PreserveStorageEE4moveEx"
 "_ZN4Rcpp8internal12string_proxyILi16ENS_15PreserveStorageEEaSEP7SEXPREC"
 "_ZN4Rcpp8internal12string_proxyILi16ENS_15PreserveStorageEEaSERKS3_"
 "_ZN4Rcpp8internal12string_proxyILi16ENS_15PreserveStorageEEaSIcEERS3_RKSbIT_St11char_traitsIS6_ESaIS6_EE"
 "_ZN4Rcpp8internal12string_proxyILi16ENS_15PreserveStorageEEC1ERKS3_"
 "_ZN4Rcpp8internal12string_proxyILi16ENS_15PreserveStorageEEC1ERNS_6VectorILi16ES2_EEx"
 "_ZN4Rcpp8internal13generic_proxyILi19ENS_15PreserveStorageEE3setEP7SEXPREC"
 "_ZN4Rcpp8internal13generic_proxyILi19ENS_15PreserveStorageEE4moveEx"
 "_ZN4Rcpp8internal13generic_proxyILi19ENS_15PreserveStorageEEaSEP7SEXPREC"
 "_ZN4Rcpp8internal13generic_proxyILi19ENS_15PreserveStorageEEaSERKS3_"
 "_ZN4Rcpp8internal13generic_proxyILi19ENS_15PreserveStorageEEaSI5ImageEERS3_RKT_"
 "_ZN4Rcpp8internal13generic_proxyILi19ENS_15PreserveStorageEEaSINS_17S4_CppConstructorI11VideoWriterEEEERS3_RKT_"
 "_ZN4Rcpp8internal13generic_proxyILi19ENS_15PreserveStorageEEaSINS_17S4_CppConstructorI5ImageEEEERS3_RKT_"
 "_ZN4Rcpp8internal13generic_proxyILi19ENS_15PreserveStorageEEaSINS_17S4_CppConstructorI5VideoEEEERS3_RKT_"
 "_ZN4Rcpp8internal13generic_proxyILi19ENS_15PreserveStorageEEaSINS_17S4_CppConstructorI6StreamEEEERS3_RKT_"
 "_ZN4Rcpp8internal13generic_proxyILi19ENS_15PreserveStorageEEaSINS_23S4_CppOverloadedMethodsI11VideoWriterEEEERS3_RKT_"
 "_ZN4Rcpp8internal13generic_proxyILi19ENS_15PreserveStorageEEaSINS_23S4_CppOverloadedMethodsI5ImageEEEERS3_RKT_"
 "_ZN4Rcpp8internal13generic_proxyILi19ENS_15PreserveStorageEEaSINS_23S4_CppOverloadedMethodsI5VideoEEEERS3_RKT_"
 "_ZN4Rcpp8internal13generic_proxyILi19ENS_15PreserveStorageEEaSINS_23S4_CppOverloadedMethodsI6StreamEEEERS3_RKT_"
 "_ZN4Rcpp8internal13generic_proxyILi19ENS_15PreserveStorageEEaSINS_8S4_fieldI11VideoWriterEEEERS3_RKT_"
 "_ZN4Rcpp8internal13generic_proxyILi19ENS_15PreserveStorageEEaSINS_8S4_fieldI5ImageEEEERS3_RKT_"
 "_ZN4Rcpp8internal13generic_proxyILi19ENS_15PreserveStorageEEaSINS_8S4_fieldI5VideoEEEERS3_RKT_"
 "_ZN4Rcpp8internal13generic_proxyILi19ENS_15PreserveStorageEEaSINS_8S4_fieldI6StreamEEEERS3_RKT_"
 "_ZN4Rcpp8internal13generic_proxyILi19ENS_15PreserveStorageEEaSISsEERS3_RKT_"
 "_ZN4Rcpp8internal13generic_proxyILi19ENS_15PreserveStorageEEC1ERKS3_"
 "_ZN4Rcpp8internal13generic_proxyILi19ENS_15PreserveStorageEEC1ERNS_6VectorILi19ES2_EEx"
 "_ZN4Rcpp8internal13make_charsexpISsEEP7SEXPRECRKT_"
 "_ZN4Rcpp8internal13r_init_vectorILi10EEEvP7SEXPREC"
 "_ZN4Rcpp8internal13r_init_vectorILi13EEEvP7SEXPREC"
 "_ZN4Rcpp8internal13r_init_vectorILi14EEEvP7SEXPREC"
 "_ZN4Rcpp8internal13r_init_vectorILi16EEEvP7SEXPREC"
 "_ZN4Rcpp8internal13r_init_vectorILi19EEEvP7SEXPREC"
 "_ZN4Rcpp8internal13wrap_dispatchI5ImageEEP7SEXPRECRKT_NS_6traits27wrap_type_module_object_tagE"
 "_ZN4Rcpp8internal13wrap_dispatchIbEEP7SEXPRECRKT_NS_6traits23wrap_type_primitive_tagE"
 "_ZN4Rcpp8internal13wrap_dispatchIdEEP7SEXPRECRKT_NS_6traits23wrap_type_primitive_tagE"
 "_ZN4Rcpp8internal13wrap_dispatchIiEEP7SEXPRECRKT_NS_6traits23wrap_type_primitive_tagE"
 "_ZN4Rcpp8internal13wrap_dispatchINS_14DataFrame_ImplINS_15PreserveStorageEEEEEP7SEXPRECRKT_NS_6traits21wrap_type_unknown_tagE"
 "_ZN4Rcpp8internal13wrap_dispatchINS_17S4_CppConstructorI11VideoWriterEEEEP7SEXPRECRKT_NS_6traits21wrap_type_unknown_tagE"
 "_ZN4Rcpp8internal13wrap_dispatchINS_17S4_CppConstructorI5ImageEEEEP7SEXPRECRKT_NS_6traits21wrap_type_unknown_tagE"
 "_ZN4Rcpp8internal13wrap_dispatchINS_17S4_CppConstructorI5VideoEEEEP7SEXPRECRKT_NS_6traits21wrap_type_unknown_tagE"
 "_ZN4Rcpp8internal13wrap_dispatchINS_17S4_CppConstructorI6StreamEEEEP7SEXPRECRKT_NS_6traits21wrap_type_unknown_tagE"
 "_ZN4Rcpp8internal13wrap_dispatchINS_23S4_CppOverloadedMethodsI11VideoWriterEEEEP7SEXPRECRKT_NS_6traits21wrap_type_unknown_tagE"
 "_ZN4Rcpp8internal13wrap_dispatchINS_23S4_CppOverloadedMethodsI5ImageEEEEP7SEXPRECRKT_NS_6traits21wrap_type_unknown_tagE"
 "_ZN4Rcpp8internal13wrap_dispatchINS_23S4_CppOverloadedMethodsI5VideoEEEEP7SEXPRECRKT_NS_6traits21wrap_type_unknown_tagE"
 "_ZN4Rcpp8internal13wrap_dispatchINS_23S4_CppOverloadedMethodsI6StreamEEEEP7SEXPRECRKT_NS_6traits21wrap_type_unknown_tagE"
 "_ZN4Rcpp8internal13wrap_dispatchINS_4XPtrI5ImageNS_15PreserveStorageEXadL_ZNS_25standard_delete_finalizerIS3_EEvPT_EELb0EEEEEP7SEXPRECRKS6_NS_6traits21wrap_type_unknown_tagE"
 "_ZN4Rcpp8internal13wrap_dispatchINS_4XPtrINS_10class_BaseENS_15PreserveStorageEXadL_ZNS_25standard_delete_finalizerIS3_EEvPT_EELb0EEEEEP7SEXPRECRKS6_NS_6traits21wrap_type_unknown_tagE"
 "_ZN4Rcpp8internal13wrap_dispatchINS_4XPtrINS_11CppPropertyI11VideoWriterEENS_15PreserveStorageEXadL_ZNS_25standard_delete_finalizerIS5_EEvPT_EELb0EEEEEP7SEXPRECRKS8_NS_6traits21wrap_type_unknown_tagE"
 "_ZN4Rcpp8internal13wrap_dispatchINS_4XPtrINS_11CppPropertyI5ImageEENS_15PreserveStorageEXadL_ZNS_25standard_delete_finalizerIS5_EEvPT_EELb0EEEEEP7SEXPRECRKS8_NS_6traits21wrap_type_unknown_tagE"
 "_ZN4Rcpp8internal13wrap_dispatchINS_4XPtrINS_11CppPropertyI5VideoEENS_15PreserveStorageEXadL_ZNS_25standard_delete_finalizerIS5_EEvPT_EELb0EEEEEP7SEXPRECRKS8_NS_6traits21wrap_type_unknown_tagE"
 "_ZN4Rcpp8internal13wrap_dispatchINS_4XPtrINS_11CppPropertyI6StreamEENS_15PreserveStorageEXadL_ZNS_25standard_delete_finalizerIS5_EEvPT_EELb0EEEEEP7SEXPRECRKS8_NS_6traits21wrap_type_unknown_tagE"
 "_ZN4Rcpp8internal13wrap_dispatchINS_4XPtrINS_17SignedConstructorI11VideoWriterEENS_15PreserveStorageEXadL_ZNS_25standard_delete_finalizerIS5_EEvPT_EELb0EEEEEP7SEXPRECRKS8_NS_6traits21wrap_type_unknown_tagE"
 "_ZN4Rcpp8internal13wrap_dispatchINS_4XPtrINS_17SignedConstructorI5ImageEENS_15PreserveStorageEXadL_ZNS_25standard_delete_finalizerIS5_EEvPT_EELb0EEEEEP7SEXPRECRKS8_NS_6traits21wrap_type_unknown_tagE"
 "_ZN4Rcpp8internal13wrap_dispatchINS_4XPtrINS_17SignedConstructorI5VideoEENS_15PreserveStorageEXadL_ZNS_25standard_delete_finalizerIS5_EEvPT_EELb0EEEEEP7SEXPRECRKS8_NS_6traits21wrap_type_unknown_tagE"
 "_ZN4Rcpp8internal13wrap_dispatchINS_4XPtrINS_17SignedConstructorI6StreamEENS_15PreserveStorageEXadL_ZNS_25standard_delete_finalizerIS5_EEvPT_EELb0EEEEEP7SEXPRECRKS8_NS_6traits21wrap_type_unknown_tagE"
 "_ZN4Rcpp8internal13wrap_dispatchINS_4XPtrISt6vectorIPNS_12SignedMethodI11VideoWriterEESaIS7_EENS_15PreserveStorageEXadL_ZNS_25standard_delete_finalizerIS9_EEvPT_EELb0EEEEEP7SEXPRECRKSC_NS_6traits21wrap_type_unknown_tagE"
 "_ZN4Rcpp8internal13wrap_dispatchINS_4XPtrISt6vectorIPNS_12SignedMethodI5ImageEESaIS7_EENS_15PreserveStorageEXadL_ZNS_25standard_delete_finalizerIS9_EEvPT_EELb0EEEEEP7SEXPRECRKSC_NS_6traits21wrap_type_unknown_tagE"
 "_ZN4Rcpp8internal13wrap_dispatchINS_4XPtrISt6vectorIPNS_12SignedMethodI5VideoEESaIS7_EENS_15PreserveStorageEXadL_ZNS_25standard_delete_finalizerIS9_EEvPT_EELb0EEEEEP7SEXPRECRKSC_NS_6traits21wrap_type_unknown_tagE"
 "_ZN4Rcpp8internal13wrap_dispatchINS_4XPtrISt6vectorIPNS_12SignedMethodI6StreamEESaIS7_EENS_15PreserveStorageEXadL_ZNS_25standard_delete_finalizerIS9_EEvPT_EELb0EEEEEP7SEXPRECRKSC_NS_6traits21wrap_type_unknown_tagE"
 "_ZN4Rcpp8internal13wrap_dispatchINS_5sugar21Plus_Vector_PrimitiveILi14ELb1ENS_6VectorILi14ENS_15PreserveStorageEEEEEEEP7SEXPRECRKT_NS_6traits21wrap_type_unknown_tagE"
 "_ZN4Rcpp8internal13wrap_dispatchINS_5sugar21Plus_Vector_PrimitiveILi14ELb1ENS2_17UnaryMinus_VectorILi14ELb1ENS_6VectorILi14ENS_15PreserveStorageEEEEEEEEEP7SEXPRECRKT_NS_6traits21wrap_type_unknown_tagE"
 "_ZN4Rcpp8internal13wrap_dispatchINS_6MatrixILi14ENS_15PreserveStorageEEEEEP7SEXPRECRKT_NS_6traits21wrap_type_unknown_tagE"
 "_ZN4Rcpp8internal13wrap_dispatchINS_6ShieldIP7SEXPRECEEEES4_RKT_NS_6traits21wrap_type_unknown_tagE"
 "_ZN4Rcpp8internal13wrap_dispatchINS_6VectorILi10ENS_15PreserveStorageEEEEEP7SEXPRECRKT_NS_6traits21wrap_type_unknown_tagE"
 "_ZN4Rcpp8internal13wrap_dispatchINS_6VectorILi13ENS_15PreserveStorageEEEEEP7SEXPRECRKT_NS_6traits21wrap_type_unknown_tagE"
 "_ZN4Rcpp8internal13wrap_dispatchINS_6VectorILi14ENS_15PreserveStorageEEEEEP7SEXPRECRKT_NS_6traits21wrap_type_unknown_tagE"
 "_ZN4Rcpp8internal13wrap_dispatchINS_6VectorILi16ENS_15PreserveStorageEEEEEP7SEXPRECRKT_NS_6traits21wrap_type_unknown_tagE"
 "_ZN4Rcpp8internal13wrap_dispatchINS_6VectorILi19ENS_15PreserveStorageEEEEEP7SEXPRECRKT_NS_6traits21wrap_type_unknown_tagE"
 "_ZN4Rcpp8internal13wrap_dispatchINS_8S4_fieldI11VideoWriterEEEEP7SEXPRECRKT_NS_6traits21wrap_type_unknown_tagE"
 "_ZN4Rcpp8internal13wrap_dispatchINS_8S4_fieldI5ImageEEEEP7SEXPRECRKT_NS_6traits21wrap_type_unknown_tagE"
 "_ZN4Rcpp8internal13wrap_dispatchINS_8S4_fieldI5VideoEEEEP7SEXPRECRKT_NS_6traits21wrap_type_unknown_tagE"
 "_ZN4Rcpp8internal13wrap_dispatchINS_8S4_fieldI6StreamEEEEP7SEXPRECRKT_NS_6traits21wrap_type_unknown_tagE"
 "_ZN4Rcpp8internal13wrap_dispatchINS_9DimensionEEEP7SEXPRECRKT_NS_6traits21wrap_type_unknown_tagE"
 "_ZN4Rcpp8internal13wrap_dispatchIP7SEXPRECEES3_RKT_NS_6traits21wrap_type_unknown_tagE"
 "_ZN4Rcpp8internal13wrap_dispatchISsEEP7SEXPRECRKT_NS_6traits23wrap_type_primitive_tagE"
 "_ZN4Rcpp8internal14grow__dispatchINS_4XPtrI5ImageNS_15PreserveStorageEXadL_ZNS_25standard_delete_finalizerIS3_EEvPT_EELb0EEEEEP7SEXPRECNS_6traits17integral_constantIbLb0EEERKS6_SA_"
 "_ZN4Rcpp8internal14grow__dispatchISsEEP7SEXPRECNS_6traits17integral_constantIbLb0EEERKT_S3_"
 "_ZN4Rcpp8internal14primitive_wrapIbEEP7SEXPRECRKT_"
 "_ZN4Rcpp8internal14primitive_wrapIdEEP7SEXPRECRKT_"
 "_ZN4Rcpp8internal14primitive_wrapIiEEP7SEXPRECRKT_"
 "_ZN4Rcpp8internal14primitive_wrapISsEEP7SEXPRECRKT_"
 "_ZN4Rcpp8internal14Proxy_IteratorINS0_12string_proxyILi16ENS_15PreserveStorageEEEEC1ERKS4_"
 "_ZN4Rcpp8internal14Proxy_IteratorINS0_12string_proxyILi16ENS_15PreserveStorageEEEEC1ERKS5_"
 "_ZN4Rcpp8internal14Proxy_IteratorINS0_12string_proxyILi16ENS_15PreserveStorageEEEEdeEv"
 "_ZN4Rcpp8internal14Proxy_IteratorINS0_12string_proxyILi16ENS_15PreserveStorageEEEEppEv"
 "_ZN4Rcpp8internal14Proxy_IteratorINS0_13generic_proxyILi19ENS_15PreserveStorageEEEEC1ERKS4_"
 "_ZN4Rcpp8internal14Proxy_IteratorINS0_13generic_proxyILi19ENS_15PreserveStorageEEEEC1ERKS5_"
 "_ZN4Rcpp8internal14Proxy_IteratorINS0_13generic_proxyILi19ENS_15PreserveStorageEEEEdeEv"
 "_ZN4Rcpp8internal14Proxy_IteratorINS0_13generic_proxyILi19ENS_15PreserveStorageEEEEppEv"
 "_ZN4Rcpp8internal14r_vector_startILi10EEEPNS_6traits12storage_typeIXT_EE4typeEP7SEXPREC"
 "_ZN4Rcpp8internal14r_vector_startILi13EEEPNS_6traits12storage_typeIXT_EE4typeEP7SEXPREC"
 "_ZN4Rcpp8internal14r_vector_startILi14EEEPNS_6traits12storage_typeIXT_EE4typeEP7SEXPREC"
 "_ZN4Rcpp8internal14r_vector_startILi24EEEPNS_6traits12storage_typeIXT_EE4typeEP7SEXPREC"
 "_ZN4Rcpp8internal14Rcpp_eval_implEP7SEXPRECS2_"
 "_ZN4Rcpp8internal15export_indexingIN4arma3ColIfEEfEEvP7SEXPRECRT_"
 "_ZN4Rcpp8internal15export_indexingIN4arma3MatIfEEfEEvP7SEXPRECRT_"
 "_ZN4Rcpp8internal15make_new_objectI5ImageEEP7SEXPRECPT_"
 "_ZN4Rcpp8internal16as_module_objectI5ImageEENS_6objectIT_EEP7SEXPREC"
 "_ZN4Rcpp8internal16getLongjumpTokenEP7SEXPREC"
 "_ZN4Rcpp8internal16NamedPlaceHolderC1Ev"
 "_ZN4Rcpp8internal16NamedPlaceHolderD1Ev"
 "_ZN4Rcpp8internal17element_converterILi14EE3getERKd"
 "_ZN4Rcpp8internal17element_converterILi14EE3getIhEEdRKT_"
 "_ZN4Rcpp8internal17element_converterILi14EE3getIiEEdRKT_"
 "_ZN4Rcpp8internal17element_converterILi14EE3getItEEdRKT_"
 "_ZN4Rcpp8internal17is_Rcpp_eval_callEP7SEXPREC"
 "_ZN4Rcpp8internal18get_Rcpp_namespaceEv"
 "_ZN4Rcpp8internal18isLongjumpSentinelEP7SEXPREC"
 "_ZN4Rcpp8internal18vector_from_stringILi19EEEP7SEXPRECRKSs"
 "_ZN4Rcpp8internal19check_single_stringEP7SEXPREC"
 "_ZN4Rcpp8internal19make_charsexp__implISsEEP7SEXPRECRKT_NS_6traits17integral_constantIbLb0EEE"
 "_ZN4Rcpp8internal19range_wrap_dispatchIN9__gnu_cxx17__normal_iteratorIPKiSt6vectorIiSaIiEEEEiEEP7SEXPRECT_SC_"
 "_ZN4Rcpp8internal19range_wrap_dispatchIPKddEEP7SEXPRECT_S6_"
 "_ZN4Rcpp8internal19range_wrap_dispatchIPKffEEP7SEXPRECT_S6_"
 "_ZN4Rcpp8internal19wrap_dispatch_eigenINS_14DataFrame_ImplINS_15PreserveStorageEEEEEP7SEXPRECRKT_NS_6traits17integral_constantIbLb0EEE"
 "_ZN4Rcpp8internal19wrap_dispatch_eigenINS_17S4_CppConstructorI11VideoWriterEEEEP7SEXPRECRKT_NS_6traits17integral_constantIbLb0EEE"
 "_ZN4Rcpp8internal19wrap_dispatch_eigenINS_17S4_CppConstructorI5ImageEEEEP7SEXPRECRKT_NS_6traits17integral_constantIbLb0EEE"
 "_ZN4Rcpp8internal19wrap_dispatch_eigenINS_17S4_CppConstructorI5VideoEEEEP7SEXPRECRKT_NS_6traits17integral_constantIbLb0EEE"
 "_ZN4Rcpp8internal19wrap_dispatch_eigenINS_17S4_CppConstructorI6StreamEEEEP7SEXPRECRKT_NS_6traits17integral_constantIbLb0EEE"
 "_ZN4Rcpp8internal19wrap_dispatch_eigenINS_23S4_CppOverloadedMethodsI11VideoWriterEEEEP7SEXPRECRKT_NS_6traits17integral_constantIbLb0EEE"
 "_ZN4Rcpp8internal19wrap_dispatch_eigenINS_23S4_CppOverloadedMethodsI5ImageEEEEP7SEXPRECRKT_NS_6traits17integral_constantIbLb0EEE"
 "_ZN4Rcpp8internal19wrap_dispatch_eigenINS_23S4_CppOverloadedMethodsI5VideoEEEEP7SEXPRECRKT_NS_6traits17integral_constantIbLb0EEE"
 "_ZN4Rcpp8internal19wrap_dispatch_eigenINS_23S4_CppOverloadedMethodsI6StreamEEEEP7SEXPRECRKT_NS_6traits17integral_constantIbLb0EEE"
 "_ZN4Rcpp8internal19wrap_dispatch_eigenINS_4XPtrI5ImageNS_15PreserveStorageEXadL_ZNS_25standard_delete_finalizerIS3_EEvPT_EELb0EEEEEP7SEXPRECRKS6_NS_6traits17integral_constantIbLb0EEE"
 "_ZN4Rcpp8internal19wrap_dispatch_eigenINS_4XPtrINS_10class_BaseENS_15PreserveStorageEXadL_ZNS_25standard_delete_finalizerIS3_EEvPT_EELb0EEEEEP7SEXPRECRKS6_NS_6traits17integral_constantIbLb0EEE"
 "_ZN4Rcpp8internal19wrap_dispatch_eigenINS_4XPtrINS_11CppPropertyI11VideoWriterEENS_15PreserveStorageEXadL_ZNS_25standard_delete_finalizerIS5_EEvPT_EELb0EEEEEP7SEXPRECRKS8_NS_6traits17integral_constantIbLb0EEE"
 "_ZN4Rcpp8internal19wrap_dispatch_eigenINS_4XPtrINS_11CppPropertyI5ImageEENS_15PreserveStorageEXadL_ZNS_25standard_delete_finalizerIS5_EEvPT_EELb0EEEEEP7SEXPRECRKS8_NS_6traits17integral_constantIbLb0EEE"
 "_ZN4Rcpp8internal19wrap_dispatch_eigenINS_4XPtrINS_11CppPropertyI5VideoEENS_15PreserveStorageEXadL_ZNS_25standard_delete_finalizerIS5_EEvPT_EELb0EEEEEP7SEXPRECRKS8_NS_6traits17integral_constantIbLb0EEE"
 "_ZN4Rcpp8internal19wrap_dispatch_eigenINS_4XPtrINS_11CppPropertyI6StreamEENS_15PreserveStorageEXadL_ZNS_25standard_delete_finalizerIS5_EEvPT_EELb0EEEEEP7SEXPRECRKS8_NS_6traits17integral_constantIbLb0EEE"
 "_ZN4Rcpp8internal19wrap_dispatch_eigenINS_4XPtrINS_17SignedConstructorI11VideoWriterEENS_15PreserveStorageEXadL_ZNS_25standard_delete_finalizerIS5_EEvPT_EELb0EEEEEP7SEXPRECRKS8_NS_6traits17integral_constantIbLb0EEE"
 "_ZN4Rcpp8internal19wrap_dispatch_eigenINS_4XPtrINS_17SignedConstructorI5ImageEENS_15PreserveStorageEXadL_ZNS_25standard_delete_finalizerIS5_EEvPT_EELb0EEEEEP7SEXPRECRKS8_NS_6traits17integral_constantIbLb0EEE"
 "_ZN4Rcpp8internal19wrap_dispatch_eigenINS_4XPtrINS_17SignedConstructorI5VideoEENS_15PreserveStorageEXadL_ZNS_25standard_delete_finalizerIS5_EEvPT_EELb0EEEEEP7SEXPRECRKS8_NS_6traits17integral_constantIbLb0EEE"
 "_ZN4Rcpp8internal19wrap_dispatch_eigenINS_4XPtrINS_17SignedConstructorI6StreamEENS_15PreserveStorageEXadL_ZNS_25standard_delete_finalizerIS5_EEvPT_EELb0EEEEEP7SEXPRECRKS8_NS_6traits17integral_constantIbLb0EEE"
 "_ZN4Rcpp8internal19wrap_dispatch_eigenINS_4XPtrISt6vectorIPNS_12SignedMethodI11VideoWriterEESaIS7_EENS_15PreserveStorageEXadL_ZNS_25standard_delete_finalizerIS9_EEvPT_EELb0EEEEEP7SEXPRECRKSC_NS_6traits17integral_constantIbLb0EEE"
 "_ZN4Rcpp8internal19wrap_dispatch_eigenINS_4XPtrISt6vectorIPNS_12SignedMethodI5ImageEESaIS7_EENS_15PreserveStorageEXadL_ZNS_25standard_delete_finalizerIS9_EEvPT_EELb0EEEEEP7SEXPRECRKSC_NS_6traits17integral_constantIbLb0EEE"
 "_ZN4Rcpp8internal19wrap_dispatch_eigenINS_4XPtrISt6vectorIPNS_12SignedMethodI5VideoEESaIS7_EENS_15PreserveStorageEXadL_ZNS_25standard_delete_finalizerIS9_EEvPT_EELb0EEEEEP7SEXPRECRKSC_NS_6traits17integral_constantIbLb0EEE"
 "_ZN4Rcpp8internal19wrap_dispatch_eigenINS_4XPtrISt6vectorIPNS_12SignedMethodI6StreamEESaIS7_EENS_15PreserveStorageEXadL_ZNS_25standard_delete_finalizerIS9_EEvPT_EELb0EEEEEP7SEXPRECRKSC_NS_6traits17integral_constantIbLb0EEE"
 "_ZN4Rcpp8internal19wrap_dispatch_eigenINS_5sugar21Plus_Vector_PrimitiveILi14ELb1ENS_6VectorILi14ENS_15PreserveStorageEEEEEEEP7SEXPRECRKT_NS_6traits17integral_constantIbLb0EEE"
 "_ZN4Rcpp8internal19wrap_dispatch_eigenINS_5sugar21Plus_Vector_PrimitiveILi14ELb1ENS2_17UnaryMinus_VectorILi14ELb1ENS_6VectorILi14ENS_15PreserveStorageEEEEEEEEEP7SEXPRECRKT_NS_6traits17integral_constantIbLb0EEE"
 "_ZN4Rcpp8internal19wrap_dispatch_eigenINS_6MatrixILi14ENS_15PreserveStorageEEEEEP7SEXPRECRKT_NS_6traits17integral_constantIbLb0EEE"
 "_ZN4Rcpp8internal19wrap_dispatch_eigenINS_6ShieldIP7SEXPRECEEEES4_RKT_NS_6traits17integral_constantIbLb0EEE"
 "_ZN4Rcpp8internal19wrap_dispatch_eigenINS_6VectorILi10ENS_15PreserveStorageEEEEEP7SEXPRECRKT_NS_6traits17integral_constantIbLb0EEE"
 "_ZN4Rcpp8internal19wrap_dispatch_eigenINS_6VectorILi13ENS_15PreserveStorageEEEEEP7SEXPRECRKT_NS_6traits17integral_constantIbLb0EEE"
 "_ZN4Rcpp8internal19wrap_dispatch_eigenINS_6VectorILi14ENS_15PreserveStorageEEEEEP7SEXPRECRKT_NS_6traits17integral_constantIbLb0EEE"
 "_ZN4Rcpp8internal19wrap_dispatch_eigenINS_6VectorILi16ENS_15PreserveStorageEEEEEP7SEXPRECRKT_NS_6traits17integral_constantIbLb0EEE"
 "_ZN4Rcpp8internal19wrap_dispatch_eigenINS_6VectorILi19ENS_15PreserveStorageEEEEEP7SEXPRECRKT_NS_6traits17integral_constantIbLb0EEE"
 "_ZN4Rcpp8internal19wrap_dispatch_eigenINS_8S4_fieldI11VideoWriterEEEEP7SEXPRECRKT_NS_6traits17integral_constantIbLb0EEE"
 "_ZN4Rcpp8internal19wrap_dispatch_eigenINS_8S4_fieldI5ImageEEEEP7SEXPRECRKT_NS_6traits17integral_constantIbLb0EEE"
 "_ZN4Rcpp8internal19wrap_dispatch_eigenINS_8S4_fieldI5VideoEEEEP7SEXPRECRKT_NS_6traits17integral_constantIbLb0EEE"
 "_ZN4Rcpp8internal19wrap_dispatch_eigenINS_8S4_fieldI6StreamEEEEP7SEXPRECRKT_NS_6traits17integral_constantIbLb0EEE"
 "_ZN4Rcpp8internal19wrap_dispatch_eigenINS_9DimensionEEEP7SEXPRECRKT_NS_6traits17integral_constantIbLb0EEE"
 "_ZN4Rcpp8internal19wrap_dispatch_eigenIP7SEXPRECEES3_RKT_NS_6traits17integral_constantIbLb0EEE"
 "_ZN4Rcpp8internal20primitive_wrap__implIbEEP7SEXPRECRKT_NS_6traits20r_type_primitive_tagE"
 "_ZN4Rcpp8internal20primitive_wrap__implIdEEP7SEXPRECRKT_NS_6traits20r_type_primitive_tagE"
 "_ZN4Rcpp8internal20primitive_wrap__implIiEEP7SEXPRECRKT_NS_6traits20r_type_primitive_tagE"
 "_ZN4Rcpp8internal20primitive_wrap__implISsEEP7SEXPRECRKT_NS_6traits17r_type_string_tagE"
 "_ZN4Rcpp8internal21export_indexing__implIN4arma3ColIfEEfEEvP7SEXPRECRT_NS_6traits17integral_constantIbLb1EEE"
 "_ZN4Rcpp8internal21export_indexing__implIN4arma3MatIfEEfEEvP7SEXPRECRT_NS_6traits17integral_constantIbLb1EEE"
 "_ZN4Rcpp8internal21wrap_dispatch_unknownINS_14DataFrame_ImplINS_15PreserveStorageEEEEEP7SEXPRECRKT_NS_6traits17integral_constantIbLb1EEE"
 "_ZN4Rcpp8internal21wrap_dispatch_unknownINS_17S4_CppConstructorI11VideoWriterEEEEP7SEXPRECRKT_NS_6traits17integral_constantIbLb1EEE"
 "_ZN4Rcpp8internal21wrap_dispatch_unknownINS_17S4_CppConstructorI5ImageEEEEP7SEXPRECRKT_NS_6traits17integral_constantIbLb1EEE"
 "_ZN4Rcpp8internal21wrap_dispatch_unknownINS_17S4_CppConstructorI5VideoEEEEP7SEXPRECRKT_NS_6traits17integral_constantIbLb1EEE"
 "_ZN4Rcpp8internal21wrap_dispatch_unknownINS_17S4_CppConstructorI6StreamEEEEP7SEXPRECRKT_NS_6traits17integral_constantIbLb1EEE"
 "_ZN4Rcpp8internal21wrap_dispatch_unknownINS_23S4_CppOverloadedMethodsI11VideoWriterEEEEP7SEXPRECRKT_NS_6traits17integral_constantIbLb1EEE"
 "_ZN4Rcpp8internal21wrap_dispatch_unknownINS_23S4_CppOverloadedMethodsI5ImageEEEEP7SEXPRECRKT_NS_6traits17integral_constantIbLb1EEE"
 "_ZN4Rcpp8internal21wrap_dispatch_unknownINS_23S4_CppOverloadedMethodsI5VideoEEEEP7SEXPRECRKT_NS_6traits17integral_constantIbLb1EEE"
 "_ZN4Rcpp8internal21wrap_dispatch_unknownINS_23S4_CppOverloadedMethodsI6StreamEEEEP7SEXPRECRKT_NS_6traits17integral_constantIbLb1EEE"
 "_ZN4Rcpp8internal21wrap_dispatch_unknownINS_4XPtrI5ImageNS_15PreserveStorageEXadL_ZNS_25standard_delete_finalizerIS3_EEvPT_EELb0EEEEEP7SEXPRECRKS6_NS_6traits17integral_constantIbLb1EEE"
 "_ZN4Rcpp8internal21wrap_dispatch_unknownINS_4XPtrINS_10class_BaseENS_15PreserveStorageEXadL_ZNS_25standard_delete_finalizerIS3_EEvPT_EELb0EEEEEP7SEXPRECRKS6_NS_6traits17integral_constantIbLb1EEE"
 "_ZN4Rcpp8internal21wrap_dispatch_unknownINS_4XPtrINS_11CppPropertyI11VideoWriterEENS_15PreserveStorageEXadL_ZNS_25standard_delete_finalizerIS5_EEvPT_EELb0EEEEEP7SEXPRECRKS8_NS_6traits17integral_constantIbLb1EEE"
 "_ZN4Rcpp8internal21wrap_dispatch_unknownINS_4XPtrINS_11CppPropertyI5ImageEENS_15PreserveStorageEXadL_ZNS_25standard_delete_finalizerIS5_EEvPT_EELb0EEEEEP7SEXPRECRKS8_NS_6traits17integral_constantIbLb1EEE"
 "_ZN4Rcpp8internal21wrap_dispatch_unknownINS_4XPtrINS_11CppPropertyI5VideoEENS_15PreserveStorageEXadL_ZNS_25standard_delete_finalizerIS5_EEvPT_EELb0EEEEEP7SEXPRECRKS8_NS_6traits17integral_constantIbLb1EEE"
 "_ZN4Rcpp8internal21wrap_dispatch_unknownINS_4XPtrINS_11CppPropertyI6StreamEENS_15PreserveStorageEXadL_ZNS_25standard_delete_finalizerIS5_EEvPT_EELb0EEEEEP7SEXPRECRKS8_NS_6traits17integral_constantIbLb1EEE"
 "_ZN4Rcpp8internal21wrap_dispatch_unknownINS_4XPtrINS_17SignedConstructorI11VideoWriterEENS_15PreserveStorageEXadL_ZNS_25standard_delete_finalizerIS5_EEvPT_EELb0EEEEEP7SEXPRECRKS8_NS_6traits17integral_constantIbLb1EEE"
 "_ZN4Rcpp8internal21wrap_dispatch_unknownINS_4XPtrINS_17SignedConstructorI5ImageEENS_15PreserveStorageEXadL_ZNS_25standard_delete_finalizerIS5_EEvPT_EELb0EEEEEP7SEXPRECRKS8_NS_6traits17integral_constantIbLb1EEE"
 "_ZN4Rcpp8internal21wrap_dispatch_unknownINS_4XPtrINS_17SignedConstructorI5VideoEENS_15PreserveStorageEXadL_ZNS_25standard_delete_finalizerIS5_EEvPT_EELb0EEEEEP7SEXPRECRKS8_NS_6traits17integral_constantIbLb1EEE"
 "_ZN4Rcpp8internal21wrap_dispatch_unknownINS_4XPtrINS_17SignedConstructorI6StreamEENS_15PreserveStorageEXadL_ZNS_25standard_delete_finalizerIS5_EEvPT_EELb0EEEEEP7SEXPRECRKS8_NS_6traits17integral_constantIbLb1EEE"
 "_ZN4Rcpp8internal21wrap_dispatch_unknownINS_4XPtrISt6vectorIPNS_12SignedMethodI11VideoWriterEESaIS7_EENS_15PreserveStorageEXadL_ZNS_25standard_delete_finalizerIS9_EEvPT_EELb0EEEEEP7SEXPRECRKSC_NS_6traits17integral_constantIbLb1EEE"
 "_ZN4Rcpp8internal21wrap_dispatch_unknownINS_4XPtrISt6vectorIPNS_12SignedMethodI5ImageEESaIS7_EENS_15PreserveStorageEXadL_ZNS_25standard_delete_finalizerIS9_EEvPT_EELb0EEEEEP7SEXPRECRKSC_NS_6traits17integral_constantIbLb1EEE"
 "_ZN4Rcpp8internal21wrap_dispatch_unknownINS_4XPtrISt6vectorIPNS_12SignedMethodI5VideoEESaIS7_EENS_15PreserveStorageEXadL_ZNS_25standard_delete_finalizerIS9_EEvPT_EELb0EEEEEP7SEXPRECRKSC_NS_6traits17integral_constantIbLb1EEE"
 "_ZN4Rcpp8internal21wrap_dispatch_unknownINS_4XPtrISt6vectorIPNS_12SignedMethodI6StreamEESaIS7_EENS_15PreserveStorageEXadL_ZNS_25standard_delete_finalizerIS9_EEvPT_EELb0EEEEEP7SEXPRECRKSC_NS_6traits17integral_constantIbLb1EEE"
 "_ZN4Rcpp8internal21wrap_dispatch_unknownINS_5sugar21Plus_Vector_PrimitiveILi14ELb1ENS_6VectorILi14ENS_15PreserveStorageEEEEEEEP7SEXPRECRKT_NS_6traits17integral_constantIbLb0EEE"
 "_ZN4Rcpp8internal21wrap_dispatch_unknownINS_5sugar21Plus_Vector_PrimitiveILi14ELb1ENS2_17UnaryMinus_VectorILi14ELb1ENS_6VectorILi14ENS_15PreserveStorageEEEEEEEEEP7SEXPRECRKT_NS_6traits17integral_constantIbLb0EEE"
 "_ZN4Rcpp8internal21wrap_dispatch_unknownINS_6MatrixILi14ENS_15PreserveStorageEEEEEP7SEXPRECRKT_NS_6traits17integral_constantIbLb1EEE"
 "_ZN4Rcpp8internal21wrap_dispatch_unknownINS_6ShieldIP7SEXPRECEEEES4_RKT_NS_6traits17integral_constantIbLb1EEE"
 "_ZN4Rcpp8internal21wrap_dispatch_unknownINS_6VectorILi10ENS_15PreserveStorageEEEEEP7SEXPRECRKT_NS_6traits17integral_constantIbLb1EEE"
 "_ZN4Rcpp8internal21wrap_dispatch_unknownINS_6VectorILi13ENS_15PreserveStorageEEEEEP7SEXPRECRKT_NS_6traits17integral_constantIbLb1EEE"
 "_ZN4Rcpp8internal21wrap_dispatch_unknownINS_6VectorILi14ENS_15PreserveStorageEEEEEP7SEXPRECRKT_NS_6traits17integral_constantIbLb1EEE"
 "_ZN4Rcpp8internal21wrap_dispatch_unknownINS_6VectorILi16ENS_15PreserveStorageEEEEEP7SEXPRECRKT_NS_6traits17integral_constantIbLb1EEE"
 "_ZN4Rcpp8internal21wrap_dispatch_unknownINS_6VectorILi19ENS_15PreserveStorageEEEEEP7SEXPRECRKT_NS_6traits17integral_constantIbLb1EEE"
 "_ZN4Rcpp8internal21wrap_dispatch_unknownINS_8S4_fieldI11VideoWriterEEEEP7SEXPRECRKT_NS_6traits17integral_constantIbLb1EEE"
 "_ZN4Rcpp8internal21wrap_dispatch_unknownINS_8S4_fieldI5ImageEEEEP7SEXPRECRKT_NS_6traits17integral_constantIbLb1EEE"
 "_ZN4Rcpp8internal21wrap_dispatch_unknownINS_8S4_fieldI5VideoEEEEP7SEXPRECRKT_NS_6traits17integral_constantIbLb1EEE"
 "_ZN4Rcpp8internal21wrap_dispatch_unknownINS_8S4_fieldI6StreamEEEEP7SEXPRECRKT_NS_6traits17integral_constantIbLb1EEE"
 "_ZN4Rcpp8internal21wrap_dispatch_unknownINS_9DimensionEEEP7SEXPRECRKT_NS_6traits17integral_constantIbLb1EEE"
 "_ZN4Rcpp8internal21wrap_dispatch_unknownIP7SEXPRECEES3_RKT_NS_6traits17integral_constantIbLb1EEE"
 "_ZN4Rcpp8internal23convert_using_rfunctionEP7SEXPRECPKc"
 "_ZN4Rcpp8internal24string_element_converterILi16EE3getIA2_cEEP7SEXPRECRKT_"
 "_ZN4Rcpp8internal24string_element_converterILi16EE3getIA4_cEEP7SEXPRECRKT_"
 "_ZN4Rcpp8internal25as_module_object_internalEP7SEXPREC"
 "_ZN4Rcpp8internal25export_indexing__dispatchIN4arma3ColIfEEfEEvP7SEXPRECRT_NS_6traits20r_type_primitive_tagE"
 "_ZN4Rcpp8internal25export_indexing__dispatchIN4arma3MatIfEEfEEvP7SEXPRECRT_NS_6traits20r_type_primitive_tagE"
 "_ZN4Rcpp8internal25generic_element_converterILi19EE3getEP7SEXPREC"
 "_ZN4Rcpp8internal25generic_element_converterILi19EE3getI5ImageEEP7SEXPRECRKT_"
 "_ZN4Rcpp8internal25generic_element_converterILi19EE3getIbEEP7SEXPRECRKT_"
 "_ZN4Rcpp8internal25generic_element_converterILi19EE3getIiEEP7SEXPRECRKT_"
 "_ZN4Rcpp8internal25generic_element_converterILi19EE3getINS_14DataFrame_ImplINS_15PreserveStorageEEEEEP7SEXPRECRKT_"
 "_ZN4Rcpp8internal25generic_element_converterILi19EE3getINS_5sugar21Plus_Vector_PrimitiveILi14ELb1ENS_6VectorILi14ENS_15PreserveStorageEEEEEEEP7SEXPRECRKT_"
 "_ZN4Rcpp8internal25generic_element_converterILi19EE3getINS_5sugar21Plus_Vector_PrimitiveILi14ELb1ENS4_17UnaryMinus_VectorILi14ELb1ENS_6VectorILi14ENS_15PreserveStorageEEEEEEEEEP7SEXPRECRKT_"
 "_ZN4Rcpp8internal25generic_element_converterILi19EE3getINS_6VectorILi13ENS_15PreserveStorageEEEEEP7SEXPRECRKT_"
 "_ZN4Rcpp8internal25generic_element_converterILi19EE3getINS_6VectorILi14ENS_15PreserveStorageEEEEEP7SEXPRECRKT_"
 "_ZN4Rcpp8internal26primitive_range_wrap__implIN9__gnu_cxx17__normal_iteratorIPKiSt6vectorIiSaIiEEEEiEEP7SEXPRECT_SC_NS_6traits17integral_constantIbLb0EEE"
 "_ZN4Rcpp8internal26primitive_range_wrap__implIPKddEEP7SEXPRECT_S6_NS_6traits17integral_constantIbLb0EEE"
 "_ZN4Rcpp8internal26primitive_range_wrap__implIPKffEEP7SEXPRECT_S6_NS_6traits17integral_constantIbLb1EEE"
 "_ZN4Rcpp8internal26primitive_wrap__impl__castIbEEP7SEXPRECRKT_NS_6traits17integral_constantIbLb1EEE"
 "_ZN4Rcpp8internal26primitive_wrap__impl__castIdEEP7SEXPRECRKT_NS_6traits17integral_constantIbLb0EEE"
 "_ZN4Rcpp8internal26primitive_wrap__impl__castIiEEP7SEXPRECRKT_NS_6traits17integral_constantIbLb0EEE"
 "_ZN4Rcpp8internal26range_wrap_dispatch___implIN9__gnu_cxx17__normal_iteratorIPKiSt6vectorIiSaIiEEEEiEEP7SEXPRECT_SC_NS_6traits20r_type_primitive_tagE"
 "_ZN4Rcpp8internal26range_wrap_dispatch___implIPKddEEP7SEXPRECT_S6_NS_6traits20r_type_primitive_tagE"
 "_ZN4Rcpp8internal26range_wrap_dispatch___implIPKffEEP7SEXPRECT_S6_NS_6traits20r_type_primitive_tagE"
 "_ZN4Rcpp8internal27wrap_range_sugar_expressionINS_5sugar21Plus_Vector_PrimitiveILi14ELb1ENS_6VectorILi14ENS_15PreserveStorageEEEEEEEP7SEXPRECRKT_NS_6traits17integral_constantIbLb1EEE"
 "_ZN4Rcpp8internal27wrap_range_sugar_expressionINS_5sugar21Plus_Vector_PrimitiveILi14ELb1ENS2_17UnaryMinus_VectorILi14ELb1ENS_6VectorILi14ENS_15PreserveStorageEEEEEEEEEP7SEXPRECRKT_NS_6traits17integral_constantIbLb1EEE"
 "_ZN4Rcpp8internal28make_charsexp__impl__cstringEPKc"
 "_ZN4Rcpp8internal28make_charsexp__impl__cstringERKSs"
 "_ZN4Rcpp8internal2asI5ImageEET_P7SEXPRECNS_6traits24r_type_module_object_tagE"
 "_ZN4Rcpp8internal2asIbEET_P7SEXPRECNS_6traits20r_type_primitive_tagE"
 "_ZN4Rcpp8internal2asIdEET_P7SEXPRECNS_6traits20r_type_primitive_tagE"
 "_ZN4Rcpp8internal2asIfEET_P7SEXPRECNS_6traits20r_type_primitive_tagE"
 "_ZN4Rcpp8internal2asIhEET_P7SEXPRECNS_6traits20r_type_primitive_tagE"
 "_ZN4Rcpp8internal2asIiEET_P7SEXPRECNS_6traits20r_type_primitive_tagE"
 "_ZN4Rcpp8internal2asIN4arma3ColIfEEEET_P7SEXPRECNS_6traits18r_type_generic_tagE"
 "_ZN4Rcpp8internal2asIN4arma3MatIfEEEET_P7SEXPRECNS_6traits18r_type_generic_tagE"
 "_ZN4Rcpp8internal2asIN4arma4CubeIdEEEET_P7SEXPRECNS_6traits18r_type_generic_tagE"
 "_ZN4Rcpp8internal2asIN4arma4CubeIiEEEET_P7SEXPRECNS_6traits18r_type_generic_tagE"
 "_ZN4Rcpp8internal2asINS_13Function_ImplINS_15PreserveStorageEEEEET_P7SEXPRECNS_6traits18r_type_generic_tagE"
 "_ZN4Rcpp8internal2asINS_6MatrixILi13ENS_15PreserveStorageEEEEET_P7SEXPRECNS_6traits18r_type_generic_tagE"
 "_ZN4Rcpp8internal2asINS_6MatrixILi14ENS_15PreserveStorageEEEEET_P7SEXPRECNS_6traits18r_type_generic_tagE"
 "_ZN4Rcpp8internal2asINS_6VectorILi10ENS_15PreserveStorageEEEEET_P7SEXPRECNS_6traits18r_type_generic_tagE"
 "_ZN4Rcpp8internal2asINS_6VectorILi13ENS_15PreserveStorageEEEEET_P7SEXPRECNS_6traits18r_type_generic_tagE"
 "_ZN4Rcpp8internal2asINS_6VectorILi14ENS_15PreserveStorageEEEEET_P7SEXPRECNS_6traits18r_type_generic_tagE"
 "_ZN4Rcpp8internal2asINS_6VectorILi16ENS_15PreserveStorageEEEEET_P7SEXPRECNS_6traits18r_type_generic_tagE"
 "_ZN4Rcpp8internal2asINS_6VectorILi19ENS_15PreserveStorageEEEEET_P7SEXPRECNS_6traits18r_type_generic_tagE"
 "_ZN4Rcpp8internal2asIR5ImageEET_P7SEXPRECNS_6traits34r_type_module_object_reference_tagE"
 "_ZN4Rcpp8internal2asISsEET_P7SEXPRECNS_6traits17r_type_string_tagE"
 "_ZN4Rcpp8internal2asIyEET_P7SEXPRECNS_6traits20r_type_primitive_tagE"
 "_ZN4Rcpp8internal30wrap_dispatch_unknown_iterableINS_5sugar21Plus_Vector_PrimitiveILi14ELb1ENS_6VectorILi14ENS_15PreserveStorageEEEEEEEP7SEXPRECRKT_NS_6traits17integral_constantIbLb1EEE"
 "_ZN4Rcpp8internal30wrap_dispatch_unknown_iterableINS_5sugar21Plus_Vector_PrimitiveILi14ELb1ENS2_17UnaryMinus_VectorILi14ELb1ENS_6VectorILi14ENS_15PreserveStorageEEEEEEEEEP7SEXPRECRKT_NS_6traits17integral_constantIbLb1EEE"
 "_ZN4Rcpp8internal32wrap_dispatch_unknown_importableINS_14DataFrame_ImplINS_15PreserveStorageEEEEEP7SEXPRECRKT_NS_6traits17integral_constantIbLb0EEE"
 "_ZN4Rcpp8internal32wrap_dispatch_unknown_importableINS_17S4_CppConstructorI11VideoWriterEEEEP7SEXPRECRKT_NS_6traits17integral_constantIbLb0EEE"
 "_ZN4Rcpp8internal32wrap_dispatch_unknown_importableINS_17S4_CppConstructorI5ImageEEEEP7SEXPRECRKT_NS_6traits17integral_constantIbLb0EEE"
 "_ZN4Rcpp8internal32wrap_dispatch_unknown_importableINS_17S4_CppConstructorI5VideoEEEEP7SEXPRECRKT_NS_6traits17integral_constantIbLb0EEE"
 "_ZN4Rcpp8internal32wrap_dispatch_unknown_importableINS_17S4_CppConstructorI6StreamEEEEP7SEXPRECRKT_NS_6traits17integral_constantIbLb0EEE"
 "_ZN4Rcpp8internal32wrap_dispatch_unknown_importableINS_23S4_CppOverloadedMethodsI11VideoWriterEEEEP7SEXPRECRKT_NS_6traits17integral_constantIbLb0EEE"
 "_ZN4Rcpp8internal32wrap_dispatch_unknown_importableINS_23S4_CppOverloadedMethodsI5ImageEEEEP7SEXPRECRKT_NS_6traits17integral_constantIbLb0EEE"
 "_ZN4Rcpp8internal32wrap_dispatch_unknown_importableINS_23S4_CppOverloadedMethodsI5VideoEEEEP7SEXPRECRKT_NS_6traits17integral_constantIbLb0EEE"
 "_ZN4Rcpp8internal32wrap_dispatch_unknown_importableINS_23S4_CppOverloadedMethodsI6StreamEEEEP7SEXPRECRKT_NS_6traits17integral_constantIbLb0EEE"
 "_ZN4Rcpp8internal32wrap_dispatch_unknown_importableINS_4XPtrI5ImageNS_15PreserveStorageEXadL_ZNS_25standard_delete_finalizerIS3_EEvPT_EELb0EEEEEP7SEXPRECRKS6_NS_6traits17integral_constantIbLb0EEE"
 "_ZN4Rcpp8internal32wrap_dispatch_unknown_importableINS_4XPtrINS_10class_BaseENS_15PreserveStorageEXadL_ZNS_25standard_delete_finalizerIS3_EEvPT_EELb0EEEEEP7SEXPRECRKS6_NS_6traits17integral_constantIbLb0EEE"
 "_ZN4Rcpp8internal32wrap_dispatch_unknown_importableINS_4XPtrINS_11CppPropertyI11VideoWriterEENS_15PreserveStorageEXadL_ZNS_25standard_delete_finalizerIS5_EEvPT_EELb0EEEEEP7SEXPRECRKS8_NS_6traits17integral_constantIbLb0EEE"
 "_ZN4Rcpp8internal32wrap_dispatch_unknown_importableINS_4XPtrINS_11CppPropertyI5ImageEENS_15PreserveStorageEXadL_ZNS_25standard_delete_finalizerIS5_EEvPT_EELb0EEEEEP7SEXPRECRKS8_NS_6traits17integral_constantIbLb0EEE"
 "_ZN4Rcpp8internal32wrap_dispatch_unknown_importableINS_4XPtrINS_11CppPropertyI5VideoEENS_15PreserveStorageEXadL_ZNS_25standard_delete_finalizerIS5_EEvPT_EELb0EEEEEP7SEXPRECRKS8_NS_6traits17integral_constantIbLb0EEE"
 "_ZN4Rcpp8internal32wrap_dispatch_unknown_importableINS_4XPtrINS_11CppPropertyI6StreamEENS_15PreserveStorageEXadL_ZNS_25standard_delete_finalizerIS5_EEvPT_EELb0EEEEEP7SEXPRECRKS8_NS_6traits17integral_constantIbLb0EEE"
 "_ZN4Rcpp8internal32wrap_dispatch_unknown_importableINS_4XPtrINS_17SignedConstructorI11VideoWriterEENS_15PreserveStorageEXadL_ZNS_25standard_delete_finalizerIS5_EEvPT_EELb0EEEEEP7SEXPRECRKS8_NS_6traits17integral_constantIbLb0EEE"
 "_ZN4Rcpp8internal32wrap_dispatch_unknown_importableINS_4XPtrINS_17SignedConstructorI5ImageEENS_15PreserveStorageEXadL_ZNS_25standard_delete_finalizerIS5_EEvPT_EELb0EEEEEP7SEXPRECRKS8_NS_6traits17integral_constantIbLb0EEE"
 "_ZN4Rcpp8internal32wrap_dispatch_unknown_importableINS_4XPtrINS_17SignedConstructorI5VideoEENS_15PreserveStorageEXadL_ZNS_25standard_delete_finalizerIS5_EEvPT_EELb0EEEEEP7SEXPRECRKS8_NS_6traits17integral_constantIbLb0EEE"
 "_ZN4Rcpp8internal32wrap_dispatch_unknown_importableINS_4XPtrINS_17SignedConstructorI6StreamEENS_15PreserveStorageEXadL_ZNS_25standard_delete_finalizerIS5_EEvPT_EELb0EEEEEP7SEXPRECRKS8_NS_6traits17integral_constantIbLb0EEE"
 "_ZN4Rcpp8internal32wrap_dispatch_unknown_importableINS_4XPtrISt6vectorIPNS_12SignedMethodI11VideoWriterEESaIS7_EENS_15PreserveStorageEXadL_ZNS_25standard_delete_finalizerIS9_EEvPT_EELb0EEEEEP7SEXPRECRKSC_NS_6traits17integral_constantIbLb0EEE"
 "_ZN4Rcpp8internal32wrap_dispatch_unknown_importableINS_4XPtrISt6vectorIPNS_12SignedMethodI5ImageEESaIS7_EENS_15PreserveStorageEXadL_ZNS_25standard_delete_finalizerIS9_EEvPT_EELb0EEEEEP7SEXPRECRKSC_NS_6traits17integral_constantIbLb0EEE"
 "_ZN4Rcpp8internal32wrap_dispatch_unknown_importableINS_4XPtrISt6vectorIPNS_12SignedMethodI5VideoEESaIS7_EENS_15PreserveStorageEXadL_ZNS_25standard_delete_finalizerIS9_EEvPT_EELb0EEEEEP7SEXPRECRKSC_NS_6traits17integral_constantIbLb0EEE"
 "_ZN4Rcpp8internal32wrap_dispatch_unknown_importableINS_4XPtrISt6vectorIPNS_12SignedMethodI6StreamEESaIS7_EENS_15PreserveStorageEXadL_ZNS_25standard_delete_finalizerIS9_EEvPT_EELb0EEEEEP7SEXPRECRKSC_NS_6traits17integral_constantIbLb0EEE"
 "_ZN4Rcpp8internal32wrap_dispatch_unknown_importableINS_5sugar21Plus_Vector_PrimitiveILi14ELb1ENS_6VectorILi14ENS_15PreserveStorageEEEEEEEP7SEXPRECRKT_NS_6traits17integral_constantIbLb0EEE"
 "_ZN4Rcpp8internal32wrap_dispatch_unknown_importableINS_5sugar21Plus_Vector_PrimitiveILi14ELb1ENS2_17UnaryMinus_VectorILi14ELb1ENS_6VectorILi14ENS_15PreserveStorageEEEEEEEEEP7SEXPRECRKT_NS_6traits17integral_constantIbLb0EEE"
 "_ZN4Rcpp8internal32wrap_dispatch_unknown_importableINS_6MatrixILi14ENS_15PreserveStorageEEEEEP7SEXPRECRKT_NS_6traits17integral_constantIbLb0EEE"
 "_ZN4Rcpp8internal32wrap_dispatch_unknown_importableINS_6ShieldIP7SEXPRECEEEES4_RKT_NS_6traits17integral_constantIbLb0EEE"
 "_ZN4Rcpp8internal32wrap_dispatch_unknown_importableINS_6VectorILi10ENS_15PreserveStorageEEEEEP7SEXPRECRKT_NS_6traits17integral_constantIbLb0EEE"
 "_ZN4Rcpp8internal32wrap_dispatch_unknown_importableINS_6VectorILi13ENS_15PreserveStorageEEEEEP7SEXPRECRKT_NS_6traits17integral_constantIbLb0EEE"
 "_ZN4Rcpp8internal32wrap_dispatch_unknown_importableINS_6VectorILi14ENS_15PreserveStorageEEEEEP7SEXPRECRKT_NS_6traits17integral_constantIbLb0EEE"
 "_ZN4Rcpp8internal32wrap_dispatch_unknown_importableINS_6VectorILi16ENS_15PreserveStorageEEEEEP7SEXPRECRKT_NS_6traits17integral_constantIbLb0EEE"
 "_ZN4Rcpp8internal32wrap_dispatch_unknown_importableINS_6VectorILi19ENS_15PreserveStorageEEEEEP7SEXPRECRKT_NS_6traits17integral_constantIbLb0EEE"
 "_ZN4Rcpp8internal32wrap_dispatch_unknown_importableINS_8S4_fieldI11VideoWriterEEEEP7SEXPRECRKT_NS_6traits17integral_constantIbLb0EEE"
 "_ZN4Rcpp8internal32wrap_dispatch_unknown_importableINS_8S4_fieldI5ImageEEEEP7SEXPRECRKT_NS_6traits17integral_constantIbLb0EEE"
 "_ZN4Rcpp8internal32wrap_dispatch_unknown_importableINS_8S4_fieldI5VideoEEEEP7SEXPRECRKT_NS_6traits17integral_constantIbLb0EEE"
 "_ZN4Rcpp8internal32wrap_dispatch_unknown_importableINS_8S4_fieldI6StreamEEEEP7SEXPRECRKT_NS_6traits17integral_constantIbLb0EEE"
 "_ZN4Rcpp8internal32wrap_dispatch_unknown_importableINS_9DimensionEEEP7SEXPRECRKT_NS_6traits17integral_constantIbLb0EEE"
 "_ZN4Rcpp8internal32wrap_dispatch_unknown_importableIP7SEXPRECEES3_RKT_NS_6traits17integral_constantIbLb0EEE"
 "_ZN4Rcpp8internal34primitive_range_wrap__impl__nocastIN9__gnu_cxx17__normal_iteratorIPKiSt6vectorIiSaIiEEEEiEEP7SEXPRECT_SC_St26random_access_iterator_tag"
 "_ZN4Rcpp8internal34primitive_range_wrap__impl__nocastIPKddEEP7SEXPRECT_S6_St26random_access_iterator_tag"
 "_ZN4Rcpp8internal39wrap_dispatch_unknown_iterable__logicalINS_5sugar21Plus_Vector_PrimitiveILi14ELb1ENS_6VectorILi14ENS_15PreserveStorageEEEEEEEP7SEXPRECRKT_NS_6traits17integral_constantIbLb0EEE"
 "_ZN4Rcpp8internal39wrap_dispatch_unknown_iterable__logicalINS_5sugar21Plus_Vector_PrimitiveILi14ELb1ENS2_17UnaryMinus_VectorILi14ELb1ENS_6VectorILi14ENS_15PreserveStorageEEEEEEEEEP7SEXPRECRKT_NS_6traits17integral_constantIbLb0EEE"
 "_ZN4Rcpp8internal3nthEP7SEXPRECi"
 "_ZN4Rcpp8internal48wrap_dispatch_unknown_iterable__matrix_interfaceINS_5sugar21Plus_Vector_PrimitiveILi14ELb1ENS_6VectorILi14ENS_15PreserveStorageEEEEEEEP7SEXPRECRKT_NS_6traits17integral_constantIbLb0EEE"
 "_ZN4Rcpp8internal48wrap_dispatch_unknown_iterable__matrix_interfaceINS_5sugar21Plus_Vector_PrimitiveILi14ELb1ENS2_17UnaryMinus_VectorILi14ELb1ENS_6VectorILi14ENS_15PreserveStorageEEEEEEEEEP7SEXPRECRKT_NS_6traits17integral_constantIbLb0EEE"
 "_ZN4Rcpp8internal6casterIbiEET0_T_"
 "_ZN4Rcpp8internal6casterIddEET0_T_"
 "_ZN4Rcpp8internal6casterIdfEET0_T_"
 "_ZN4Rcpp8internal6casterIdyEET0_T_"
 "_ZN4Rcpp8internal6casterIfdEET0_T_"
 "_ZN4Rcpp8internal6casterIhdEET0_T_"
 "_ZN4Rcpp8internal6casterIhhEET0_T_"
 "_ZN4Rcpp8internal6casterIibEET0_T_"
 "_ZN4Rcpp8internal6casterIidEET0_T_"
 "_ZN4Rcpp8internal6casterIiiEET0_T_"
 "_ZN4Rcpp8internal6casterItdEET0_T_"
 "_ZN4Rcpp8internal8get_zeroILi10EiEET0_v"
 "_ZN4Rcpp8internal8get_zeroILi13EiEET0_v"
 "_ZN4Rcpp8internal8get_zeroILi14EdEET0_v"
 "_ZN4Rcpp8internal9as_stringISsEET_P7SEXPRECNS_6traits17integral_constantIbLb0EEE"
 "_ZN4Rcpp8pairlistIPKcNS_4XPtrI5ImageNS_15PreserveStorageEXadL_ZNS_25standard_delete_finalizerIS4_EEvPT_EELb0EEEEEP7SEXPRECRKS7_RKT0_"
 "_ZN4Rcpp8pairlistISsEEP7SEXPRECRKT_"
 "_ZN4Rcpp8RostreamILb0EEC1Ev"
 "_ZN4Rcpp8RostreamILb0EED0Ev"
 "_ZN4Rcpp8RostreamILb0EED1Ev"
 "_ZN4Rcpp8RostreamILb1EEC1Ev"
 "_ZN4Rcpp8RostreamILb1EED0Ev"
 "_ZN4Rcpp8RostreamILb1EED1Ev"
 "_ZN4Rcpp8rownamesEP7SEXPREC"
 "_ZN4Rcpp8S4_fieldI11VideoWriterEC1EPNS_11CppPropertyIS1_EERKNS_4XPtrINS_10class_BaseENS_15PreserveStorageEXadL_ZNS_25standard_delete_finalizerIS7_EEvPT_EELb0EEE"
 "_ZN4Rcpp8S4_fieldI11VideoWriterED1Ev"
 "_ZN4Rcpp8S4_fieldI5ImageEC1EPNS_11CppPropertyIS1_EERKNS_4XPtrINS_10class_BaseENS_15PreserveStorageEXadL_ZNS_25standard_delete_finalizerIS7_EEvPT_EELb0EEE"
 "_ZN4Rcpp8S4_fieldI5ImageED1Ev"
 "_ZN4Rcpp8S4_fieldI5VideoEC1EPNS_11CppPropertyIS1_EERKNS_4XPtrINS_10class_BaseENS_15PreserveStorageEXadL_ZNS_25standard_delete_finalizerIS7_EEvPT_EELb0EEE"
 "_ZN4Rcpp8S4_fieldI5VideoED1Ev"
 "_ZN4Rcpp8S4_fieldI6StreamEC1EPNS_11CppPropertyIS1_EERKNS_4XPtrINS_10class_BaseENS_15PreserveStorageEXadL_ZNS_25standard_delete_finalizerIS7_EEvPT_EELb0EEE"
 "_ZN4Rcpp8S4_fieldI6StreamED1Ev"
 "_ZN4Rcpp9CppMethodI11VideoWriterE5nargsEv"
 "_ZN4Rcpp9CppMethodI11VideoWriterE7is_voidEv"
 "_ZN4Rcpp9CppMethodI11VideoWriterE8is_constEv"
 "_ZN4Rcpp9CppMethodI11VideoWriterE9signatureERSsPKc"
 "_ZN4Rcpp9CppMethodI11VideoWriterEC2Ev"
 "_ZN4Rcpp9CppMethodI11VideoWriterEclEPS1_PP7SEXPREC"
 "_ZN4Rcpp9CppMethodI11VideoWriterED0Ev"
 "_ZN4Rcpp9CppMethodI11VideoWriterED1Ev"
 "_ZN4Rcpp9CppMethodI11VideoWriterED2Ev"
 "_ZN4Rcpp9CppMethodI5ImageE5nargsEv"
 "_ZN4Rcpp9CppMethodI5ImageE7is_voidEv"
 "_ZN4Rcpp9CppMethodI5ImageE8is_constEv"
 "_ZN4Rcpp9CppMethodI5ImageE9signatureERSsPKc"
 "_ZN4Rcpp9CppMethodI5ImageEC2Ev"
 "_ZN4Rcpp9CppMethodI5ImageEclEPS1_PP7SEXPREC"
 "_ZN4Rcpp9CppMethodI5ImageED0Ev"
 "_ZN4Rcpp9CppMethodI5ImageED1Ev"
 "_ZN4Rcpp9CppMethodI5ImageED2Ev"
 "_ZN4Rcpp9CppMethodI5VideoE5nargsEv"
 "_ZN4Rcpp9CppMethodI5VideoE7is_voidEv"
 "_ZN4Rcpp9CppMethodI5VideoE8is_constEv"
 "_ZN4Rcpp9CppMethodI5VideoE9signatureERSsPKc"
 "_ZN4Rcpp9CppMethodI5VideoEC2Ev"
 "_ZN4Rcpp9CppMethodI5VideoEclEPS1_PP7SEXPREC"
 "_ZN4Rcpp9CppMethodI5VideoED0Ev"
 "_ZN4Rcpp9CppMethodI5VideoED1Ev"
 "_ZN4Rcpp9CppMethodI5VideoED2Ev"
 "_ZN4Rcpp9CppMethodI6StreamE5nargsEv"
 "_ZN4Rcpp9CppMethodI6StreamE7is_voidEv"
 "_ZN4Rcpp9CppMethodI6StreamE8is_constEv"
 "_ZN4Rcpp9CppMethodI6StreamE9signatureERSsPKc"
 "_ZN4Rcpp9CppMethodI6StreamEC2Ev"
 "_ZN4Rcpp9CppMethodI6StreamEclEPS1_PP7SEXPREC"
 "_ZN4Rcpp9CppMethodI6StreamED0Ev"
 "_ZN4Rcpp9CppMethodI6StreamED1Ev"
 "_ZN4Rcpp9CppMethodI6StreamED2Ev"
 "_ZN4Rcpp9DimensionC1ERKyS2_"
 "_ZN4Rcpp9DimensionC1ERKyS2_S2_"
 "_ZN4Rcpp9DimensionD1Ev"
 "_ZN4Rcpp9exceptionC1EPKcb"
 "_ZN4Rcpp9exceptionD0Ev"
 "_ZN4Rcpp9exceptionD1Ev"
 "_ZN4Rcpp9Rcpp_evalEP7SEXPRECS1_"
 "_ZN4Rcpp9signatureI5ImageEEvRSsPKc"
 "_ZN4Rcpp9signatureI5ImageiEEvRSsPKc"
 "_ZN4Rcpp9signatureI5ImageNS_6VectorILi19ENS_15PreserveStorageEEEEEvRSsPKc"
 "_ZN4Rcpp9signatureI5ImageRNS_6VectorILi19ENS_15PreserveStorageEEEEEvRSsPKc"
 "_ZN4Rcpp9signatureI5ImageRS1_iiiiEEvRSsPKc"
 "_ZN4Rcpp9signatureI5ImageRS1_iiiiiNS_6VectorILi13ENS_15PreserveStorageEEEEEvRSsPKc"
 "_ZN4Rcpp9signatureI5ImageS1_dbEEvRSsPKc"
 "_ZN4Rcpp9signatureI5ImageS1_dEEvRSsPKc"
 "_ZN4Rcpp9signatureI5ImageS1_diiidEEvRSsPKc"
 "_ZN4Rcpp9signatureI5ImageS1_dS1_dEEvRSsPKc"
 "_ZN4Rcpp9signatureI5ImageS1_EEvRSsPKc"
 "_ZN4Rcpp9signatureI5ImageS1_iddEEvRSsPKc"
 "_ZN4Rcpp9signatureI5ImageS1_idEEvRSsPKc"
 "_ZN4Rcpp9signatureI5ImageS1_iEEvRSsPKc"
 "_ZN4Rcpp9signatureI5ImageS1_iibEEvRSsPKc"
 "_ZN4Rcpp9signatureI5ImageS1_iiddEEvRSsPKc"
 "_ZN4Rcpp9signatureI5ImageS1_iiddiEEvRSsPKc"
 "_ZN4Rcpp9signatureI5ImageS1_iidEEvRSsPKc"
 "_ZN4Rcpp9signatureI5ImageS1_iiEEvRSsPKc"
 "_ZN4Rcpp9signatureI5ImageS1_iiidEEvRSsPKc"
 "_ZN4Rcpp9signatureI5ImageS1_iiiiiEEvRSsPKc"
 "_ZN4Rcpp9signatureI5ImageS1_iNS_6VectorILi14ENS_15PreserveStorageEEEiEEvRSsPKc"
 "_ZN4Rcpp9signatureI5ImageS1_N4arma3MatIfEENS_6VectorILi13ENS_15PreserveStorageEEEiiS7_EEvRSsPKc"
 "_ZN4Rcpp9signatureI5ImageS1_NS_6MatrixILi14ENS_15PreserveStorageEEEEEvRSsPKc"
 "_ZN4Rcpp9signatureI5ImageS1_NS_6VectorILi14ENS_15PreserveStorageEEES4_EEvRSsPKc"
 "_ZN4Rcpp9signatureI5ImageS1_S1_diEEvRSsPKc"
 "_ZN4Rcpp9signatureI5ImageS1_S1_EEvRSsPKc"
 "_ZN4Rcpp9signatureI5ImageS1_S1_iEEvRSsPKc"
 "_ZN4Rcpp9signatureI5ImageS1_S1_iS1_EEvRSsPKc"
 "_ZN4Rcpp9signatureIbEEvRSsPKc"
 "_ZN4Rcpp9signatureIbiSsEEvRSsPKc"
 "_ZN4Rcpp9signatureIbN4arma4CubeIdEEEEvRSsPKc"
 "_ZN4Rcpp9signatureIbSsdEEvRSsPKc"
 "_ZN4Rcpp9signatureIbSsEEvRSsPKc"
 "_ZN4Rcpp9signatureIbSsSsdiibSsEEvRSsPKc"
 "_ZN4Rcpp9signatureIbSsSsEEvRSsPKc"
 "_ZN4Rcpp9signatureId5ImageEEvRSsPKc"
 "_ZN4Rcpp9signatureId5ImageS1_EEvRSsPKc"
 "_ZN4Rcpp9signatureIdEEvRSsPKc"
 "_ZN4Rcpp9signatureIdSsEEvRSsPKc"
 "_ZN4Rcpp9signatureIiEEvRSsPKc"
 "_ZN4Rcpp9signatureIN4arma3MatIdEENS1_3ColIfEEddEEvRSsPKc"
 "_ZN4Rcpp9signatureIN4arma3MatIfEE5ImageS4_iidiEEvRSsPKc"
 "_ZN4Rcpp9signatureIN4arma4CubeIdEE5ImageS4_diiiidEEvRSsPKc"
 "_ZN4Rcpp9signatureIN4arma4CubeIdEEEEvRSsPKc"
 "_ZN4Rcpp9signatureINS_14DataFrame_ImplINS_15PreserveStorageEEE5ImageEEvRSsPKc"
 "_ZN4Rcpp9signatureINS_14DataFrame_ImplINS_15PreserveStorageEEE5ImagefffyfbffbhbffbffbffEEvRSsPKc"
 "_ZN4Rcpp9signatureINS_14DataFrame_ImplINS_15PreserveStorageEEE5ImageSsbEEvRSsPKc"
 "_ZN4Rcpp9signatureINS_14DataFrame_ImplINS_15PreserveStorageEEESsEEvRSsPKc"
 "_ZN4Rcpp9signatureINS_6MatrixILi14ENS_15PreserveStorageEEE5ImageEEvRSsPKc"
 "_ZN4Rcpp9signatureINS_6MatrixILi14ENS_15PreserveStorageEEENS_6VectorILi13ES2_EES5_EEvRSsPKc"
 "_ZN4Rcpp9signatureINS_6VectorILi14ENS_15PreserveStorageEEEEEvRSsPKc"
 "_ZN4Rcpp9signatureINS_6VectorILi14ENS_15PreserveStorageEEESsidiEEvRSsPKc"
 "_ZN4Rcpp9signatureINS_6VectorILi19ENS_15PreserveStorageEEE5ImageEEvRSsPKc"
 "_ZN4Rcpp9signatureINS_6VectorILi19ENS_15PreserveStorageEEE5ImageiEEvRSsPKc"
 "_ZN4Rcpp9signatureINS_6VectorILi19ENS_15PreserveStorageEEE5ImageiiNS1_ILi14ES2_EEEEvRSsPKc"
 "_ZN4Rcpp9signatureINS_6VectorILi19ENS_15PreserveStorageEEESsEEvRSsPKc"
 "_ZN4Rcpp9signatureINS_9void_typeE5ImageEEvRSsPKc"
 "_ZN4Rcpp9signatureINS_9void_typeE5ImageNS_6MatrixILi13ENS_15PreserveStorageEEENS_6VectorILi13ES4_EEEEvRSsPKc"
 "_ZN4Rcpp9signatureINS_9void_typeE5ImageNS_6VectorILi14ENS_15PreserveStorageEEES5_NS3_ILi13ES4_EENS_6MatrixILi13ES4_EES6_EEvRSsPKc"
 "_ZN4Rcpp9signatureINS_9void_typeE5ImageNS_6VectorILi14ENS_15PreserveStorageEEES5_S5_S5_NS_6MatrixILi13ES4_EENS3_ILi13ES4_EEEEvRSsPKc"
 "_ZN4Rcpp9signatureINS_9void_typeE5ImageNS_6VectorILi14ENS_15PreserveStorageEEES5_S5_S5_S5_NS_6MatrixILi13ES4_EENS3_ILi13ES4_EEEEvRSsPKc"
 "_ZN4Rcpp9signatureINS_9void_typeE5ImageNS_6VectorILi14ENS_15PreserveStorageEEES5_S5_S5_S5_S5_S5_NS_6MatrixILi13ES4_EENS3_ILi13ES4_EEEEvRSsPKc"
 "_ZN4Rcpp9signatureINS_9void_typeE5ImageNS_6VectorILi16ENS_15PreserveStorageEEENS3_ILi14ES4_EES6_NS3_ILi13ES4_EES6_NS_6MatrixILi13ES4_EES7_NS3_ILi10ES4_EEEEvRSsPKc"
 "_ZN4Rcpp9signatureINS_9void_typeE5ImageSsiiiEEvRSsPKc"
 "_ZN4Rcpp9signatureINS_9void_typeEEEvRSsPKc"
 "_ZN4Rcpp9signatureINS_9void_typeEiEEvRSsPKc"
 "_ZN4Rcpp9signatureINS_9void_typeENS_6VectorILi13ENS_15PreserveStorageEEES4_NS_6MatrixILi13ES3_EEEEvRSsPKc"
 "_ZN4Rcpp9signatureINS_9void_typeESsEEvRSsPKc"
 "_ZN4Rcpp9signatureINS_9void_typeESsiiEEvRSsPKc"
 "_ZN4Rcpp9signatureISsEEvRSsPKc"
 "_ZN4Rcpp9yes_arityILi0EEEbPP7SEXPRECi"
 "_ZN4Rcpp9yes_arityILi1EEEbPP7SEXPRECi"
 "_ZN4Rcpp9yes_arityILi2EEEbPP7SEXPRECi"
 "_ZN4Rcpp9yes_arityILi3EEEbPP7SEXPRECi"
 "_ZN4Rcpp9yes_arityILi7EEEbPP7SEXPRECi"
 "_ZN4RcppplILi14ELb1ENS_5sugar17UnaryMinus_VectorILi14ELb1ENS_6VectorILi14ENS_15PreserveStorageEEEEEiEENS_6traits9enable_ifIXsrNS7_14is_convertibleINS7_26remove_const_and_referenceIT2_E4typeENS7_12storage_typeIXT_EE4typeEEE5valueENS1_21Plus_Vector_PrimitiveIXT_EXT0_ET1_EEE4typeERKNS_10VectorBaseIXT_EXT0_ESJ_EERKSB_"
 "_ZN4RcppplILi14ELb1ENS_6VectorILi14ENS_15PreserveStorageEEEiEENS_6traits9enable_ifIXsrNS4_14is_convertibleINS4_26remove_const_and_referenceIT2_E4typeENS4_12storage_typeIXT_EE4typeEEE5valueENS_5sugar21Plus_Vector_PrimitiveIXT_EXT0_ET1_EEE4typeERKNS_10VectorBaseIXT_EXT0_ESH_EERKS8_"
 "_ZN5Image14changeBitDepthEi"
 "_ZN5Image16changeColorSpaceESs"
 "_ZN5Image3dimEv"
 "_ZN5Image3getEN4Rcpp6VectorILi13ENS0_15PreserveStorageEEES3_"
 "_ZN5Image3setEN4Rcpp6VectorILi13ENS0_15PreserveStorageEEES3_NS0_6MatrixILi13ES2_EE"
 "_ZN5Image3toREv"
 "_ZN5Image4initEv"
 "_ZN5Image4ncolEv"
 "_ZN5Image4nrowEv"
 "_ZN5Image4openESs"
 "_ZN5Image5_get1Eii"
 "_ZN5Image5_get3Eii"
 "_ZN5Image5_get4Eii"
 "_ZN5Image5_set1EiiN4Rcpp6VectorILi13ENS0_15PreserveStorageEEE"
 "_ZN5Image5_set3EiiN4Rcpp6VectorILi13ENS0_15PreserveStorageEEE"
 "_ZN5Image5_set4EiiN4Rcpp6VectorILi13ENS0_15PreserveStorageEEE"
 "_ZN5Image5depthEv"
 "_ZN5Image5nchanEv"
 "_ZN5Image5spaceEv"
 "_ZN5Image5writeESs"
 "_ZN5Image6loadCVEN2cv3MatE"
 "_ZN5Image9loadArrayEN4arma4CubeIdEE"
 "_ZN5ImageC1EN2cv3MatE"
 "_ZN5ImageC1EN4arma4CubeIdEE"
 "_ZN5ImageC1EN4arma4CubeIiEE"
 "_ZN5ImageC1ERKS_"
 "_ZN5ImageC1ESs"
 "_ZN5ImageC1Ev"
 "_ZN5ImageC2EN2cv3MatE"
 "_ZN5ImageC2EN4arma4CubeIdEE"
 "_ZN5ImageC2EN4arma4CubeIiEE"
 "_ZN5ImageC2ESs"
 "_ZN5ImageC2Ev"
 "_ZN5ImageD1Ev"
 "_ZN5Video3dimEv"
 "_ZN5Video3fpsEv"
 "_ZN5Video3getESs"
 "_ZN5Video3setESsd"
 "_ZN5Video4ncolEv"
 "_ZN5Video4nrowEv"
 "_ZN5Video4openESsSs"
 "_ZN5Video5codecEv"
 "_ZN5Video5frameEv"
 "_ZN5Video7nframesEv"
 "_ZN5Video7releaseEv"
 "_ZN5Video8isOpenedEv"
 "_ZN5Video8readNextEv"
 "_ZN5Video9readFrameEi"
 "_ZN5VideoC1ESsSs"
 "_ZN5VideoC1Ev"
 "_ZN5VideoC2ESsSs"
 "_ZN5VideoC2Ev"
 "_ZN5VideoD1Ev"
 "_ZN6Stream3dimEv"
 "_ZN6Stream3getESs"
 "_ZN6Stream3setESsd"
 "_ZN6Stream4ncolEv"
 "_ZN6Stream4nrowEv"
 "_ZN6Stream4openEiSs"
 "_ZN6Stream7releaseEv"
 "_ZN6Stream8isOpenedEv"
 "_ZN6Stream8readNextEv"
 "_ZN6StreamC1EiSs"
 "_ZN6StreamC1Ev"
 "_ZN6StreamC2EiSs"
 "_ZN6StreamC2Ev"
 "_ZN6StreamD1Ev"
 "_ZN7cvflann7anyimpl12SinglePolicyIbE6policyE"
 "_ZN7cvflann7anyimpl12SinglePolicyIfE6policyE"
 "_ZN7cvflann7anyimpl12SinglePolicyIiE6policyE"
 "_ZN7cvflann7anyimpl12SinglePolicyIjE6policyE"
 "_ZN7cvflann7anyimpl12SinglePolicyINS_17flann_algorithm_tEE6policyE"
 "_ZN7cvflann7anyimpl12SinglePolicyINS_20flann_centers_init_tEE6policyE"
 "_ZN7cvflann7anyimpl12SinglePolicyINS0_9empty_anyEE6policyE"
 "_ZN7cvflann7anyimpl12SinglePolicyIPKcE6policyE"
 "_ZN7cvflann7anyimpl12SinglePolicyISsE6policyE"
 "_ZN7cvflann7anyimpl14big_any_policyINS_17flann_algorithm_tEE13static_deleteEPPv"
 "_ZN7cvflann7anyimpl14big_any_policyINS_17flann_algorithm_tEE15copy_from_valueEPKvPPv"
 "_ZN7cvflann7anyimpl14big_any_policyINS_17flann_algorithm_tEE4moveEPKPvPS4_"
 "_ZN7cvflann7anyimpl14big_any_policyINS_17flann_algorithm_tEE5cloneEPKPvPS4_"
 "_ZN7cvflann7anyimpl14big_any_policyINS_17flann_algorithm_tEE5printERSoPKPv"
 "_ZN7cvflann7anyimpl14big_any_policyINS_17flann_algorithm_tEE9get_valueEPKPv"
 "_ZN7cvflann7anyimpl14big_any_policyINS_17flann_algorithm_tEE9get_valueEPPv"
 "_ZN7cvflann7anyimpl14big_any_policyINS_17flann_algorithm_tEED0Ev"
 "_ZN7cvflann7anyimpl14big_any_policyINS_17flann_algorithm_tEED1Ev"
 "_ZN7cvflann7anyimpl14big_any_policyINS_20flann_centers_init_tEE13static_deleteEPPv"
 "_ZN7cvflann7anyimpl14big_any_policyINS_20flann_centers_init_tEE15copy_from_valueEPKvPPv"
 "_ZN7cvflann7anyimpl14big_any_policyINS_20flann_centers_init_tEE4moveEPKPvPS4_"
 "_ZN7cvflann7anyimpl14big_any_policyINS_20flann_centers_init_tEE5cloneEPKPvPS4_"
 "_ZN7cvflann7anyimpl14big_any_policyINS_20flann_centers_init_tEE5printERSoPKPv"
 "_ZN7cvflann7anyimpl14big_any_policyINS_20flann_centers_init_tEE9get_valueEPKPv"
 "_ZN7cvflann7anyimpl14big_any_policyINS_20flann_centers_init_tEE9get_valueEPPv"
 "_ZN7cvflann7anyimpl14big_any_policyINS_20flann_centers_init_tEED0Ev"
 "_ZN7cvflann7anyimpl14big_any_policyINS_20flann_centers_init_tEED1Ev"
 "_ZN7cvflann7anyimpl14big_any_policyINS0_9empty_anyEE13static_deleteEPPv"
 "_ZN7cvflann7anyimpl14big_any_policyINS0_9empty_anyEE15copy_from_valueEPKvPPv"
 "_ZN7cvflann7anyimpl14big_any_policyINS0_9empty_anyEE4moveEPKPvPS4_"
 "_ZN7cvflann7anyimpl14big_any_policyINS0_9empty_anyEE5cloneEPKPvPS4_"
 "_ZN7cvflann7anyimpl14big_any_policyINS0_9empty_anyEE5printERSoPKPv"
 "_ZN7cvflann7anyimpl14big_any_policyINS0_9empty_anyEE9get_valueEPKPv"
 "_ZN7cvflann7anyimpl14big_any_policyINS0_9empty_anyEE9get_valueEPPv"
 "_ZN7cvflann7anyimpl14big_any_policyINS0_9empty_anyEED0Ev"
 "_ZN7cvflann7anyimpl14big_any_policyINS0_9empty_anyEED1Ev"
 "_ZN7cvflann7anyimpl14big_any_policyISsE13static_deleteEPPv"
 "_ZN7cvflann7anyimpl14big_any_policyISsE15copy_from_valueEPKvPPv"
 "_ZN7cvflann7anyimpl14big_any_policyISsE4moveEPKPvPS3_"
 "_ZN7cvflann7anyimpl14big_any_policyISsE5cloneEPKPvPS3_"
 "_ZN7cvflann7anyimpl14big_any_policyISsE5printERSoPKPv"
 "_ZN7cvflann7anyimpl14big_any_policyISsE9get_valueEPKPv"
 "_ZN7cvflann7anyimpl14big_any_policyISsE9get_valueEPPv"
 "_ZN7cvflann7anyimpl14big_any_policyISsED0Ev"
 "_ZN7cvflann7anyimpl14big_any_policyISsED1Ev"
 "_ZN7cvflann7anyimpl15base_any_policyD2Ev"
 "_ZN7cvflann7anyimpl16small_any_policyIbE13static_deleteEPPv"
 "_ZN7cvflann7anyimpl16small_any_policyIbE15copy_from_valueEPKvPPv"
 "_ZN7cvflann7anyimpl16small_any_policyIbE4moveEPKPvPS3_"
 "_ZN7cvflann7anyimpl16small_any_policyIbE5cloneEPKPvPS3_"
 "_ZN7cvflann7anyimpl16small_any_policyIbE5printERSoPKPv"
 "_ZN7cvflann7anyimpl16small_any_policyIbE9get_valueEPKPv"
 "_ZN7cvflann7anyimpl16small_any_policyIbE9get_valueEPPv"
 "_ZN7cvflann7anyimpl16small_any_policyIbED0Ev"
 "_ZN7cvflann7anyimpl16small_any_policyIbED1Ev"
 "_ZN7cvflann7anyimpl16small_any_policyIfE13static_deleteEPPv"
 "_ZN7cvflann7anyimpl16small_any_policyIfE15copy_from_valueEPKvPPv"
 "_ZN7cvflann7anyimpl16small_any_policyIfE4moveEPKPvPS3_"
 "_ZN7cvflann7anyimpl16small_any_policyIfE5cloneEPKPvPS3_"
 "_ZN7cvflann7anyimpl16small_any_policyIfE5printERSoPKPv"
 "_ZN7cvflann7anyimpl16small_any_policyIfE9get_valueEPKPv"
 "_ZN7cvflann7anyimpl16small_any_policyIfE9get_valueEPPv"
 "_ZN7cvflann7anyimpl16small_any_policyIfED0Ev"
 "_ZN7cvflann7anyimpl16small_any_policyIfED1Ev"
 "_ZN7cvflann7anyimpl16small_any_policyIiE13static_deleteEPPv"
 "_ZN7cvflann7anyimpl16small_any_policyIiE15copy_from_valueEPKvPPv"
 "_ZN7cvflann7anyimpl16small_any_policyIiE4moveEPKPvPS3_"
 "_ZN7cvflann7anyimpl16small_any_policyIiE5cloneEPKPvPS3_"
 "_ZN7cvflann7anyimpl16small_any_policyIiE5printERSoPKPv"
 "_ZN7cvflann7anyimpl16small_any_policyIiE9get_valueEPKPv"
 "_ZN7cvflann7anyimpl16small_any_policyIiE9get_valueEPPv"
 "_ZN7cvflann7anyimpl16small_any_policyIiED0Ev"
 "_ZN7cvflann7anyimpl16small_any_policyIiED1Ev"
 "_ZN7cvflann7anyimpl16small_any_policyIjE13static_deleteEPPv"
 "_ZN7cvflann7anyimpl16small_any_policyIjE15copy_from_valueEPKvPPv"
 "_ZN7cvflann7anyimpl16small_any_policyIjE4moveEPKPvPS3_"
 "_ZN7cvflann7anyimpl16small_any_policyIjE5cloneEPKPvPS3_"
 "_ZN7cvflann7anyimpl16small_any_policyIjE5printERSoPKPv"
 "_ZN7cvflann7anyimpl16small_any_policyIjE9get_valueEPKPv"
 "_ZN7cvflann7anyimpl16small_any_policyIjE9get_valueEPPv"
 "_ZN7cvflann7anyimpl16small_any_policyIjED0Ev"
 "_ZN7cvflann7anyimpl16small_any_policyIjED1Ev"
 "_ZN7cvflann7anyimpl16small_any_policyIPKcE13static_deleteEPPv"
 "_ZN7cvflann7anyimpl16small_any_policyIPKcE15copy_from_valueEPKvPPv"
 "_ZN7cvflann7anyimpl16small_any_policyIPKcE4moveEPKPvPS5_"
 "_ZN7cvflann7anyimpl16small_any_policyIPKcE5cloneEPKPvPS5_"
 "_ZN7cvflann7anyimpl16small_any_policyIPKcE5printERSoPKPv"
 "_ZN7cvflann7anyimpl16small_any_policyIPKcE9get_valueEPKPv"
 "_ZN7cvflann7anyimpl16small_any_policyIPKcE9get_valueEPPv"
 "_ZN7cvflann7anyimpl16small_any_policyIPKcED0Ev"
 "_ZN7cvflann7anyimpl16small_any_policyIPKcED1Ev"
 "_ZN7cvflann7anyimpl21typed_base_any_policyIbE4typeEv"
 "_ZN7cvflann7anyimpl21typed_base_any_policyIbE8get_sizeEv"
 "_ZN7cvflann7anyimpl21typed_base_any_policyIbED2Ev"
 "_ZN7cvflann7anyimpl21typed_base_any_policyIfE4typeEv"
 "_ZN7cvflann7anyimpl21typed_base_any_policyIfE8get_sizeEv"
 "_ZN7cvflann7anyimpl21typed_base_any_policyIfED2Ev"
 "_ZN7cvflann7anyimpl21typed_base_any_policyIiE4typeEv"
 "_ZN7cvflann7anyimpl21typed_base_any_policyIiE8get_sizeEv"
 "_ZN7cvflann7anyimpl21typed_base_any_policyIiED2Ev"
 "_ZN7cvflann7anyimpl21typed_base_any_policyIjE4typeEv"
 "_ZN7cvflann7anyimpl21typed_base_any_policyIjE8get_sizeEv"
 "_ZN7cvflann7anyimpl21typed_base_any_policyIjED2Ev"
 "_ZN7cvflann7anyimpl21typed_base_any_policyINS_17flann_algorithm_tEE4typeEv"
 "_ZN7cvflann7anyimpl21typed_base_any_policyINS_17flann_algorithm_tEE8get_sizeEv"
 "_ZN7cvflann7anyimpl21typed_base_any_policyINS_17flann_algorithm_tEED2Ev"
 "_ZN7cvflann7anyimpl21typed_base_any_policyINS_20flann_centers_init_tEE4typeEv"
 "_ZN7cvflann7anyimpl21typed_base_any_policyINS_20flann_centers_init_tEE8get_sizeEv"
 "_ZN7cvflann7anyimpl21typed_base_any_policyINS_20flann_centers_init_tEED2Ev"
 "_ZN7cvflann7anyimpl21typed_base_any_policyINS0_9empty_anyEE4typeEv"
 "_ZN7cvflann7anyimpl21typed_base_any_policyINS0_9empty_anyEE8get_sizeEv"
 "_ZN7cvflann7anyimpl21typed_base_any_policyINS0_9empty_anyEED2Ev"
 "_ZN7cvflann7anyimpl21typed_base_any_policyIPKcE4typeEv"
 "_ZN7cvflann7anyimpl21typed_base_any_policyIPKcE8get_sizeEv"
 "_ZN7cvflann7anyimpl21typed_base_any_policyIPKcED2Ev"
 "_ZN7cvflann7anyimpl21typed_base_any_policyISsE4typeEv"
 "_ZN7cvflann7anyimpl21typed_base_any_policyISsE8get_sizeEv"
 "_ZN7cvflann7anyimpl21typed_base_any_policyISsED2Ev"
 "_ZN7cvflann7anyimpllsERSoRKNS0_9empty_anyE"
 "_ZN9__gnu_cxx13new_allocatorIiE10deallocateEPiy"
 "_ZN9__gnu_cxx13new_allocatorIiE8allocateEyPKv"
 "_ZN9__gnu_cxx13new_allocatorIiEC2ERKS1_"
 "_ZN9__gnu_cxx13new_allocatorIiEC2Ev"
 "_ZN9__gnu_cxx13new_allocatorIiED2Ev"
 "_ZN9__gnu_cxx13new_allocatorIN2cv3MatEE10deallocateEPS2_y"
 "_ZN9__gnu_cxx13new_allocatorIN2cv3MatEE8allocateEyPKv"
 "_ZN9__gnu_cxx13new_allocatorIN2cv3MatEEC2ERKS3_"
 "_ZN9__gnu_cxx13new_allocatorIN2cv3MatEEC2Ev"
 "_ZN9__gnu_cxx13new_allocatorIN2cv3MatEED2Ev"
 "_ZN9__gnu_cxx13new_allocatorIN2cv3VecIiLi4EEEE10deallocateEPS3_y"
 "_ZN9__gnu_cxx13new_allocatorIN2cv3VecIiLi4EEEEC2Ev"
 "_ZN9__gnu_cxx13new_allocatorIN2cv3VecIiLi4EEEED2Ev"
 "_ZN9__gnu_cxx13new_allocatorIN2cv5Rect_IiEEE10deallocateEPS3_y"
 "_ZN9__gnu_cxx13new_allocatorIN2cv5Rect_IiEEEC2Ev"
 "_ZN9__gnu_cxx13new_allocatorIN2cv5Rect_IiEEED2Ev"
 "_ZN9__gnu_cxx13new_allocatorIN2cv6Point_IiEEE10deallocateEPS3_y"
 "_ZN9__gnu_cxx13new_allocatorIN2cv6Point_IiEEE7destroyIS3_EEvPT_"
 "_ZN9__gnu_cxx13new_allocatorIN2cv6Point_IiEEE8allocateEyPKv"
 "_ZN9__gnu_cxx13new_allocatorIN2cv6Point_IiEEE9constructIS3_IS3_EEEvPT_DpOT0_"
 "_ZN9__gnu_cxx13new_allocatorIN2cv6Point_IiEEEC2ERKS4_"
 "_ZN9__gnu_cxx13new_allocatorIN2cv6Point_IiEEEC2Ev"
 "_ZN9__gnu_cxx13new_allocatorIN2cv6Point_IiEEED2Ev"
 "_ZN9__gnu_cxx13new_allocatorIN2cv8KeyPointEE10deallocateEPS2_y"
 "_ZN9__gnu_cxx13new_allocatorIN2cv8KeyPointEEC2Ev"
 "_ZN9__gnu_cxx13new_allocatorIN2cv8KeyPointEED2Ev"
 "_ZN9__gnu_cxx13new_allocatorIPN4Rcpp12SignedMethodI11VideoWriterEEE10deallocateEPS5_y"
 "_ZN9__gnu_cxx13new_allocatorIPN4Rcpp12SignedMethodI11VideoWriterEEE7destroyIS5_EEvPT_"
 "_ZN9__gnu_cxx13new_allocatorIPN4Rcpp12SignedMethodI11VideoWriterEEE8allocateEyPKv"
 "_ZN9__gnu_cxx13new_allocatorIPN4Rcpp12SignedMethodI11VideoWriterEEE9constructIS5_IS5_EEEvPT_DpOT0_"
 "_ZN9__gnu_cxx13new_allocatorIPN4Rcpp12SignedMethodI11VideoWriterEEEC2Ev"
 "_ZN9__gnu_cxx13new_allocatorIPN4Rcpp12SignedMethodI11VideoWriterEEED2Ev"
 "_ZN9__gnu_cxx13new_allocatorIPN4Rcpp12SignedMethodI5ImageEEE10deallocateEPS5_y"
 "_ZN9__gnu_cxx13new_allocatorIPN4Rcpp12SignedMethodI5ImageEEE7destroyIS5_EEvPT_"
 "_ZN9__gnu_cxx13new_allocatorIPN4Rcpp12SignedMethodI5ImageEEE8allocateEyPKv"
 "_ZN9__gnu_cxx13new_allocatorIPN4Rcpp12SignedMethodI5ImageEEE9constructIS5_IS5_EEEvPT_DpOT0_"
 "_ZN9__gnu_cxx13new_allocatorIPN4Rcpp12SignedMethodI5ImageEEEC2Ev"
 "_ZN9__gnu_cxx13new_allocatorIPN4Rcpp12SignedMethodI5ImageEEED2Ev"
 "_ZN9__gnu_cxx13new_allocatorIPN4Rcpp12SignedMethodI5VideoEEE10deallocateEPS5_y"
 "_ZN9__gnu_cxx13new_allocatorIPN4Rcpp12SignedMethodI5VideoEEE7destroyIS5_EEvPT_"
 "_ZN9__gnu_cxx13new_allocatorIPN4Rcpp12SignedMethodI5VideoEEE8allocateEyPKv"
 "_ZN9__gnu_cxx13new_allocatorIPN4Rcpp12SignedMethodI5VideoEEE9constructIS5_IS5_EEEvPT_DpOT0_"
 "_ZN9__gnu_cxx13new_allocatorIPN4Rcpp12SignedMethodI5VideoEEEC2Ev"
 "_ZN9__gnu_cxx13new_allocatorIPN4Rcpp12SignedMethodI5VideoEEED2Ev"
 "_ZN9__gnu_cxx13new_allocatorIPN4Rcpp12SignedMethodI6StreamEEE10deallocateEPS5_y"
 "_ZN9__gnu_cxx13new_allocatorIPN4Rcpp12SignedMethodI6StreamEEE7destroyIS5_EEvPT_"
 "_ZN9__gnu_cxx13new_allocatorIPN4Rcpp12SignedMethodI6StreamEEE8allocateEyPKv"
 "_ZN9__gnu_cxx13new_allocatorIPN4Rcpp12SignedMethodI6StreamEEE9constructIS5_IS5_EEEvPT_DpOT0_"
 "_ZN9__gnu_cxx13new_allocatorIPN4Rcpp12SignedMethodI6StreamEEEC2Ev"
 "_ZN9__gnu_cxx13new_allocatorIPN4Rcpp12SignedMethodI6StreamEEED2Ev"
 "_ZN9__gnu_cxx13new_allocatorIPN4Rcpp13SignedFactoryI11VideoWriterEEE10deallocateEPS5_y"
 "_ZN9__gnu_cxx13new_allocatorIPN4Rcpp13SignedFactoryI11VideoWriterEEEC2Ev"
 "_ZN9__gnu_cxx13new_allocatorIPN4Rcpp13SignedFactoryI11VideoWriterEEED2Ev"
 "_ZN9__gnu_cxx13new_allocatorIPN4Rcpp13SignedFactoryI5ImageEEE10deallocateEPS5_y"
 "_ZN9__gnu_cxx13new_allocatorIPN4Rcpp13SignedFactoryI5ImageEEEC2Ev"
 "_ZN9__gnu_cxx13new_allocatorIPN4Rcpp13SignedFactoryI5ImageEEED2Ev"
 "_ZN9__gnu_cxx13new_allocatorIPN4Rcpp13SignedFactoryI5VideoEEE10deallocateEPS5_y"
 "_ZN9__gnu_cxx13new_allocatorIPN4Rcpp13SignedFactoryI5VideoEEEC2Ev"
 "_ZN9__gnu_cxx13new_allocatorIPN4Rcpp13SignedFactoryI5VideoEEED2Ev"
 "_ZN9__gnu_cxx13new_allocatorIPN4Rcpp13SignedFactoryI6StreamEEE10deallocateEPS5_y"
 "_ZN9__gnu_cxx13new_allocatorIPN4Rcpp13SignedFactoryI6StreamEEEC2Ev"
 "_ZN9__gnu_cxx13new_allocatorIPN4Rcpp13SignedFactoryI6StreamEEED2Ev"
 "_ZN9__gnu_cxx13new_allocatorIPN4Rcpp17SignedConstructorI11VideoWriterEEE10deallocateEPS5_y"
 "_ZN9__gnu_cxx13new_allocatorIPN4Rcpp17SignedConstructorI11VideoWriterEEE7destroyIS5_EEvPT_"
 "_ZN9__gnu_cxx13new_allocatorIPN4Rcpp17SignedConstructorI11VideoWriterEEE8allocateEyPKv"
 "_ZN9__gnu_cxx13new_allocatorIPN4Rcpp17SignedConstructorI11VideoWriterEEE9constructIS5_IS5_EEEvPT_DpOT0_"
 "_ZN9__gnu_cxx13new_allocatorIPN4Rcpp17SignedConstructorI11VideoWriterEEEC2Ev"
 "_ZN9__gnu_cxx13new_allocatorIPN4Rcpp17SignedConstructorI11VideoWriterEEED2Ev"
 "_ZN9__gnu_cxx13new_allocatorIPN4Rcpp17SignedConstructorI5ImageEEE10deallocateEPS5_y"
 "_ZN9__gnu_cxx13new_allocatorIPN4Rcpp17SignedConstructorI5ImageEEE7destroyIS5_EEvPT_"
 "_ZN9__gnu_cxx13new_allocatorIPN4Rcpp17SignedConstructorI5ImageEEE8allocateEyPKv"
 "_ZN9__gnu_cxx13new_allocatorIPN4Rcpp17SignedConstructorI5ImageEEE9constructIS5_IS5_EEEvPT_DpOT0_"
 "_ZN9__gnu_cxx13new_allocatorIPN4Rcpp17SignedConstructorI5ImageEEEC2Ev"
 "_ZN9__gnu_cxx13new_allocatorIPN4Rcpp17SignedConstructorI5ImageEEED2Ev"
 "_ZN9__gnu_cxx13new_allocatorIPN4Rcpp17SignedConstructorI5VideoEEE10deallocateEPS5_y"
 "_ZN9__gnu_cxx13new_allocatorIPN4Rcpp17SignedConstructorI5VideoEEE7destroyIS5_EEvPT_"
 "_ZN9__gnu_cxx13new_allocatorIPN4Rcpp17SignedConstructorI5VideoEEE8allocateEyPKv"
 "_ZN9__gnu_cxx13new_allocatorIPN4Rcpp17SignedConstructorI5VideoEEE9constructIS5_IS5_EEEvPT_DpOT0_"
 "_ZN9__gnu_cxx13new_allocatorIPN4Rcpp17SignedConstructorI5VideoEEEC2Ev"
 "_ZN9__gnu_cxx13new_allocatorIPN4Rcpp17SignedConstructorI5VideoEEED2Ev"
 "_ZN9__gnu_cxx13new_allocatorIPN4Rcpp17SignedConstructorI6StreamEEE10deallocateEPS5_y"
 "_ZN9__gnu_cxx13new_allocatorIPN4Rcpp17SignedConstructorI6StreamEEE7destroyIS5_EEvPT_"
 "_ZN9__gnu_cxx13new_allocatorIPN4Rcpp17SignedConstructorI6StreamEEE8allocateEyPKv"
 "_ZN9__gnu_cxx13new_allocatorIPN4Rcpp17SignedConstructorI6StreamEEE9constructIS5_IS5_EEEvPT_DpOT0_"
 "_ZN9__gnu_cxx13new_allocatorIPN4Rcpp17SignedConstructorI6StreamEEEC2Ev"
 "_ZN9__gnu_cxx13new_allocatorIPN4Rcpp17SignedConstructorI6StreamEEED2Ev"
 "_ZN9__gnu_cxx13new_allocatorISsE10deallocateEPSsy"
 "_ZN9__gnu_cxx13new_allocatorISsEC2Ev"
 "_ZN9__gnu_cxx13new_allocatorISsED2Ev"
 "_ZN9__gnu_cxx13new_allocatorISt13_Rb_tree_nodeISt4pairIKSsiEEE10deallocateEPS5_y"
 "_ZN9__gnu_cxx13new_allocatorISt13_Rb_tree_nodeISt4pairIKSsiEEE7destroyIS4_EEvPT_"
 "_ZN9__gnu_cxx13new_allocatorISt13_Rb_tree_nodeISt4pairIKSsiEEED2Ev"
 "_ZN9__gnu_cxx13new_allocatorISt13_Rb_tree_nodeISt4pairIKSsPN4Rcpp10class_BaseEEEE10deallocateEPS8_y"
 "_ZN9__gnu_cxx13new_allocatorISt13_Rb_tree_nodeISt4pairIKSsPN4Rcpp10class_BaseEEEE7destroyIS7_EEvPT_"
 "_ZN9__gnu_cxx13new_allocatorISt13_Rb_tree_nodeISt4pairIKSsPN4Rcpp10class_BaseEEEE8allocateEyPKv"
 "_ZN9__gnu_cxx13new_allocatorISt13_Rb_tree_nodeISt4pairIKSsPN4Rcpp10class_BaseEEEE9constructIS7_IS7_EEEvPT_DpOT0_"
 "_ZN9__gnu_cxx13new_allocatorISt13_Rb_tree_nodeISt4pairIKSsPN4Rcpp10class_BaseEEEEC2Ev"
 "_ZN9__gnu_cxx13new_allocatorISt13_Rb_tree_nodeISt4pairIKSsPN4Rcpp10class_BaseEEEED2Ev"
 "_ZN9__gnu_cxx13new_allocatorISt13_Rb_tree_nodeISt4pairIKSsPN4Rcpp11CppFunctionEEEE10deallocateEPS8_y"
 "_ZN9__gnu_cxx13new_allocatorISt13_Rb_tree_nodeISt4pairIKSsPN4Rcpp11CppFunctionEEEE7destroyIS7_EEvPT_"
 "_ZN9__gnu_cxx13new_allocatorISt13_Rb_tree_nodeISt4pairIKSsPN4Rcpp11CppFunctionEEEE8allocateEyPKv"
 "_ZN9__gnu_cxx13new_allocatorISt13_Rb_tree_nodeISt4pairIKSsPN4Rcpp11CppFunctionEEEE9constructIS7_IS7_EEEvPT_DpOT0_"
 "_ZN9__gnu_cxx13new_allocatorISt13_Rb_tree_nodeISt4pairIKSsPN4Rcpp11CppFunctionEEEEC2Ev"
 "_ZN9__gnu_cxx13new_allocatorISt13_Rb_tree_nodeISt4pairIKSsPN4Rcpp11CppFunctionEEEED2Ev"
 "_ZN9__gnu_cxx13new_allocatorISt13_Rb_tree_nodeISt4pairIKSsPN4Rcpp11CppPropertyI11VideoWriterEEEEE10deallocateEPSA_y"
 "_ZN9__gnu_cxx13new_allocatorISt13_Rb_tree_nodeISt4pairIKSsPN4Rcpp11CppPropertyI11VideoWriterEEEEE7destroyIS9_EEvPT_"
 "_ZN9__gnu_cxx13new_allocatorISt13_Rb_tree_nodeISt4pairIKSsPN4Rcpp11CppPropertyI11VideoWriterEEEEEC2Ev"
 "_ZN9__gnu_cxx13new_allocatorISt13_Rb_tree_nodeISt4pairIKSsPN4Rcpp11CppPropertyI11VideoWriterEEEEED2Ev"
 "_ZN9__gnu_cxx13new_allocatorISt13_Rb_tree_nodeISt4pairIKSsPN4Rcpp11CppPropertyI5ImageEEEEE10deallocateEPSA_y"
 "_ZN9__gnu_cxx13new_allocatorISt13_Rb_tree_nodeISt4pairIKSsPN4Rcpp11CppPropertyI5ImageEEEEE7destroyIS9_EEvPT_"
 "_ZN9__gnu_cxx13new_allocatorISt13_Rb_tree_nodeISt4pairIKSsPN4Rcpp11CppPropertyI5ImageEEEEEC2Ev"
 "_ZN9__gnu_cxx13new_allocatorISt13_Rb_tree_nodeISt4pairIKSsPN4Rcpp11CppPropertyI5ImageEEEEED2Ev"
 "_ZN9__gnu_cxx13new_allocatorISt13_Rb_tree_nodeISt4pairIKSsPN4Rcpp11CppPropertyI5VideoEEEEE10deallocateEPSA_y"
 "_ZN9__gnu_cxx13new_allocatorISt13_Rb_tree_nodeISt4pairIKSsPN4Rcpp11CppPropertyI5VideoEEEEE7destroyIS9_EEvPT_"
 "_ZN9__gnu_cxx13new_allocatorISt13_Rb_tree_nodeISt4pairIKSsPN4Rcpp11CppPropertyI5VideoEEEEEC2Ev"
 "_ZN9__gnu_cxx13new_allocatorISt13_Rb_tree_nodeISt4pairIKSsPN4Rcpp11CppPropertyI5VideoEEEEED2Ev"
 "_ZN9__gnu_cxx13new_allocatorISt13_Rb_tree_nodeISt4pairIKSsPN4Rcpp11CppPropertyI6StreamEEEEE10deallocateEPSA_y"
 "_ZN9__gnu_cxx13new_allocatorISt13_Rb_tree_nodeISt4pairIKSsPN4Rcpp11CppPropertyI6StreamEEEEE7destroyIS9_EEvPT_"
 "_ZN9__gnu_cxx13new_allocatorISt13_Rb_tree_nodeISt4pairIKSsPN4Rcpp11CppPropertyI6StreamEEEEEC2Ev"
 "_ZN9__gnu_cxx13new_allocatorISt13_Rb_tree_nodeISt4pairIKSsPN4Rcpp11CppPropertyI6StreamEEEEED2Ev"
 "_ZN9__gnu_cxx13new_allocatorISt13_Rb_tree_nodeISt4pairIKSsPSt6vectorIPN4Rcpp12SignedMethodI11VideoWriterEESaIS9_EEEEE10deallocateEPSE_y"
 "_ZN9__gnu_cxx13new_allocatorISt13_Rb_tree_nodeISt4pairIKSsPSt6vectorIPN4Rcpp12SignedMethodI11VideoWriterEESaIS9_EEEEE7destroyISD_EEvPT_"
 "_ZN9__gnu_cxx13new_allocatorISt13_Rb_tree_nodeISt4pairIKSsPSt6vectorIPN4Rcpp12SignedMethodI11VideoWriterEESaIS9_EEEEE8allocateEyPKv"
 "_ZN9__gnu_cxx13new_allocatorISt13_Rb_tree_nodeISt4pairIKSsPSt6vectorIPN4Rcpp12SignedMethodI11VideoWriterEESaIS9_EEEEE9constructISD_IS2_ISsSC_EEEEvPT_DpOT0_"
 "_ZN9__gnu_cxx13new_allocatorISt13_Rb_tree_nodeISt4pairIKSsPSt6vectorIPN4Rcpp12SignedMethodI11VideoWriterEESaIS9_EEEEEC2Ev"
 "_ZN9__gnu_cxx13new_allocatorISt13_Rb_tree_nodeISt4pairIKSsPSt6vectorIPN4Rcpp12SignedMethodI11VideoWriterEESaIS9_EEEEED2Ev"
 "_ZN9__gnu_cxx13new_allocatorISt13_Rb_tree_nodeISt4pairIKSsPSt6vectorIPN4Rcpp12SignedMethodI5ImageEESaIS9_EEEEE10deallocateEPSE_y"
 "_ZN9__gnu_cxx13new_allocatorISt13_Rb_tree_nodeISt4pairIKSsPSt6vectorIPN4Rcpp12SignedMethodI5ImageEESaIS9_EEEEE7destroyISD_EEvPT_"
 "_ZN9__gnu_cxx13new_allocatorISt13_Rb_tree_nodeISt4pairIKSsPSt6vectorIPN4Rcpp12SignedMethodI5ImageEESaIS9_EEEEE8allocateEyPKv"
 "_ZN9__gnu_cxx13new_allocatorISt13_Rb_tree_nodeISt4pairIKSsPSt6vectorIPN4Rcpp12SignedMethodI5ImageEESaIS9_EEEEE9constructISD_IS2_ISsSC_EEEEvPT_DpOT0_"
 "_ZN9__gnu_cxx13new_allocatorISt13_Rb_tree_nodeISt4pairIKSsPSt6vectorIPN4Rcpp12SignedMethodI5ImageEESaIS9_EEEEEC2Ev"
 "_ZN9__gnu_cxx13new_allocatorISt13_Rb_tree_nodeISt4pairIKSsPSt6vectorIPN4Rcpp12SignedMethodI5ImageEESaIS9_EEEEED2Ev"
 "_ZN9__gnu_cxx13new_allocatorISt13_Rb_tree_nodeISt4pairIKSsPSt6vectorIPN4Rcpp12SignedMethodI5VideoEESaIS9_EEEEE10deallocateEPSE_y"
 "_ZN9__gnu_cxx13new_allocatorISt13_Rb_tree_nodeISt4pairIKSsPSt6vectorIPN4Rcpp12SignedMethodI5VideoEESaIS9_EEEEE7destroyISD_EEvPT_"
 "_ZN9__gnu_cxx13new_allocatorISt13_Rb_tree_nodeISt4pairIKSsPSt6vectorIPN4Rcpp12SignedMethodI5VideoEESaIS9_EEEEE8allocateEyPKv"
 "_ZN9__gnu_cxx13new_allocatorISt13_Rb_tree_nodeISt4pairIKSsPSt6vectorIPN4Rcpp12SignedMethodI5VideoEESaIS9_EEEEE9constructISD_IS2_ISsSC_EEEEvPT_DpOT0_"
 "_ZN9__gnu_cxx13new_allocatorISt13_Rb_tree_nodeISt4pairIKSsPSt6vectorIPN4Rcpp12SignedMethodI5VideoEESaIS9_EEEEEC2Ev"
 "_ZN9__gnu_cxx13new_allocatorISt13_Rb_tree_nodeISt4pairIKSsPSt6vectorIPN4Rcpp12SignedMethodI5VideoEESaIS9_EEEEED2Ev"
 "_ZN9__gnu_cxx13new_allocatorISt13_Rb_tree_nodeISt4pairIKSsPSt6vectorIPN4Rcpp12SignedMethodI6StreamEESaIS9_EEEEE10deallocateEPSE_y"
 "_ZN9__gnu_cxx13new_allocatorISt13_Rb_tree_nodeISt4pairIKSsPSt6vectorIPN4Rcpp12SignedMethodI6StreamEESaIS9_EEEEE7destroyISD_EEvPT_"
 "_ZN9__gnu_cxx13new_allocatorISt13_Rb_tree_nodeISt4pairIKSsPSt6vectorIPN4Rcpp12SignedMethodI6StreamEESaIS9_EEEEE8allocateEyPKv"
 "_ZN9__gnu_cxx13new_allocatorISt13_Rb_tree_nodeISt4pairIKSsPSt6vectorIPN4Rcpp12SignedMethodI6StreamEESaIS9_EEEEE9constructISD_IS2_ISsSC_EEEEvPT_DpOT0_"
 "_ZN9__gnu_cxx13new_allocatorISt13_Rb_tree_nodeISt4pairIKSsPSt6vectorIPN4Rcpp12SignedMethodI6StreamEESaIS9_EEEEEC2Ev"
 "_ZN9__gnu_cxx13new_allocatorISt13_Rb_tree_nodeISt4pairIKSsPSt6vectorIPN4Rcpp12SignedMethodI6StreamEESaIS9_EEEEED2Ev"
 "_ZN9__gnu_cxx13new_allocatorISt13_Rb_tree_nodeISt4pairIKSsSt3mapISsiSt4lessISsESaIS2_IS3_iEEEEEE10deallocateEPSB_y"
 "_ZN9__gnu_cxx13new_allocatorISt13_Rb_tree_nodeISt4pairIKSsSt3mapISsiSt4lessISsESaIS2_IS3_iEEEEEE7destroyISA_EEvPT_"
 "_ZN9__gnu_cxx13new_allocatorISt13_Rb_tree_nodeISt4pairIKSsSt3mapISsiSt4lessISsESaIS2_IS3_iEEEEEEC2Ev"
 "_ZN9__gnu_cxx13new_allocatorISt13_Rb_tree_nodeISt4pairIKSsSt3mapISsiSt4lessISsESaIS2_IS3_iEEEEEED2Ev"
 "_ZN9__gnu_cxx13new_allocatorISt6vectorIN2cv6Point_IiEESaIS4_EEE10deallocateEPS6_y"
 "_ZN9__gnu_cxx13new_allocatorISt6vectorIN2cv6Point_IiEESaIS4_EEE7destroyIS6_EEvPT_"
 "_ZN9__gnu_cxx13new_allocatorISt6vectorIN2cv6Point_IiEESaIS4_EEE8allocateEyPKv"
 "_ZN9__gnu_cxx13new_allocatorISt6vectorIN2cv6Point_IiEESaIS4_EEE9constructIS6_IRKS6_EEEvPT_DpOT0_"
 "_ZN9__gnu_cxx13new_allocatorISt6vectorIN2cv6Point_IiEESaIS4_EEEC2Ev"
 "_ZN9__gnu_cxx13new_allocatorISt6vectorIN2cv6Point_IiEESaIS4_EEED2Ev"
 "_ZN9__gnu_cxx14__alloc_traitsISaIN2cv6Point_IiEEEE17_S_select_on_copyERKS4_"
 "_ZN9__gnu_cxx16__aligned_bufferISt4pairIKSsiEE6_M_ptrEv"
 "_ZN9__gnu_cxx16__aligned_bufferISt4pairIKSsiEE7_M_addrEv"
 "_ZN9__gnu_cxx16__aligned_bufferISt4pairIKSsPN4Rcpp10class_BaseEEE6_M_ptrEv"
 "_ZN9__gnu_cxx16__aligned_bufferISt4pairIKSsPN4Rcpp10class_BaseEEE7_M_addrEv"
 "_ZN9__gnu_cxx16__aligned_bufferISt4pairIKSsPN4Rcpp11CppFunctionEEE6_M_ptrEv"
 "_ZN9__gnu_cxx16__aligned_bufferISt4pairIKSsPN4Rcpp11CppFunctionEEE7_M_addrEv"
 "_ZN9__gnu_cxx16__aligned_bufferISt4pairIKSsPN4Rcpp11CppPropertyI11VideoWriterEEEE6_M_ptrEv"
 "_ZN9__gnu_cxx16__aligned_bufferISt4pairIKSsPN4Rcpp11CppPropertyI11VideoWriterEEEE7_M_addrEv"
 "_ZN9__gnu_cxx16__aligned_bufferISt4pairIKSsPN4Rcpp11CppPropertyI5ImageEEEE6_M_ptrEv"
 "_ZN9__gnu_cxx16__aligned_bufferISt4pairIKSsPN4Rcpp11CppPropertyI5ImageEEEE7_M_addrEv"
 "_ZN9__gnu_cxx16__aligned_bufferISt4pairIKSsPN4Rcpp11CppPropertyI5VideoEEEE6_M_ptrEv"
 "_ZN9__gnu_cxx16__aligned_bufferISt4pairIKSsPN4Rcpp11CppPropertyI5VideoEEEE7_M_addrEv"
 "_ZN9__gnu_cxx16__aligned_bufferISt4pairIKSsPN4Rcpp11CppPropertyI6StreamEEEE6_M_ptrEv"
 "_ZN9__gnu_cxx16__aligned_bufferISt4pairIKSsPN4Rcpp11CppPropertyI6StreamEEEE7_M_addrEv"
 "_ZN9__gnu_cxx16__aligned_bufferISt4pairIKSsPSt6vectorIPN4Rcpp12SignedMethodI11VideoWriterEESaIS8_EEEE6_M_ptrEv"
 "_ZN9__gnu_cxx16__aligned_bufferISt4pairIKSsPSt6vectorIPN4Rcpp12SignedMethodI11VideoWriterEESaIS8_EEEE7_M_addrEv"
 "_ZN9__gnu_cxx16__aligned_bufferISt4pairIKSsPSt6vectorIPN4Rcpp12SignedMethodI5ImageEESaIS8_EEEE6_M_ptrEv"
 "_ZN9__gnu_cxx16__aligned_bufferISt4pairIKSsPSt6vectorIPN4Rcpp12SignedMethodI5ImageEESaIS8_EEEE7_M_addrEv"
 "_ZN9__gnu_cxx16__aligned_bufferISt4pairIKSsPSt6vectorIPN4Rcpp12SignedMethodI5VideoEESaIS8_EEEE6_M_ptrEv"
 "_ZN9__gnu_cxx16__aligned_bufferISt4pairIKSsPSt6vectorIPN4Rcpp12SignedMethodI5VideoEESaIS8_EEEE7_M_addrEv"
 "_ZN9__gnu_cxx16__aligned_bufferISt4pairIKSsPSt6vectorIPN4Rcpp12SignedMethodI6StreamEESaIS8_EEEE6_M_ptrEv"
 "_ZN9__gnu_cxx16__aligned_bufferISt4pairIKSsPSt6vectorIPN4Rcpp12SignedMethodI6StreamEESaIS8_EEEE7_M_addrEv"
 "_ZN9__gnu_cxx16__aligned_bufferISt4pairIKSsSt3mapISsiSt4lessISsESaIS1_IS2_iEEEEE6_M_ptrEv"
 "_ZN9__gnu_cxx16__aligned_bufferISt4pairIKSsSt3mapISsiSt4lessISsESaIS1_IS2_iEEEEE7_M_addrEv"
 "_ZN9__gnu_cxx17__normal_iteratorIPcSsEppEv"
 "_ZN9__gnu_cxx17__normal_iteratorIPKiSt6vectorIiSaIiEEEC1ERKS2_"
 "_ZN9__gnu_cxx17__normal_iteratorIPKiSt6vectorIiSaIiEEEppEv"
 "_ZN9__gnu_cxx17__normal_iteratorIPKN2cv6Point_IiEESt6vectorIS3_SaIS3_EEEC1ERKS5_"
 "_ZN9__gnu_cxx17__normal_iteratorIPKN2cv6Point_IiEESt6vectorIS3_SaIS3_EEEppEv"
 "_ZN9__gnu_cxx17__normal_iteratorIPPN4Rcpp12SignedMethodI11VideoWriterEESt6vectorIS5_SaIS5_EEEC1ERKS6_"
 "_ZN9__gnu_cxx17__normal_iteratorIPPN4Rcpp12SignedMethodI11VideoWriterEESt6vectorIS5_SaIS5_EEEppEv"
 "_ZN9__gnu_cxx17__normal_iteratorIPPN4Rcpp12SignedMethodI5ImageEESt6vectorIS5_SaIS5_EEEC1ERKS6_"
 "_ZN9__gnu_cxx17__normal_iteratorIPPN4Rcpp12SignedMethodI5ImageEESt6vectorIS5_SaIS5_EEEppEv"
 "_ZN9__gnu_cxx17__normal_iteratorIPPN4Rcpp12SignedMethodI5VideoEESt6vectorIS5_SaIS5_EEEC1ERKS6_"
 "_ZN9__gnu_cxx17__normal_iteratorIPPN4Rcpp12SignedMethodI5VideoEESt6vectorIS5_SaIS5_EEEppEv"
 "_ZN9__gnu_cxx17__normal_iteratorIPPN4Rcpp12SignedMethodI6StreamEESt6vectorIS5_SaIS5_EEEC1ERKS6_"
 "_ZN9__gnu_cxx17__normal_iteratorIPPN4Rcpp12SignedMethodI6StreamEESt6vectorIS5_SaIS5_EEEppEv"
 "_ZN9__gnu_cxx17__normal_iteratorIPPN4Rcpp17SignedConstructorI11VideoWriterEESt6vectorIS5_SaIS5_EEEC1ERKS6_"
 "_ZN9__gnu_cxx17__normal_iteratorIPPN4Rcpp17SignedConstructorI11VideoWriterEESt6vectorIS5_SaIS5_EEEppEv"
 "_ZN9__gnu_cxx17__normal_iteratorIPPN4Rcpp17SignedConstructorI5ImageEESt6vectorIS5_SaIS5_EEEC1ERKS6_"
 "_ZN9__gnu_cxx17__normal_iteratorIPPN4Rcpp17SignedConstructorI5ImageEESt6vectorIS5_SaIS5_EEEppEv"
 "_ZN9__gnu_cxx17__normal_iteratorIPPN4Rcpp17SignedConstructorI5VideoEESt6vectorIS5_SaIS5_EEEC1ERKS6_"
 "_ZN9__gnu_cxx17__normal_iteratorIPPN4Rcpp17SignedConstructorI5VideoEESt6vectorIS5_SaIS5_EEEppEv"
 "_ZN9__gnu_cxx17__normal_iteratorIPPN4Rcpp17SignedConstructorI6StreamEESt6vectorIS5_SaIS5_EEEC1ERKS6_"
 "_ZN9__gnu_cxx17__normal_iteratorIPPN4Rcpp17SignedConstructorI6StreamEESt6vectorIS5_SaIS5_EEEppEv"
 "_ZN9__gnu_cxxmiIPKiSt6vectorIiSaIiEEEENS_17__normal_iteratorIT_T0_E15difference_typeERKS9_SC_"
 "_ZN9__gnu_cxxneIPcSsEEbRKNS_17__normal_iteratorIT_T0_EES7_"
 "_ZN9__gnu_cxxneIPKiSt6vectorIiSaIiEEEEbRKNS_17__normal_iteratorIT_T0_EESB_"
 "_ZN9__gnu_cxxneIPKN2cv6Point_IiEESt6vectorIS3_SaIS3_EEEEbRKNS_17__normal_iteratorIT_T0_EESE_"
 "_ZngILi14ELb1EN4Rcpp6VectorILi14ENS0_15PreserveStorageEEEENS0_5sugar17UnaryMinus_VectorIXT_EXT0_ET1_EERKNS0_10VectorBaseIXT_EXT0_ES6_EE"
 "_ZNK10tinyformat6detail9FormatArg5toIntEv"
 "_ZNK10tinyformat6detail9FormatArg6formatERSoPKcS4_i"
 "_ZNK2cv3Mat4typeEv"
 "_ZNK2cv3Mat5depthEv"
 "_ZNK2cv3Mat5emptyEv"
 "_ZNK2cv3Mat5totalEv"
 "_ZNK2cv3Mat8channelsEv"
 "_ZNK2cv3MatclERKNS_5Rect_IiEE"
 "_ZNK2cv3PtrINS_18SimpleBlobDetectorEEptEv"
 "_ZNK2cv7MatExprcvNS_3MatEEv"
 "_ZNK2cv7MatSizeclEv"
 "_ZNK2cv7MatSizeixEi"
 "_ZNK2cv7MatStepixEi"
 "_ZNK4arma4CubeIdE3maxEv"
 "_ZNK4arma4CubeIdE3minEv"
 "_ZNK4arma4CubeIiE3maxEv"
 "_ZNK4arma4CubeIiE3minEv"
 "_ZNK4Rcpp10eval_error4whatEv"
 "_ZNK4Rcpp10VectorBaseILi13ELb1ENS_12MatrixColumnILi13EEEE4sizeEv"
 "_ZNK4Rcpp10VectorBaseILi13ELb1ENS_12MatrixColumnILi13EEEE7get_refEv"
 "_ZNK4Rcpp10VectorBaseILi14ELb1ENS_5sugar17UnaryMinus_VectorILi14ELb1ENS_6VectorILi14ENS_15PreserveStorageEEEEEE7get_refEv"
 "_ZNK4Rcpp10VectorBaseILi14ELb1ENS_5sugar21Plus_Vector_PrimitiveILi14ELb1ENS_6VectorILi14ENS_15PreserveStorageEEEEEE4sizeEv"
 "_ZNK4Rcpp10VectorBaseILi14ELb1ENS_5sugar21Plus_Vector_PrimitiveILi14ELb1ENS_6VectorILi14ENS_15PreserveStorageEEEEEE7get_refEv"
 "_ZNK4Rcpp10VectorBaseILi14ELb1ENS_5sugar21Plus_Vector_PrimitiveILi14ELb1ENS1_17UnaryMinus_VectorILi14ELb1ENS_6VectorILi14ENS_15PreserveStorageEEEEEEEE4sizeEv"
 "_ZNK4Rcpp10VectorBaseILi14ELb1ENS_5sugar21Plus_Vector_PrimitiveILi14ELb1ENS1_17UnaryMinus_VectorILi14ELb1ENS_6VectorILi14ENS_15PreserveStorageEEEEEEEE7get_refEv"
 "_ZNK4Rcpp10VectorBaseILi14ELb1ENS_6VectorILi14ENS_15PreserveStorageEEEE4sizeEv"
 "_ZNK4Rcpp10VectorBaseILi14ELb1ENS_6VectorILi14ENS_15PreserveStorageEEEE7get_refEv"
 "_ZNK4Rcpp10VectorBaseILi14ELb1ENS_6VectorILi14ENS_15PreserveStorageEEEEixEx"
 "_ZNK4Rcpp12MatrixColumnILi13EE4sizeEv"
 "_ZNK4Rcpp12MatrixColumnILi13EEixEi"
 "_ZNK4Rcpp12not_a_matrix4whatEv"
 "_ZNK4Rcpp13BindingPolicyINS_16Environment_ImplINS_15PreserveStorageEEEE7Binding3getEv"
 "_ZNK4Rcpp13BindingPolicyINS_16Environment_ImplINS_15PreserveStorageEEEE7BindingcvT_INS_13Function_ImplIS2_EEEEv"
 "_ZNK4Rcpp13Function_ImplINS_15PreserveStorageEEclIPKcNS_4XPtrI5ImageS1_XadL_ZNS_25standard_delete_finalizerIS7_EEvPT_EELb0EEEEEP7SEXPRECRKT_RKT0_"
 "_ZNK4Rcpp13Function_ImplINS_15PreserveStorageEEclISsEEP7SEXPRECRKT_"
 "_ZNK4Rcpp13not_reference4whatEv"
 "_ZNK4Rcpp14not_compatible4whatEv"
 "_ZNK4Rcpp14RObjectMethodsINS_6VectorILi16ENS_15PreserveStorageEEEE6isNULLEv"
 "_ZNK4Rcpp15PreserveStorageINS_12RObject_ImplIS0_EEEcvP7SEXPRECEv"
 "_ZNK4Rcpp15PreserveStorageINS_13Function_ImplIS0_EEE5get__Ev"
 "_ZNK4Rcpp15PreserveStorageINS_14Reference_ImplIS0_EEEcvP7SEXPRECEv"
 "_ZNK4Rcpp15PreserveStorageINS_16Environment_ImplIS0_EEE5get__Ev"
 "_ZNK4Rcpp15PreserveStorageINS_4XPtrI11VideoWriterS0_XadL_ZNS_25standard_delete_finalizerIS2_EEvPT_EELb0EEEE5get__Ev"
 "_ZNK4Rcpp15PreserveStorageINS_4XPtrI11VideoWriterS0_XadL_ZNS_25standard_delete_finalizerIS2_EEvPT_EELb0EEEEcvP7SEXPRECEv"
 "_ZNK4Rcpp15PreserveStorageINS_4XPtrI5ImageS0_XadL_ZNS_25standard_delete_finalizerIS2_EEvPT_EELb0EEEE5get__Ev"
 "_ZNK4Rcpp15PreserveStorageINS_4XPtrI5ImageS0_XadL_ZNS_25standard_delete_finalizerIS2_EEvPT_EELb0EEEEcvP7SEXPRECEv"
 "_ZNK4Rcpp15PreserveStorageINS_4XPtrI5VideoS0_XadL_ZNS_25standard_delete_finalizerIS2_EEvPT_EELb0EEEE5get__Ev"
 "_ZNK4Rcpp15PreserveStorageINS_4XPtrI5VideoS0_XadL_ZNS_25standard_delete_finalizerIS2_EEvPT_EELb0EEEEcvP7SEXPRECEv"
 "_ZNK4Rcpp15PreserveStorageINS_4XPtrI6StreamS0_XadL_ZNS_25standard_delete_finalizerIS2_EEvPT_EELb0EEEE5get__Ev"
 "_ZNK4Rcpp15PreserveStorageINS_4XPtrI6StreamS0_XadL_ZNS_25standard_delete_finalizerIS2_EEvPT_EELb0EEEEcvP7SEXPRECEv"
 "_ZNK4Rcpp15PreserveStorageINS_4XPtrINS_10class_BaseES0_XadL_ZNS_25standard_delete_finalizerIS2_EEvPT_EELb0EEEEcvP7SEXPRECEv"
 "_ZNK4Rcpp15PreserveStorageINS_4XPtrINS_11CppPropertyI11VideoWriterEES0_XadL_ZNS_25standard_delete_finalizerIS4_EEvPT_EELb0EEEE5get__Ev"
 "_ZNK4Rcpp15PreserveStorageINS_4XPtrINS_11CppPropertyI11VideoWriterEES0_XadL_ZNS_25standard_delete_finalizerIS4_EEvPT_EELb0EEEEcvP7SEXPRECEv"
 "_ZNK4Rcpp15PreserveStorageINS_4XPtrINS_11CppPropertyI5ImageEES0_XadL_ZNS_25standard_delete_finalizerIS4_EEvPT_EELb0EEEE5get__Ev"
 "_ZNK4Rcpp15PreserveStorageINS_4XPtrINS_11CppPropertyI5ImageEES0_XadL_ZNS_25standard_delete_finalizerIS4_EEvPT_EELb0EEEEcvP7SEXPRECEv"
 "_ZNK4Rcpp15PreserveStorageINS_4XPtrINS_11CppPropertyI5VideoEES0_XadL_ZNS_25standard_delete_finalizerIS4_EEvPT_EELb0EEEE5get__Ev"
 "_ZNK4Rcpp15PreserveStorageINS_4XPtrINS_11CppPropertyI5VideoEES0_XadL_ZNS_25standard_delete_finalizerIS4_EEvPT_EELb0EEEEcvP7SEXPRECEv"
 "_ZNK4Rcpp15PreserveStorageINS_4XPtrINS_11CppPropertyI6StreamEES0_XadL_ZNS_25standard_delete_finalizerIS4_EEvPT_EELb0EEEE5get__Ev"
 "_ZNK4Rcpp15PreserveStorageINS_4XPtrINS_11CppPropertyI6StreamEES0_XadL_ZNS_25standard_delete_finalizerIS4_EEvPT_EELb0EEEEcvP7SEXPRECEv"
 "_ZNK4Rcpp15PreserveStorageINS_4XPtrINS_17SignedConstructorI11VideoWriterEES0_XadL_ZNS_25standard_delete_finalizerIS4_EEvPT_EELb0EEEE5get__Ev"
 "_ZNK4Rcpp15PreserveStorageINS_4XPtrINS_17SignedConstructorI11VideoWriterEES0_XadL_ZNS_25standard_delete_finalizerIS4_EEvPT_EELb0EEEEcvP7SEXPRECEv"
 "_ZNK4Rcpp15PreserveStorageINS_4XPtrINS_17SignedConstructorI5ImageEES0_XadL_ZNS_25standard_delete_finalizerIS4_EEvPT_EELb0EEEE5get__Ev"
 "_ZNK4Rcpp15PreserveStorageINS_4XPtrINS_17SignedConstructorI5ImageEES0_XadL_ZNS_25standard_delete_finalizerIS4_EEvPT_EELb0EEEEcvP7SEXPRECEv"
 "_ZNK4Rcpp15PreserveStorageINS_4XPtrINS_17SignedConstructorI5VideoEES0_XadL_ZNS_25standard_delete_finalizerIS4_EEvPT_EELb0EEEE5get__Ev"
 "_ZNK4Rcpp15PreserveStorageINS_4XPtrINS_17SignedConstructorI5VideoEES0_XadL_ZNS_25standard_delete_finalizerIS4_EEvPT_EELb0EEEEcvP7SEXPRECEv"
 "_ZNK4Rcpp15PreserveStorageINS_4XPtrINS_17SignedConstructorI6StreamEES0_XadL_ZNS_25standard_delete_finalizerIS4_EEvPT_EELb0EEEE5get__Ev"
 "_ZNK4Rcpp15PreserveStorageINS_4XPtrINS_17SignedConstructorI6StreamEES0_XadL_ZNS_25standard_delete_finalizerIS4_EEvPT_EELb0EEEEcvP7SEXPRECEv"
 "_ZNK4Rcpp15PreserveStorageINS_4XPtrINS_6ModuleES0_XadL_ZNS_25standard_delete_finalizerIS2_EEvPT_EELb0EEEE5get__Ev"
 "_ZNK4Rcpp15PreserveStorageINS_4XPtrINS_6ModuleES0_XadL_ZNS_25standard_delete_finalizerIS2_EEvPT_EELb0EEEEcvP7SEXPRECEv"
 "_ZNK4Rcpp15PreserveStorageINS_4XPtrISt6vectorIPNS_12SignedMethodI11VideoWriterEESaIS6_EES0_XadL_ZNS_25standard_delete_finalizerIS8_EEvPT_EELb0EEEE5get__Ev"
 "_ZNK4Rcpp15PreserveStorageINS_4XPtrISt6vectorIPNS_12SignedMethodI11VideoWriterEESaIS6_EES0_XadL_ZNS_25standard_delete_finalizerIS8_EEvPT_EELb0EEEEcvP7SEXPRECEv"
 "_ZNK4Rcpp15PreserveStorageINS_4XPtrISt6vectorIPNS_12SignedMethodI5ImageEESaIS6_EES0_XadL_ZNS_25standard_delete_finalizerIS8_EEvPT_EELb0EEEE5get__Ev"
 "_ZNK4Rcpp15PreserveStorageINS_4XPtrISt6vectorIPNS_12SignedMethodI5ImageEESaIS6_EES0_XadL_ZNS_25standard_delete_finalizerIS8_EEvPT_EELb0EEEEcvP7SEXPRECEv"
 "_ZNK4Rcpp15PreserveStorageINS_4XPtrISt6vectorIPNS_12SignedMethodI5VideoEESaIS6_EES0_XadL_ZNS_25standard_delete_finalizerIS8_EEvPT_EELb0EEEE5get__Ev"
 "_ZNK4Rcpp15PreserveStorageINS_4XPtrISt6vectorIPNS_12SignedMethodI5VideoEESaIS6_EES0_XadL_ZNS_25standard_delete_finalizerIS8_EEvPT_EELb0EEEEcvP7SEXPRECEv"
 "_ZNK4Rcpp15PreserveStorageINS_4XPtrISt6vectorIPNS_12SignedMethodI6StreamEESaIS6_EES0_XadL_ZNS_25standard_delete_finalizerIS8_EEvPT_EELb0EEEE5get__Ev"
 "_ZNK4Rcpp15PreserveStorageINS_4XPtrISt6vectorIPNS_12SignedMethodI6StreamEESaIS6_EES0_XadL_ZNS_25standard_delete_finalizerIS8_EEvPT_EELb0EEEEcvP7SEXPRECEv"
 "_ZNK4Rcpp15PreserveStorageINS_6VectorILi10ES0_EEE5get__Ev"
 "_ZNK4Rcpp15PreserveStorageINS_6VectorILi10ES0_EEEcvP7SEXPRECEv"
 "_ZNK4Rcpp15PreserveStorageINS_6VectorILi13ES0_EEE5get__Ev"
 "_ZNK4Rcpp15PreserveStorageINS_6VectorILi13ES0_EEEcvP7SEXPRECEv"
 "_ZNK4Rcpp15PreserveStorageINS_6VectorILi14ES0_EEE5get__Ev"
 "_ZNK4Rcpp15PreserveStorageINS_6VectorILi14ES0_EEEcvP7SEXPRECEv"
 "_ZNK4Rcpp15PreserveStorageINS_6VectorILi16ES0_EEE5get__Ev"
 "_ZNK4Rcpp15PreserveStorageINS_6VectorILi16ES0_EEEcvP7SEXPRECEv"
 "_ZNK4Rcpp15PreserveStorageINS_6VectorILi19ES0_EEE5get__Ev"
 "_ZNK4Rcpp15PreserveStorageINS_6VectorILi19ES0_EEEcvP7SEXPRECEv"
 "_ZNK4Rcpp16Environment_ImplINS_15PreserveStorageEE3getERKSs"
 "_ZNK4Rcpp19index_out_of_bounds4whatEv"
 "_ZNK4Rcpp20AttributeProxyPolicyINS_6VectorILi13ENS_15PreserveStorageEEEE14AttributeProxy3getEv"
 "_ZNK4Rcpp20AttributeProxyPolicyINS_6VectorILi13ENS_15PreserveStorageEEEE14AttributeProxycvT_IS3_EEv"
 "_ZNK4Rcpp20AttributeProxyPolicyINS_6VectorILi14ENS_15PreserveStorageEEEE14AttributeProxy3getEv"
 "_ZNK4Rcpp20AttributeProxyPolicyINS_6VectorILi14ENS_15PreserveStorageEEEE14AttributeProxycvT_INS1_ILi13ES2_EEEEv"
 "_ZNK4Rcpp20AttributeProxyPolicyINS_6VectorILi19ENS_15PreserveStorageEEEE14AttributeProxy3getEv"
 "_ZNK4Rcpp20AttributeProxyPolicyINS_6VectorILi19ENS_15PreserveStorageEEEE14AttributeProxycvT_INS1_ILi16ES2_EEEEv"
 "_ZNK4Rcpp4XPtrI11VideoWriterNS_15PreserveStorageEXadL_ZNS_25standard_delete_finalizerIS1_EEvPT_EELb0EE11checked_getEv"
 "_ZNK4Rcpp4XPtrI11VideoWriterNS_15PreserveStorageEXadL_ZNS_25standard_delete_finalizerIS1_EEvPT_EELb0EE3getEv"
 "_ZNK4Rcpp4XPtrI5ImageNS_15PreserveStorageEXadL_ZNS_25standard_delete_finalizerIS1_EEvPT_EELb0EE11checked_getEv"
 "_ZNK4Rcpp4XPtrI5ImageNS_15PreserveStorageEXadL_ZNS_25standard_delete_finalizerIS1_EEvPT_EELb0EE3getEv"
 "_ZNK4Rcpp4XPtrI5VideoNS_15PreserveStorageEXadL_ZNS_25standard_delete_finalizerIS1_EEvPT_EELb0EE11checked_getEv"
 "_ZNK4Rcpp4XPtrI5VideoNS_15PreserveStorageEXadL_ZNS_25standard_delete_finalizerIS1_EEvPT_EELb0EE3getEv"
 "_ZNK4Rcpp4XPtrI6StreamNS_15PreserveStorageEXadL_ZNS_25standard_delete_finalizerIS1_EEvPT_EELb0EE11checked_getEv"
 "_ZNK4Rcpp4XPtrI6StreamNS_15PreserveStorageEXadL_ZNS_25standard_delete_finalizerIS1_EEvPT_EELb0EE3getEv"
 "_ZNK4Rcpp5ArmorIP7SEXPRECEcvS2_Ev"
 "_ZNK4Rcpp5sugar11unary_minusILi14ELb1EE5applyEd"
 "_ZNK4Rcpp5sugar17UnaryMinus_VectorILi14ELb1ENS_6VectorILi14ENS_15PreserveStorageEEEE4sizeEv"
 "_ZNK4Rcpp5sugar17UnaryMinus_VectorILi14ELb1ENS_6VectorILi14ENS_15PreserveStorageEEEEixEx"
 "_ZNK4Rcpp5sugar21Plus_Vector_PrimitiveILi14ELb1ENS_6VectorILi14ENS_15PreserveStorageEEEE4sizeEv"
 "_ZNK4Rcpp5sugar21Plus_Vector_PrimitiveILi14ELb1ENS_6VectorILi14ENS_15PreserveStorageEEEEixEx"
 "_ZNK4Rcpp5sugar21Plus_Vector_PrimitiveILi14ELb1ENS0_17UnaryMinus_VectorILi14ELb1ENS_6VectorILi14ENS_15PreserveStorageEEEEEE4sizeEv"
 "_ZNK4Rcpp5sugar21Plus_Vector_PrimitiveILi14ELb1ENS0_17UnaryMinus_VectorILi14ELb1ENS_6VectorILi14ENS_15PreserveStorageEEEEEEixEx"
 "_ZNK4Rcpp6MatrixILi13ENS_15PreserveStorageEE4ncolEv"
 "_ZNK4Rcpp6MatrixILi13ENS_15PreserveStorageEE4nrowEv"
 "_ZNK4Rcpp6MatrixILi13ENS_15PreserveStorageEE5beginEv"
 "_ZNK4Rcpp6MatrixILi13ENS_15PreserveStorageEE6offsetEii"
 "_ZNK4Rcpp6MatrixILi14ENS_15PreserveStorageEE4ncolEv"
 "_ZNK4Rcpp6MatrixILi14ENS_15PreserveStorageEE4nrowEv"
 "_ZNK4Rcpp6MatrixILi14ENS_15PreserveStorageEE5beginEv"
 "_ZNK4Rcpp6MatrixILi14ENS_15PreserveStorageEE6offsetEii"
 "_ZNK4Rcpp6ShieldIP7SEXPRECEcvS2_Ev"
 "_ZNK4Rcpp6traits11proxy_cacheILi16ENS_15PreserveStorageEE3getEv"
 "_ZNK4Rcpp6traits11proxy_cacheILi19ENS_15PreserveStorageEE3getEv"
 "_ZNK4Rcpp6traits14r_vector_cacheILi13ENS_15PreserveStorageEE3getEv"
 "_ZNK4Rcpp6traits14r_vector_cacheILi13ENS_15PreserveStorageEE9get_constEv"
 "_ZNK4Rcpp6traits14r_vector_cacheILi14ENS_15PreserveStorageEE3getEv"
 "_ZNK4Rcpp6traits14r_vector_cacheILi14ENS_15PreserveStorageEE3refEx"
 "_ZNK4Rcpp6traits14r_vector_cacheILi14ENS_15PreserveStorageEE9get_constEv"
 "_ZNK4Rcpp6VectorILi10ENS_15PreserveStorageEE4sizeEv"
 "_ZNK4Rcpp6VectorILi10ENS_15PreserveStorageEE6offsetERKx"
 "_ZNK4Rcpp6VectorILi13ENS_15PreserveStorageEE4dimsEv"
 "_ZNK4Rcpp6VectorILi13ENS_15PreserveStorageEE4sizeEv"
 "_ZNK4Rcpp6VectorILi13ENS_15PreserveStorageEE5beginEv"
 "_ZNK4Rcpp6VectorILi13ENS_15PreserveStorageEE6lengthEv"
 "_ZNK4Rcpp6VectorILi13ENS_15PreserveStorageEE6offsetERKx"
 "_ZNK4Rcpp6VectorILi14ENS_15PreserveStorageEE4dimsEv"
 "_ZNK4Rcpp6VectorILi14ENS_15PreserveStorageEE4sizeEv"
 "_ZNK4Rcpp6VectorILi14ENS_15PreserveStorageEE5beginEv"
 "_ZNK4Rcpp6VectorILi14ENS_15PreserveStorageEE6lengthEv"
 "_ZNK4Rcpp6VectorILi14ENS_15PreserveStorageEE6offsetERKx"
 "_ZNK4Rcpp6VectorILi14ENS_15PreserveStorageEEixEx"
 "_ZNK4Rcpp6VectorILi16ENS_15PreserveStorageEE4sizeEv"
 "_ZNK4Rcpp6VectorILi16ENS_15PreserveStorageEE6offsetERKx"
 "_ZNK4Rcpp6VectorILi19ENS_15PreserveStorageEE4sizeEv"
 "_ZNK4Rcpp8internal12string_proxyILi16ENS_15PreserveStorageEE3getEv"
 "_ZNK4Rcpp8internal12string_proxyILi16ENS_15PreserveStorageEE5beginEv"
 "_ZNK4Rcpp8internal12string_proxyILi16ENS_15PreserveStorageEEcvPcEv"
 "_ZNK4Rcpp8internal12string_proxyILi16ENS_15PreserveStorageEEeqEPKc"
 "_ZNK4Rcpp8internal13generic_proxyILi19ENS_15PreserveStorageEE3getEv"
 "_ZNK4Rcpp8internal13generic_proxyILi19ENS_15PreserveStorageEEcvP7SEXPRECEv"
 "_ZNK4Rcpp8internal14Proxy_IteratorINS0_12string_proxyILi16ENS_15PreserveStorageEEEEgtERKS5_"
 "_ZNK4Rcpp8internal14Proxy_IteratorINS0_12string_proxyILi16ENS_15PreserveStorageEEEEltERKS5_"
 "_ZNK4Rcpp8internal14Proxy_IteratorINS0_12string_proxyILi16ENS_15PreserveStorageEEEEmiERKS5_"
 "_ZNK4Rcpp8internal14Proxy_IteratorINS0_12string_proxyILi16ENS_15PreserveStorageEEEEplEi"
 "_ZNK4Rcpp8internal14Proxy_IteratorINS0_13generic_proxyILi19ENS_15PreserveStorageEEEEgtERKS5_"
 "_ZNK4Rcpp8internal14Proxy_IteratorINS0_13generic_proxyILi19ENS_15PreserveStorageEEEEltERKS5_"
 "_ZNK4Rcpp8internal14Proxy_IteratorINS0_13generic_proxyILi19ENS_15PreserveStorageEEEEmiERKS5_"
 "_ZNK4Rcpp8internal14Proxy_IteratorINS0_13generic_proxyILi19ENS_15PreserveStorageEEEEplEi"
 "_ZNK4Rcpp8internal16NamedPlaceHolderixERKSs"
 "_ZNK4Rcpp9Dimension4prodEv"
 "_ZNK4Rcpp9Dimension4sizeEv"
 "_ZNK4Rcpp9DimensioncvP7SEXPRECEv"
 "_ZNK4Rcpp9exception12include_callEv"
 "_ZNK4Rcpp9exception4whatEv"
 "_ZNK9__gnu_cxx13new_allocatorIiE8max_sizeEv"
 "_ZNK9__gnu_cxx13new_allocatorIN2cv3MatEE8max_sizeEv"
 "_ZNK9__gnu_cxx13new_allocatorIN2cv6Point_IiEEE8max_sizeEv"
 "_ZNK9__gnu_cxx13new_allocatorIPN4Rcpp12SignedMethodI11VideoWriterEEE8max_sizeEv"
 "_ZNK9__gnu_cxx13new_allocatorIPN4Rcpp12SignedMethodI5ImageEEE8max_sizeEv"
 "_ZNK9__gnu_cxx13new_allocatorIPN4Rcpp12SignedMethodI5VideoEEE8max_sizeEv"
 "_ZNK9__gnu_cxx13new_allocatorIPN4Rcpp12SignedMethodI6StreamEEE8max_sizeEv"
 "_ZNK9__gnu_cxx13new_allocatorIPN4Rcpp17SignedConstructorI11VideoWriterEEE8max_sizeEv"
 "_ZNK9__gnu_cxx13new_allocatorIPN4Rcpp17SignedConstructorI5ImageEEE8max_sizeEv"
 "_ZNK9__gnu_cxx13new_allocatorIPN4Rcpp17SignedConstructorI5VideoEEE8max_sizeEv"
 "_ZNK9__gnu_cxx13new_allocatorIPN4Rcpp17SignedConstructorI6StreamEEE8max_sizeEv"
 "_ZNK9__gnu_cxx13new_allocatorISt13_Rb_tree_nodeISt4pairIKSsPN4Rcpp10class_BaseEEEE8max_sizeEv"
 "_ZNK9__gnu_cxx13new_allocatorISt13_Rb_tree_nodeISt4pairIKSsPN4Rcpp11CppFunctionEEEE8max_sizeEv"
 "_ZNK9__gnu_cxx13new_allocatorISt13_Rb_tree_nodeISt4pairIKSsPSt6vectorIPN4Rcpp12SignedMethodI11VideoWriterEESaIS9_EEEEE8max_sizeEv"
 "_ZNK9__gnu_cxx13new_allocatorISt13_Rb_tree_nodeISt4pairIKSsPSt6vectorIPN4Rcpp12SignedMethodI5ImageEESaIS9_EEEEE8max_sizeEv"
 "_ZNK9__gnu_cxx13new_allocatorISt13_Rb_tree_nodeISt4pairIKSsPSt6vectorIPN4Rcpp12SignedMethodI5VideoEESaIS9_EEEEE8max_sizeEv"
 "_ZNK9__gnu_cxx13new_allocatorISt13_Rb_tree_nodeISt4pairIKSsPSt6vectorIPN4Rcpp12SignedMethodI6StreamEESaIS9_EEEEE8max_sizeEv"
 "_ZNK9__gnu_cxx13new_allocatorISt6vectorIN2cv6Point_IiEESaIS4_EEE8max_sizeEv"
 "_ZNK9__gnu_cxx16__aligned_bufferISt4pairIKSsPN4Rcpp10class_BaseEEE6_M_ptrEv"
 "_ZNK9__gnu_cxx16__aligned_bufferISt4pairIKSsPN4Rcpp10class_BaseEEE7_M_addrEv"
 "_ZNK9__gnu_cxx16__aligned_bufferISt4pairIKSsPN4Rcpp11CppFunctionEEE6_M_ptrEv"
 "_ZNK9__gnu_cxx16__aligned_bufferISt4pairIKSsPN4Rcpp11CppFunctionEEE7_M_addrEv"
 "_ZNK9__gnu_cxx16__aligned_bufferISt4pairIKSsPN4Rcpp11CppPropertyI11VideoWriterEEEE6_M_ptrEv"
 "_ZNK9__gnu_cxx16__aligned_bufferISt4pairIKSsPN4Rcpp11CppPropertyI11VideoWriterEEEE7_M_addrEv"
 "_ZNK9__gnu_cxx16__aligned_bufferISt4pairIKSsPN4Rcpp11CppPropertyI5ImageEEEE6_M_ptrEv"
 "_ZNK9__gnu_cxx16__aligned_bufferISt4pairIKSsPN4Rcpp11CppPropertyI5ImageEEEE7_M_addrEv"
 "_ZNK9__gnu_cxx16__aligned_bufferISt4pairIKSsPN4Rcpp11CppPropertyI5VideoEEEE6_M_ptrEv"
 "_ZNK9__gnu_cxx16__aligned_bufferISt4pairIKSsPN4Rcpp11CppPropertyI5VideoEEEE7_M_addrEv"
 "_ZNK9__gnu_cxx16__aligned_bufferISt4pairIKSsPN4Rcpp11CppPropertyI6StreamEEEE6_M_ptrEv"
 "_ZNK9__gnu_cxx16__aligned_bufferISt4pairIKSsPN4Rcpp11CppPropertyI6StreamEEEE7_M_addrEv"
 "_ZNK9__gnu_cxx16__aligned_bufferISt4pairIKSsPSt6vectorIPN4Rcpp12SignedMethodI11VideoWriterEESaIS8_EEEE6_M_ptrEv"
 "_ZNK9__gnu_cxx16__aligned_bufferISt4pairIKSsPSt6vectorIPN4Rcpp12SignedMethodI11VideoWriterEESaIS8_EEEE7_M_addrEv"
 "_ZNK9__gnu_cxx16__aligned_bufferISt4pairIKSsPSt6vectorIPN4Rcpp12SignedMethodI5ImageEESaIS8_EEEE6_M_ptrEv"
 "_ZNK9__gnu_cxx16__aligned_bufferISt4pairIKSsPSt6vectorIPN4Rcpp12SignedMethodI5ImageEESaIS8_EEEE7_M_addrEv"
 "_ZNK9__gnu_cxx16__aligned_bufferISt4pairIKSsPSt6vectorIPN4Rcpp12SignedMethodI5VideoEESaIS8_EEEE6_M_ptrEv"
 "_ZNK9__gnu_cxx16__aligned_bufferISt4pairIKSsPSt6vectorIPN4Rcpp12SignedMethodI5VideoEESaIS8_EEEE7_M_addrEv"
 "_ZNK9__gnu_cxx16__aligned_bufferISt4pairIKSsPSt6vectorIPN4Rcpp12SignedMethodI6StreamEESaIS8_EEEE6_M_ptrEv"
 "_ZNK9__gnu_cxx16__aligned_bufferISt4pairIKSsPSt6vectorIPN4Rcpp12SignedMethodI6StreamEESaIS8_EEEE7_M_addrEv"
 "_ZNK9__gnu_cxx17__normal_iteratorIPcSsE4baseEv"
 "_ZNK9__gnu_cxx17__normal_iteratorIPcSsEdeEv"
 "_ZNK9__gnu_cxx17__normal_iteratorIPKiSt6vectorIiSaIiEEE4baseEv"
 "_ZNK9__gnu_cxx17__normal_iteratorIPKiSt6vectorIiSaIiEEEdeEv"
 "_ZNK9__gnu_cxx17__normal_iteratorIPKiSt6vectorIiSaIiEEEixEx"
 "_ZNK9__gnu_cxx17__normal_iteratorIPKN2cv6Point_IiEESt6vectorIS3_SaIS3_EEE4baseEv"
 "_ZNK9__gnu_cxx17__normal_iteratorIPKN2cv6Point_IiEESt6vectorIS3_SaIS3_EEEdeEv"
 "_ZNK9__gnu_cxx17__normal_iteratorIPPN4Rcpp12SignedMethodI11VideoWriterEESt6vectorIS5_SaIS5_EEEdeEv"
 "_ZNK9__gnu_cxx17__normal_iteratorIPPN4Rcpp12SignedMethodI5ImageEESt6vectorIS5_SaIS5_EEEdeEv"
 "_ZNK9__gnu_cxx17__normal_iteratorIPPN4Rcpp12SignedMethodI5VideoEESt6vectorIS5_SaIS5_EEEdeEv"
 "_ZNK9__gnu_cxx17__normal_iteratorIPPN4Rcpp12SignedMethodI6StreamEESt6vectorIS5_SaIS5_EEEdeEv"
 "_ZNK9__gnu_cxx17__normal_iteratorIPPN4Rcpp17SignedConstructorI11VideoWriterEESt6vectorIS5_SaIS5_EEEdeEv"
 "_ZNK9__gnu_cxx17__normal_iteratorIPPN4Rcpp17SignedConstructorI5ImageEESt6vectorIS5_SaIS5_EEEdeEv"
 "_ZNK9__gnu_cxx17__normal_iteratorIPPN4Rcpp17SignedConstructorI5VideoEESt6vectorIS5_SaIS5_EEEdeEv"
 "_ZNK9__gnu_cxx17__normal_iteratorIPPN4Rcpp17SignedConstructorI6StreamEESt6vectorIS5_SaIS5_EEEdeEv"
 "_ZNKSt10_Select1stISt4pairIKSsPN4Rcpp10class_BaseEEEclERKS5_"
 "_ZNKSt10_Select1stISt4pairIKSsPN4Rcpp10class_BaseEEEclERS5_"
 "_ZNKSt10_Select1stISt4pairIKSsPN4Rcpp11CppFunctionEEEclERKS5_"
 "_ZNKSt10_Select1stISt4pairIKSsPN4Rcpp11CppFunctionEEEclERS5_"
 "_ZNKSt10_Select1stISt4pairIKSsPN4Rcpp11CppPropertyI11VideoWriterEEEEclERKS7_"
 "_ZNKSt10_Select1stISt4pairIKSsPN4Rcpp11CppPropertyI5ImageEEEEclERKS7_"
 "_ZNKSt10_Select1stISt4pairIKSsPN4Rcpp11CppPropertyI5VideoEEEEclERKS7_"
 "_ZNKSt10_Select1stISt4pairIKSsPN4Rcpp11CppPropertyI6StreamEEEEclERKS7_"
 "_ZNKSt10_Select1stISt4pairIKSsPSt6vectorIPN4Rcpp12SignedMethodI11VideoWriterEESaIS7_EEEEclERKSB_"
 "_ZNKSt10_Select1stISt4pairIKSsPSt6vectorIPN4Rcpp12SignedMethodI11VideoWriterEESaIS7_EEEEclIS0_ISsSA_EEERNT_10first_typeERSF_"
 "_ZNKSt10_Select1stISt4pairIKSsPSt6vectorIPN4Rcpp12SignedMethodI5ImageEESaIS7_EEEEclERKSB_"
 "_ZNKSt10_Select1stISt4pairIKSsPSt6vectorIPN4Rcpp12SignedMethodI5ImageEESaIS7_EEEEclIS0_ISsSA_EEERNT_10first_typeERSF_"
 "_ZNKSt10_Select1stISt4pairIKSsPSt6vectorIPN4Rcpp12SignedMethodI5VideoEESaIS7_EEEEclERKSB_"
 "_ZNKSt10_Select1stISt4pairIKSsPSt6vectorIPN4Rcpp12SignedMethodI5VideoEESaIS7_EEEEclIS0_ISsSA_EEERNT_10first_typeERSF_"
 "_ZNKSt10_Select1stISt4pairIKSsPSt6vectorIPN4Rcpp12SignedMethodI6StreamEESaIS7_EEEEclERKSB_"
 "_ZNKSt10_Select1stISt4pairIKSsPSt6vectorIPN4Rcpp12SignedMethodI6StreamEESaIS7_EEEEclIS0_ISsSA_EEERNT_10first_typeERSF_"
 "_ZNKSt10multipliesIxEclERKxS2_"
 "_ZNKSt12__shared_ptrIN2cv18SimpleBlobDetectorELN9__gnu_cxx12_Lock_policyE2EE3getEv"
 "_ZNKSt12_Vector_baseIN2cv6Point_IiEESaIS2_EE19_M_get_Tp_allocatorEv"
 "_ZNKSt12_Vector_baseIPN4Rcpp12SignedMethodI11VideoWriterEESaIS4_EE19_M_get_Tp_allocatorEv"
 "_ZNKSt12_Vector_baseIPN4Rcpp12SignedMethodI5ImageEESaIS4_EE19_M_get_Tp_allocatorEv"
 "_ZNKSt12_Vector_baseIPN4Rcpp12SignedMethodI5VideoEESaIS4_EE19_M_get_Tp_allocatorEv"
 "_ZNKSt12_Vector_baseIPN4Rcpp12SignedMethodI6StreamEESaIS4_EE19_M_get_Tp_allocatorEv"
 "_ZNKSt12_Vector_baseIPN4Rcpp17SignedConstructorI11VideoWriterEESaIS4_EE19_M_get_Tp_allocatorEv"
 "_ZNKSt12_Vector_baseIPN4Rcpp17SignedConstructorI5ImageEESaIS4_EE19_M_get_Tp_allocatorEv"
 "_ZNKSt12_Vector_baseIPN4Rcpp17SignedConstructorI5VideoEESaIS4_EE19_M_get_Tp_allocatorEv"
 "_ZNKSt12_Vector_baseIPN4Rcpp17SignedConstructorI6StreamEESaIS4_EE19_M_get_Tp_allocatorEv"
 "_ZNKSt12_Vector_baseISt6vectorIN2cv6Point_IiEESaIS3_EESaIS5_EE19_M_get_Tp_allocatorEv"
 "_ZNKSt13_Rb_tree_nodeISt4pairIKSsPN4Rcpp10class_BaseEEE9_M_valptrEv"
 "_ZNKSt13_Rb_tree_nodeISt4pairIKSsPN4Rcpp11CppFunctionEEE9_M_valptrEv"
 "_ZNKSt13_Rb_tree_nodeISt4pairIKSsPN4Rcpp11CppPropertyI11VideoWriterEEEE9_M_valptrEv"
 "_ZNKSt13_Rb_tree_nodeISt4pairIKSsPN4Rcpp11CppPropertyI5ImageEEEE9_M_valptrEv"
 "_ZNKSt13_Rb_tree_nodeISt4pairIKSsPN4Rcpp11CppPropertyI5VideoEEEE9_M_valptrEv"
 "_ZNKSt13_Rb_tree_nodeISt4pairIKSsPN4Rcpp11CppPropertyI6StreamEEEE9_M_valptrEv"
 "_ZNKSt13_Rb_tree_nodeISt4pairIKSsPSt6vectorIPN4Rcpp12SignedMethodI11VideoWriterEESaIS7_EEEE9_M_valptrEv"
 "_ZNKSt13_Rb_tree_nodeISt4pairIKSsPSt6vectorIPN4Rcpp12SignedMethodI5ImageEESaIS7_EEEE9_M_valptrEv"
 "_ZNKSt13_Rb_tree_nodeISt4pairIKSsPSt6vectorIPN4Rcpp12SignedMethodI5VideoEESaIS7_EEEE9_M_valptrEv"
 "_ZNKSt13_Rb_tree_nodeISt4pairIKSsPSt6vectorIPN4Rcpp12SignedMethodI6StreamEESaIS7_EEEE9_M_valptrEv"
 "_ZNKSt13move_iteratorIPN2cv6Point_IiEEE4baseEv"
 "_ZNKSt13move_iteratorIPN2cv6Point_IiEEEdeEv"
 "_ZNKSt13move_iteratorIPPN4Rcpp12SignedMethodI11VideoWriterEEE4baseEv"
 "_ZNKSt13move_iteratorIPPN4Rcpp12SignedMethodI5ImageEEE4baseEv"
 "_ZNKSt13move_iteratorIPPN4Rcpp12SignedMethodI5VideoEEE4baseEv"
 "_ZNKSt13move_iteratorIPPN4Rcpp12SignedMethodI6StreamEEE4baseEv"
 "_ZNKSt13move_iteratorIPPN4Rcpp17SignedConstructorI11VideoWriterEEE4baseEv"
 "_ZNKSt13move_iteratorIPPN4Rcpp17SignedConstructorI5ImageEEE4baseEv"
 "_ZNKSt13move_iteratorIPPN4Rcpp17SignedConstructorI5VideoEEE4baseEv"
 "_ZNKSt13move_iteratorIPPN4Rcpp17SignedConstructorI6StreamEEE4baseEv"
 "_ZNKSt13move_iteratorIPSt6vectorIN2cv6Point_IiEESaIS3_EEE4baseEv"
 "_ZNKSt13move_iteratorIPSt6vectorIN2cv6Point_IiEESaIS3_EEEdeEv"
 "_ZNKSt17_Rb_tree_iteratorISt4pairIKSsPN4Rcpp10class_BaseEEEeqERKS6_"
 "_ZNKSt17_Rb_tree_iteratorISt4pairIKSsPN4Rcpp10class_BaseEEEneERKS6_"
 "_ZNKSt17_Rb_tree_iteratorISt4pairIKSsPN4Rcpp10class_BaseEEEptEv"
 "_ZNKSt17_Rb_tree_iteratorISt4pairIKSsPN4Rcpp11CppFunctionEEEeqERKS6_"
 "_ZNKSt17_Rb_tree_iteratorISt4pairIKSsPN4Rcpp11CppPropertyI11VideoWriterEEEEeqERKS8_"
 "_ZNKSt17_Rb_tree_iteratorISt4pairIKSsPN4Rcpp11CppPropertyI11VideoWriterEEEEneERKS8_"
 "_ZNKSt17_Rb_tree_iteratorISt4pairIKSsPN4Rcpp11CppPropertyI11VideoWriterEEEEptEv"
 "_ZNKSt17_Rb_tree_iteratorISt4pairIKSsPN4Rcpp11CppPropertyI5ImageEEEEeqERKS8_"
 "_ZNKSt17_Rb_tree_iteratorISt4pairIKSsPN4Rcpp11CppPropertyI5ImageEEEEneERKS8_"
 "_ZNKSt17_Rb_tree_iteratorISt4pairIKSsPN4Rcpp11CppPropertyI5ImageEEEEptEv"
 "_ZNKSt17_Rb_tree_iteratorISt4pairIKSsPN4Rcpp11CppPropertyI5VideoEEEEeqERKS8_"
 "_ZNKSt17_Rb_tree_iteratorISt4pairIKSsPN4Rcpp11CppPropertyI5VideoEEEEneERKS8_"
 "_ZNKSt17_Rb_tree_iteratorISt4pairIKSsPN4Rcpp11CppPropertyI5VideoEEEEptEv"
 "_ZNKSt17_Rb_tree_iteratorISt4pairIKSsPN4Rcpp11CppPropertyI6StreamEEEEeqERKS8_"
 "_ZNKSt17_Rb_tree_iteratorISt4pairIKSsPN4Rcpp11CppPropertyI6StreamEEEEneERKS8_"
 "_ZNKSt17_Rb_tree_iteratorISt4pairIKSsPN4Rcpp11CppPropertyI6StreamEEEEptEv"
 "_ZNKSt17_Rb_tree_iteratorISt4pairIKSsPSt6vectorIPN4Rcpp12SignedMethodI11VideoWriterEESaIS7_EEEEeqERKSC_"
 "_ZNKSt17_Rb_tree_iteratorISt4pairIKSsPSt6vectorIPN4Rcpp12SignedMethodI11VideoWriterEESaIS7_EEEEneERKSC_"
 "_ZNKSt17_Rb_tree_iteratorISt4pairIKSsPSt6vectorIPN4Rcpp12SignedMethodI11VideoWriterEESaIS7_EEEEptEv"
 "_ZNKSt17_Rb_tree_iteratorISt4pairIKSsPSt6vectorIPN4Rcpp12SignedMethodI5ImageEESaIS7_EEEEeqERKSC_"
 "_ZNKSt17_Rb_tree_iteratorISt4pairIKSsPSt6vectorIPN4Rcpp12SignedMethodI5ImageEESaIS7_EEEEneERKSC_"
 "_ZNKSt17_Rb_tree_iteratorISt4pairIKSsPSt6vectorIPN4Rcpp12SignedMethodI5ImageEESaIS7_EEEEptEv"
 "_ZNKSt17_Rb_tree_iteratorISt4pairIKSsPSt6vectorIPN4Rcpp12SignedMethodI5VideoEESaIS7_EEEEeqERKSC_"
 "_ZNKSt17_Rb_tree_iteratorISt4pairIKSsPSt6vectorIPN4Rcpp12SignedMethodI5VideoEESaIS7_EEEEneERKSC_"
 "_ZNKSt17_Rb_tree_iteratorISt4pairIKSsPSt6vectorIPN4Rcpp12SignedMethodI5VideoEESaIS7_EEEEptEv"
 "_ZNKSt17_Rb_tree_iteratorISt4pairIKSsPSt6vectorIPN4Rcpp12SignedMethodI6StreamEESaIS7_EEEEeqERKSC_"
 "_ZNKSt17_Rb_tree_iteratorISt4pairIKSsPSt6vectorIPN4Rcpp12SignedMethodI6StreamEESaIS7_EEEEneERKSC_"
 "_ZNKSt17_Rb_tree_iteratorISt4pairIKSsPSt6vectorIPN4Rcpp12SignedMethodI6StreamEESaIS7_EEEEptEv"
 "_ZNKSt3mapISsPN4Rcpp11CppPropertyI11VideoWriterEESt4lessISsESaISt4pairIKSsS4_EEE4sizeEv"
 "_ZNKSt3mapISsPN4Rcpp11CppPropertyI5ImageEESt4lessISsESaISt4pairIKSsS4_EEE4sizeEv"
 "_ZNKSt3mapISsPN4Rcpp11CppPropertyI5VideoEESt4lessISsESaISt4pairIKSsS4_EEE4sizeEv"
 "_ZNKSt3mapISsPN4Rcpp11CppPropertyI6StreamEESt4lessISsESaISt4pairIKSsS4_EEE4sizeEv"
 "_ZNKSt3mapISsPSt6vectorIPN4Rcpp12SignedMethodI11VideoWriterEESaIS5_EESt4lessISsESaISt4pairIKSsS8_EEE4sizeEv"
 "_ZNKSt3mapISsPSt6vectorIPN4Rcpp12SignedMethodI5ImageEESaIS5_EESt4lessISsESaISt4pairIKSsS8_EEE4sizeEv"
 "_ZNKSt3mapISsPSt6vectorIPN4Rcpp12SignedMethodI5VideoEESaIS5_EESt4lessISsESaISt4pairIKSsS8_EEE4sizeEv"
 "_ZNKSt3mapISsPSt6vectorIPN4Rcpp12SignedMethodI6StreamEESaIS5_EESt4lessISsESaISt4pairIKSsS8_EEE4sizeEv"
 "_ZNKSt4lessISsEclERKSsS2_"
 "_ZNKSt6vectorIiSaIiEE3endEv"
 "_ZNKSt6vectorIiSaIiEE4sizeEv"
 "_ZNKSt6vectorIiSaIiEE5beginEv"
 "_ZNKSt6vectorIN2cv3MatESaIS1_EE4sizeEv"
 "_ZNKSt6vectorIN2cv5Rect_IiEESaIS2_EE4sizeEv"
 "_ZNKSt6vectorIN2cv6Point_IiEESaIS2_EE12_M_check_lenEyPKc"
 "_ZNKSt6vectorIN2cv6Point_IiEESaIS2_EE3endEv"
 "_ZNKSt6vectorIN2cv6Point_IiEESaIS2_EE4sizeEv"
 "_ZNKSt6vectorIN2cv6Point_IiEESaIS2_EE5beginEv"
 "_ZNKSt6vectorIN2cv6Point_IiEESaIS2_EE8max_sizeEv"
 "_ZNKSt6vectorIN2cv8KeyPointESaIS1_EE4sizeEv"
 "_ZNKSt6vectorIPN4Rcpp12SignedMethodI11VideoWriterEESaIS4_EE12_M_check_lenEyPKc"
 "_ZNKSt6vectorIPN4Rcpp12SignedMethodI11VideoWriterEESaIS4_EE14_M_range_checkEy"
 "_ZNKSt6vectorIPN4Rcpp12SignedMethodI11VideoWriterEESaIS4_EE4sizeEv"
 "_ZNKSt6vectorIPN4Rcpp12SignedMethodI11VideoWriterEESaIS4_EE8max_sizeEv"
 "_ZNKSt6vectorIPN4Rcpp12SignedMethodI5ImageEESaIS4_EE12_M_check_lenEyPKc"
 "_ZNKSt6vectorIPN4Rcpp12SignedMethodI5ImageEESaIS4_EE14_M_range_checkEy"
 "_ZNKSt6vectorIPN4Rcpp12SignedMethodI5ImageEESaIS4_EE4sizeEv"
 "_ZNKSt6vectorIPN4Rcpp12SignedMethodI5ImageEESaIS4_EE8max_sizeEv"
 "_ZNKSt6vectorIPN4Rcpp12SignedMethodI5VideoEESaIS4_EE12_M_check_lenEyPKc"
 "_ZNKSt6vectorIPN4Rcpp12SignedMethodI5VideoEESaIS4_EE14_M_range_checkEy"
 "_ZNKSt6vectorIPN4Rcpp12SignedMethodI5VideoEESaIS4_EE4sizeEv"
 "_ZNKSt6vectorIPN4Rcpp12SignedMethodI5VideoEESaIS4_EE8max_sizeEv"
 "_ZNKSt6vectorIPN4Rcpp12SignedMethodI6StreamEESaIS4_EE12_M_check_lenEyPKc"
 "_ZNKSt6vectorIPN4Rcpp12SignedMethodI6StreamEESaIS4_EE14_M_range_checkEy"
 "_ZNKSt6vectorIPN4Rcpp12SignedMethodI6StreamEESaIS4_EE4sizeEv"
 "_ZNKSt6vectorIPN4Rcpp12SignedMethodI6StreamEESaIS4_EE8max_sizeEv"
 "_ZNKSt6vectorIPN4Rcpp13SignedFactoryI11VideoWriterEESaIS4_EE4sizeEv"
 "_ZNKSt6vectorIPN4Rcpp13SignedFactoryI5ImageEESaIS4_EE4sizeEv"
 "_ZNKSt6vectorIPN4Rcpp13SignedFactoryI5VideoEESaIS4_EE4sizeEv"
 "_ZNKSt6vectorIPN4Rcpp13SignedFactoryI6StreamEESaIS4_EE4sizeEv"
 "_ZNKSt6vectorIPN4Rcpp17SignedConstructorI11VideoWriterEESaIS4_EE12_M_check_lenEyPKc"
 "_ZNKSt6vectorIPN4Rcpp17SignedConstructorI11VideoWriterEESaIS4_EE4sizeEv"
 "_ZNKSt6vectorIPN4Rcpp17SignedConstructorI11VideoWriterEESaIS4_EE8max_sizeEv"
 "_ZNKSt6vectorIPN4Rcpp17SignedConstructorI5ImageEESaIS4_EE12_M_check_lenEyPKc"
 "_ZNKSt6vectorIPN4Rcpp17SignedConstructorI5ImageEESaIS4_EE4sizeEv"
 "_ZNKSt6vectorIPN4Rcpp17SignedConstructorI5ImageEESaIS4_EE8max_sizeEv"
 "_ZNKSt6vectorIPN4Rcpp17SignedConstructorI5VideoEESaIS4_EE12_M_check_lenEyPKc"
 "_ZNKSt6vectorIPN4Rcpp17SignedConstructorI5VideoEESaIS4_EE4sizeEv"
 "_ZNKSt6vectorIPN4Rcpp17SignedConstructorI5VideoEESaIS4_EE8max_sizeEv"
 "_ZNKSt6vectorIPN4Rcpp17SignedConstructorI6StreamEESaIS4_EE12_M_check_lenEyPKc"
 "_ZNKSt6vectorIPN4Rcpp17SignedConstructorI6StreamEESaIS4_EE4sizeEv"
 "_ZNKSt6vectorIPN4Rcpp17SignedConstructorI6StreamEESaIS4_EE8max_sizeEv"
 "_ZNKSt6vectorIS_IN2cv6Point_IiEESaIS2_EESaIS4_EE12_M_check_lenEyPKc"
 "_ZNKSt6vectorIS_IN2cv6Point_IiEESaIS2_EESaIS4_EE4sizeEv"
 "_ZNKSt6vectorIS_IN2cv6Point_IiEESaIS2_EESaIS4_EE8max_sizeEv"
 "_ZNKSt8_Rb_treeISsSt4pairIKSsPN4Rcpp11CppPropertyI11VideoWriterEEESt10_Select1stIS7_ESt4lessISsESaIS7_EE4sizeEv"
 "_ZNKSt8_Rb_treeISsSt4pairIKSsPN4Rcpp11CppPropertyI5ImageEEESt10_Select1stIS7_ESt4lessISsESaIS7_EE4sizeEv"
 "_ZNKSt8_Rb_treeISsSt4pairIKSsPN4Rcpp11CppPropertyI5VideoEEESt10_Select1stIS7_ESt4lessISsESaIS7_EE4sizeEv"
 "_ZNKSt8_Rb_treeISsSt4pairIKSsPN4Rcpp11CppPropertyI6StreamEEESt10_Select1stIS7_ESt4lessISsESaIS7_EE4sizeEv"
 "_ZNKSt8_Rb_treeISsSt4pairIKSsPSt6vectorIPN4Rcpp12SignedMethodI11VideoWriterEESaIS7_EEESt10_Select1stISB_ESt4lessISsESaISB_EE4sizeEv"
 "_ZNKSt8_Rb_treeISsSt4pairIKSsPSt6vectorIPN4Rcpp12SignedMethodI5ImageEESaIS7_EEESt10_Select1stISB_ESt4lessISsESaISB_EE4sizeEv"
 "_ZNKSt8_Rb_treeISsSt4pairIKSsPSt6vectorIPN4Rcpp12SignedMethodI5VideoEESaIS7_EEESt10_Select1stISB_ESt4lessISsESaISB_EE4sizeEv"
 "_ZNKSt8_Rb_treeISsSt4pairIKSsPSt6vectorIPN4Rcpp12SignedMethodI6StreamEESaIS7_EEESt10_Select1stISB_ESt4lessISsESaISB_EE4sizeEv"
 "_ZNKSt8ios_base5flagsEv"
 "_ZNKSt8ios_base5widthEv"
 "_ZNKSt8ios_base9precisionEv"
 "_ZNKSt9type_info4nameEv"
 "_ZNSaIiEC1Ev"
 "_ZNSaIiEC2ERKS_"
 "_ZNSaIiEC2Ev"
 "_ZNSaIiED1Ev"
 "_ZNSaIiED2Ev"
 "_ZNSaIN2cv3MatEEC1Ev"
 "_ZNSaIN2cv3MatEEC2ERKS1_"
 "_ZNSaIN2cv3MatEEC2Ev"
 "_ZNSaIN2cv3MatEED1Ev"
 "_ZNSaIN2cv3MatEED2Ev"
 "_ZNSaIN2cv3VecIiLi4EEEEC2Ev"
 "_ZNSaIN2cv3VecIiLi4EEEED2Ev"
 "_ZNSaIN2cv5Rect_IiEEEC2Ev"
 "_ZNSaIN2cv5Rect_IiEEED2Ev"
 "_ZNSaIN2cv6Point_IiEEEC1ERKS2_"
 "_ZNSaIN2cv6Point_IiEEEC2ERKS2_"
 "_ZNSaIN2cv6Point_IiEEEC2Ev"
 "_ZNSaIN2cv6Point_IiEEED1Ev"
 "_ZNSaIN2cv6Point_IiEEED2Ev"
 "_ZNSaIN2cv8KeyPointEEC2Ev"
 "_ZNSaIN2cv8KeyPointEED2Ev"
 "_ZNSaIPN4Rcpp12SignedMethodI11VideoWriterEEEC2Ev"
 "_ZNSaIPN4Rcpp12SignedMethodI11VideoWriterEEED2Ev"
 "_ZNSaIPN4Rcpp12SignedMethodI5ImageEEEC2Ev"
 "_ZNSaIPN4Rcpp12SignedMethodI5ImageEEED2Ev"
 "_ZNSaIPN4Rcpp12SignedMethodI5VideoEEEC2Ev"
 "_ZNSaIPN4Rcpp12SignedMethodI5VideoEEED2Ev"
 "_ZNSaIPN4Rcpp12SignedMethodI6StreamEEEC2Ev"
 "_ZNSaIPN4Rcpp12SignedMethodI6StreamEEED2Ev"
 "_ZNSaIPN4Rcpp13SignedFactoryI11VideoWriterEEEC2Ev"
 "_ZNSaIPN4Rcpp13SignedFactoryI11VideoWriterEEED2Ev"
 "_ZNSaIPN4Rcpp13SignedFactoryI5ImageEEEC2Ev"
 "_ZNSaIPN4Rcpp13SignedFactoryI5ImageEEED2Ev"
 "_ZNSaIPN4Rcpp13SignedFactoryI5VideoEEEC2Ev"
 "_ZNSaIPN4Rcpp13SignedFactoryI5VideoEEED2Ev"
 "_ZNSaIPN4Rcpp13SignedFactoryI6StreamEEEC2Ev"
 "_ZNSaIPN4Rcpp13SignedFactoryI6StreamEEED2Ev"
 "_ZNSaIPN4Rcpp17SignedConstructorI11VideoWriterEEEC2Ev"
 "_ZNSaIPN4Rcpp17SignedConstructorI11VideoWriterEEED2Ev"
 "_ZNSaIPN4Rcpp17SignedConstructorI5ImageEEEC2Ev"
 "_ZNSaIPN4Rcpp17SignedConstructorI5ImageEEED2Ev"
 "_ZNSaIPN4Rcpp17SignedConstructorI5VideoEEEC2Ev"
 "_ZNSaIPN4Rcpp17SignedConstructorI5VideoEEED2Ev"
 "_ZNSaIPN4Rcpp17SignedConstructorI6StreamEEEC2Ev"
 "_ZNSaIPN4Rcpp17SignedConstructorI6StreamEEED2Ev"
 "_ZNSaISsEC2Ev"
 "_ZNSaISsED2Ev"
 "_ZNSaISt13_Rb_tree_nodeISt4pairIKSsiEEED2Ev"
 "_ZNSaISt13_Rb_tree_nodeISt4pairIKSsPN4Rcpp10class_BaseEEEEC2Ev"
 "_ZNSaISt13_Rb_tree_nodeISt4pairIKSsPN4Rcpp10class_BaseEEEED2Ev"
 "_ZNSaISt13_Rb_tree_nodeISt4pairIKSsPN4Rcpp11CppFunctionEEEEC2Ev"
 "_ZNSaISt13_Rb_tree_nodeISt4pairIKSsPN4Rcpp11CppFunctionEEEED2Ev"
 "_ZNSaISt13_Rb_tree_nodeISt4pairIKSsPN4Rcpp11CppPropertyI11VideoWriterEEEEEC2Ev"
 "_ZNSaISt13_Rb_tree_nodeISt4pairIKSsPN4Rcpp11CppPropertyI11VideoWriterEEEEED2Ev"
 "_ZNSaISt13_Rb_tree_nodeISt4pairIKSsPN4Rcpp11CppPropertyI5ImageEEEEEC2Ev"
 "_ZNSaISt13_Rb_tree_nodeISt4pairIKSsPN4Rcpp11CppPropertyI5ImageEEEEED2Ev"
 "_ZNSaISt13_Rb_tree_nodeISt4pairIKSsPN4Rcpp11CppPropertyI5VideoEEEEEC2Ev"
 "_ZNSaISt13_Rb_tree_nodeISt4pairIKSsPN4Rcpp11CppPropertyI5VideoEEEEED2Ev"
 "_ZNSaISt13_Rb_tree_nodeISt4pairIKSsPN4Rcpp11CppPropertyI6StreamEEEEEC2Ev"
 "_ZNSaISt13_Rb_tree_nodeISt4pairIKSsPN4Rcpp11CppPropertyI6StreamEEEEED2Ev"
 "_ZNSaISt13_Rb_tree_nodeISt4pairIKSsPSt6vectorIPN4Rcpp12SignedMethodI11VideoWriterEESaIS7_EEEEEC2Ev"
 "_ZNSaISt13_Rb_tree_nodeISt4pairIKSsPSt6vectorIPN4Rcpp12SignedMethodI11VideoWriterEESaIS7_EEEEED2Ev"
 "_ZNSaISt13_Rb_tree_nodeISt4pairIKSsPSt6vectorIPN4Rcpp12SignedMethodI5ImageEESaIS7_EEEEEC2Ev"
 "_ZNSaISt13_Rb_tree_nodeISt4pairIKSsPSt6vectorIPN4Rcpp12SignedMethodI5ImageEESaIS7_EEEEED2Ev"
 "_ZNSaISt13_Rb_tree_nodeISt4pairIKSsPSt6vectorIPN4Rcpp12SignedMethodI5VideoEESaIS7_EEEEEC2Ev"
 "_ZNSaISt13_Rb_tree_nodeISt4pairIKSsPSt6vectorIPN4Rcpp12SignedMethodI5VideoEESaIS7_EEEEED2Ev"
 "_ZNSaISt13_Rb_tree_nodeISt4pairIKSsPSt6vectorIPN4Rcpp12SignedMethodI6StreamEESaIS7_EEEEEC2Ev"
 "_ZNSaISt13_Rb_tree_nodeISt4pairIKSsPSt6vectorIPN4Rcpp12SignedMethodI6StreamEESaIS7_EEEEED2Ev"
 "_ZNSaISt13_Rb_tree_nodeISt4pairIKSsSt3mapISsiSt4lessISsESaIS0_IS1_iEEEEEEC2Ev"
 "_ZNSaISt13_Rb_tree_nodeISt4pairIKSsSt3mapISsiSt4lessISsESaIS0_IS1_iEEEEEED2Ev"
 "_ZNSaISt6vectorIN2cv6Point_IiEESaIS2_EEEC2Ev"
 "_ZNSaISt6vectorIN2cv6Point_IiEESaIS2_EEED2Ev"
 "_ZNSt10_Iter_baseIPdLb0EE7_S_baseES0_"
 "_ZNSt10_Iter_baseIPiLb0EE7_S_baseES0_"
 "_ZNSt10_Iter_baseIPPN4Rcpp12SignedMethodI11VideoWriterEELb0EE7_S_baseES5_"
 "_ZNSt10_Iter_baseIPPN4Rcpp12SignedMethodI5ImageEELb0EE7_S_baseES5_"
 "_ZNSt10_Iter_baseIPPN4Rcpp12SignedMethodI5VideoEELb0EE7_S_baseES5_"
 "_ZNSt10_Iter_baseIPPN4Rcpp12SignedMethodI6StreamEELb0EE7_S_baseES5_"
 "_ZNSt10_Iter_baseIPPN4Rcpp17SignedConstructorI11VideoWriterEELb0EE7_S_baseES5_"
 "_ZNSt10_Iter_baseIPPN4Rcpp17SignedConstructorI5ImageEELb0EE7_S_baseES5_"
 "_ZNSt10_Iter_baseIPPN4Rcpp17SignedConstructorI5VideoEELb0EE7_S_baseES5_"
 "_ZNSt10_Iter_baseIPPN4Rcpp17SignedConstructorI6StreamEELb0EE7_S_baseES5_"
 "_ZNSt10_Iter_baseISt13move_iteratorIPPN4Rcpp12SignedMethodI11VideoWriterEEELb1EE7_S_baseES7_"
 "_ZNSt10_Iter_baseISt13move_iteratorIPPN4Rcpp12SignedMethodI5ImageEEELb1EE7_S_baseES7_"
 "_ZNSt10_Iter_baseISt13move_iteratorIPPN4Rcpp12SignedMethodI5VideoEEELb1EE7_S_baseES7_"
 "_ZNSt10_Iter_baseISt13move_iteratorIPPN4Rcpp12SignedMethodI6StreamEEELb1EE7_S_baseES7_"
 "_ZNSt10_Iter_baseISt13move_iteratorIPPN4Rcpp17SignedConstructorI11VideoWriterEEELb1EE7_S_baseES7_"
 "_ZNSt10_Iter_baseISt13move_iteratorIPPN4Rcpp17SignedConstructorI5ImageEEELb1EE7_S_baseES7_"
 "_ZNSt10_Iter_baseISt13move_iteratorIPPN4Rcpp17SignedConstructorI5VideoEEELb1EE7_S_baseES7_"
 "_ZNSt10_Iter_baseISt13move_iteratorIPPN4Rcpp17SignedConstructorI6StreamEEELb1EE7_S_baseES7_"
 "_ZNSt10shared_ptrIN2cv18SimpleBlobDetectorEED2Ev"
 "_ZNSt11__copy_moveILb1ELb1ESt26random_access_iterator_tagE8__copy_mIPN4Rcpp12SignedMethodI11VideoWriterEEEEPT_PKS8_SB_S9_"
 "_ZNSt11__copy_moveILb1ELb1ESt26random_access_iterator_tagE8__copy_mIPN4Rcpp12SignedMethodI5ImageEEEEPT_PKS8_SB_S9_"
 "_ZNSt11__copy_moveILb1ELb1ESt26random_access_iterator_tagE8__copy_mIPN4Rcpp12SignedMethodI5VideoEEEEPT_PKS8_SB_S9_"
 "_ZNSt11__copy_moveILb1ELb1ESt26random_access_iterator_tagE8__copy_mIPN4Rcpp12SignedMethodI6StreamEEEEPT_PKS8_SB_S9_"
 "_ZNSt11__copy_moveILb1ELb1ESt26random_access_iterator_tagE8__copy_mIPN4Rcpp17SignedConstructorI11VideoWriterEEEEPT_PKS8_SB_S9_"
 "_ZNSt11__copy_moveILb1ELb1ESt26random_access_iterator_tagE8__copy_mIPN4Rcpp17SignedConstructorI5ImageEEEEPT_PKS8_SB_S9_"
 "_ZNSt11__copy_moveILb1ELb1ESt26random_access_iterator_tagE8__copy_mIPN4Rcpp17SignedConstructorI5VideoEEEEPT_PKS8_SB_S9_"
 "_ZNSt11__copy_moveILb1ELb1ESt26random_access_iterator_tagE8__copy_mIPN4Rcpp17SignedConstructorI6StreamEEEEPT_PKS8_SB_S9_"
 "_ZNSt11char_traitsIcE12to_char_typeERKi"
 "_ZNSt11char_traitsIcE3eofEv"
 "_ZNSt11char_traitsIcE7compareEPKcS2_y"
 "_ZNSt12__shared_ptrIN2cv18SimpleBlobDetectorELN9__gnu_cxx12_Lock_policyE2EED2Ev"
 "_ZNSt12_Destroy_auxILb0EE9__destroyIPN2cv3MatEEEvT_S5_"
 "_ZNSt12_Destroy_auxILb0EE9__destroyIPSsEEvT_S3_"
 "_ZNSt12_Destroy_auxILb0EE9__destroyIPSt6vectorIN2cv6Point_IiEESaIS5_EEEEvT_S9_"
 "_ZNSt12_Destroy_auxILb1EE9__destroyIPiEEvT_S3_"
 "_ZNSt12_Destroy_auxILb1EE9__destroyIPN2cv3VecIiLi4EEEEEvT_S6_"
 "_ZNSt12_Destroy_auxILb1EE9__destroyIPN2cv5Rect_IiEEEEvT_S6_"
 "_ZNSt12_Destroy_auxILb1EE9__destroyIPN2cv6Point_IiEEEEvT_S6_"
 "_ZNSt12_Destroy_auxILb1EE9__destroyIPN2cv8KeyPointEEEvT_S5_"
 "_ZNSt12_Destroy_auxILb1EE9__destroyIPPN4Rcpp12SignedMethodI11VideoWriterEEEEvT_S8_"
 "_ZNSt12_Destroy_auxILb1EE9__destroyIPPN4Rcpp12SignedMethodI5ImageEEEEvT_S8_"
 "_ZNSt12_Destroy_auxILb1EE9__destroyIPPN4Rcpp12SignedMethodI5VideoEEEEvT_S8_"
 "_ZNSt12_Destroy_auxILb1EE9__destroyIPPN4Rcpp12SignedMethodI6StreamEEEEvT_S8_"
 "_ZNSt12_Destroy_auxILb1EE9__destroyIPPN4Rcpp13SignedFactoryI11VideoWriterEEEEvT_S8_"
 "_ZNSt12_Destroy_auxILb1EE9__destroyIPPN4Rcpp13SignedFactoryI5ImageEEEEvT_S8_"
 "_ZNSt12_Destroy_auxILb1EE9__destroyIPPN4Rcpp13SignedFactoryI5VideoEEEEvT_S8_"
 "_ZNSt12_Destroy_auxILb1EE9__destroyIPPN4Rcpp13SignedFactoryI6StreamEEEEvT_S8_"
 "_ZNSt12_Destroy_auxILb1EE9__destroyIPPN4Rcpp17SignedConstructorI11VideoWriterEEEEvT_S8_"
 "_ZNSt12_Destroy_auxILb1EE9__destroyIPPN4Rcpp17SignedConstructorI5ImageEEEEvT_S8_"
 "_ZNSt12_Destroy_auxILb1EE9__destroyIPPN4Rcpp17SignedConstructorI5VideoEEEEvT_S8_"
 "_ZNSt12_Destroy_auxILb1EE9__destroyIPPN4Rcpp17SignedConstructorI6StreamEEEEvT_S8_"
 "_ZNSt12_Vector_baseIiSaIiEE11_M_allocateEy"
 "_ZNSt12_Vector_baseIiSaIiEE12_Vector_implC1ERKS0_"
 "_ZNSt12_Vector_baseIiSaIiEE12_Vector_implC1Ev"
 "_ZNSt12_Vector_baseIiSaIiEE12_Vector_implD1Ev"
 "_ZNSt12_Vector_baseIiSaIiEE13_M_deallocateEPiy"
 "_ZNSt12_Vector_baseIiSaIiEE17_M_create_storageEy"
 "_ZNSt12_Vector_baseIiSaIiEE19_M_get_Tp_allocatorEv"
 "_ZNSt12_Vector_baseIiSaIiEEC2Ev"
 "_ZNSt12_Vector_baseIiSaIiEEC2EyRKS0_"
 "_ZNSt12_Vector_baseIiSaIiEED2Ev"
 "_ZNSt12_Vector_baseIN2cv3MatESaIS1_EE11_M_allocateEy"
 "_ZNSt12_Vector_baseIN2cv3MatESaIS1_EE12_Vector_implC1ERKS2_"
 "_ZNSt12_Vector_baseIN2cv3MatESaIS1_EE12_Vector_implC1Ev"
 "_ZNSt12_Vector_baseIN2cv3MatESaIS1_EE12_Vector_implD1Ev"
 "_ZNSt12_Vector_baseIN2cv3MatESaIS1_EE13_M_deallocateEPS1_y"
 "_ZNSt12_Vector_baseIN2cv3MatESaIS1_EE17_M_create_storageEy"
 "_ZNSt12_Vector_baseIN2cv3MatESaIS1_EE19_M_get_Tp_allocatorEv"
 "_ZNSt12_Vector_baseIN2cv3MatESaIS1_EEC2Ev"
 "_ZNSt12_Vector_baseIN2cv3MatESaIS1_EEC2EyRKS2_"
 "_ZNSt12_Vector_baseIN2cv3MatESaIS1_EED2Ev"
 "_ZNSt12_Vector_baseIN2cv3VecIiLi4EEESaIS2_EE12_Vector_implC1Ev"
 "_ZNSt12_Vector_baseIN2cv3VecIiLi4EEESaIS2_EE12_Vector_implD1Ev"
 "_ZNSt12_Vector_baseIN2cv3VecIiLi4EEESaIS2_EE13_M_deallocateEPS2_y"
 "_ZNSt12_Vector_baseIN2cv3VecIiLi4EEESaIS2_EE19_M_get_Tp_allocatorEv"
 "_ZNSt12_Vector_baseIN2cv3VecIiLi4EEESaIS2_EEC2Ev"
 "_ZNSt12_Vector_baseIN2cv3VecIiLi4EEESaIS2_EED2Ev"
 "_ZNSt12_Vector_baseIN2cv5Rect_IiEESaIS2_EE12_Vector_implC1Ev"
 "_ZNSt12_Vector_baseIN2cv5Rect_IiEESaIS2_EE12_Vector_implD1Ev"
 "_ZNSt12_Vector_baseIN2cv5Rect_IiEESaIS2_EE13_M_deallocateEPS2_y"
 "_ZNSt12_Vector_baseIN2cv5Rect_IiEESaIS2_EE19_M_get_Tp_allocatorEv"
 "_ZNSt12_Vector_baseIN2cv5Rect_IiEESaIS2_EEC2Ev"
 "_ZNSt12_Vector_baseIN2cv5Rect_IiEESaIS2_EED2Ev"
 "_ZNSt12_Vector_baseIN2cv6Point_IiEESaIS2_EE11_M_allocateEy"
 "_ZNSt12_Vector_baseIN2cv6Point_IiEESaIS2_EE12_Vector_impl12_M_swap_dataERS5_"
 "_ZNSt12_Vector_baseIN2cv6Point_IiEESaIS2_EE12_Vector_implC1EOS3_"
 "_ZNSt12_Vector_baseIN2cv6Point_IiEESaIS2_EE12_Vector_implC1ERKS3_"
 "_ZNSt12_Vector_baseIN2cv6Point_IiEESaIS2_EE12_Vector_implC1Ev"
 "_ZNSt12_Vector_baseIN2cv6Point_IiEESaIS2_EE12_Vector_implD1Ev"
 "_ZNSt12_Vector_baseIN2cv6Point_IiEESaIS2_EE13_M_deallocateEPS2_y"
 "_ZNSt12_Vector_baseIN2cv6Point_IiEESaIS2_EE17_M_create_storageEy"
 "_ZNSt12_Vector_baseIN2cv6Point_IiEESaIS2_EE19_M_get_Tp_allocatorEv"
 "_ZNSt12_Vector_baseIN2cv6Point_IiEESaIS2_EEC2EOS4_"
 "_ZNSt12_Vector_baseIN2cv6Point_IiEESaIS2_EEC2Ev"
 "_ZNSt12_Vector_baseIN2cv6Point_IiEESaIS2_EEC2EyRKS3_"
 "_ZNSt12_Vector_baseIN2cv6Point_IiEESaIS2_EED2Ev"
 "_ZNSt12_Vector_baseIN2cv8KeyPointESaIS1_EE12_Vector_implC1Ev"
 "_ZNSt12_Vector_baseIN2cv8KeyPointESaIS1_EE12_Vector_implD1Ev"
 "_ZNSt12_Vector_baseIN2cv8KeyPointESaIS1_EE13_M_deallocateEPS1_y"
 "_ZNSt12_Vector_baseIN2cv8KeyPointESaIS1_EE19_M_get_Tp_allocatorEv"
 "_ZNSt12_Vector_baseIN2cv8KeyPointESaIS1_EEC2Ev"
 "_ZNSt12_Vector_baseIN2cv8KeyPointESaIS1_EED2Ev"
 "_ZNSt12_Vector_baseIPN4Rcpp12SignedMethodI11VideoWriterEESaIS4_EE11_M_allocateEy"
 "_ZNSt12_Vector_baseIPN4Rcpp12SignedMethodI11VideoWriterEESaIS4_EE12_Vector_implC1Ev"
 "_ZNSt12_Vector_baseIPN4Rcpp12SignedMethodI11VideoWriterEESaIS4_EE12_Vector_implD1Ev"
 "_ZNSt12_Vector_baseIPN4Rcpp12SignedMethodI11VideoWriterEESaIS4_EE13_M_deallocateEPS4_y"
 "_ZNSt12_Vector_baseIPN4Rcpp12SignedMethodI11VideoWriterEESaIS4_EE19_M_get_Tp_allocatorEv"
 "_ZNSt12_Vector_baseIPN4Rcpp12SignedMethodI11VideoWriterEESaIS4_EEC2Ev"
 "_ZNSt12_Vector_baseIPN4Rcpp12SignedMethodI11VideoWriterEESaIS4_EED2Ev"
 "_ZNSt12_Vector_baseIPN4Rcpp12SignedMethodI5ImageEESaIS4_EE11_M_allocateEy"
 "_ZNSt12_Vector_baseIPN4Rcpp12SignedMethodI5ImageEESaIS4_EE12_Vector_implC1Ev"
 "_ZNSt12_Vector_baseIPN4Rcpp12SignedMethodI5ImageEESaIS4_EE12_Vector_implD1Ev"
 "_ZNSt12_Vector_baseIPN4Rcpp12SignedMethodI5ImageEESaIS4_EE13_M_deallocateEPS4_y"
 "_ZNSt12_Vector_baseIPN4Rcpp12SignedMethodI5ImageEESaIS4_EE19_M_get_Tp_allocatorEv"
 "_ZNSt12_Vector_baseIPN4Rcpp12SignedMethodI5ImageEESaIS4_EEC2Ev"
 "_ZNSt12_Vector_baseIPN4Rcpp12SignedMethodI5ImageEESaIS4_EED2Ev"
 "_ZNSt12_Vector_baseIPN4Rcpp12SignedMethodI5VideoEESaIS4_EE11_M_allocateEy"
 "_ZNSt12_Vector_baseIPN4Rcpp12SignedMethodI5VideoEESaIS4_EE12_Vector_implC1Ev"
 "_ZNSt12_Vector_baseIPN4Rcpp12SignedMethodI5VideoEESaIS4_EE12_Vector_implD1Ev"
 "_ZNSt12_Vector_baseIPN4Rcpp12SignedMethodI5VideoEESaIS4_EE13_M_deallocateEPS4_y"
 "_ZNSt12_Vector_baseIPN4Rcpp12SignedMethodI5VideoEESaIS4_EE19_M_get_Tp_allocatorEv"
 "_ZNSt12_Vector_baseIPN4Rcpp12SignedMethodI5VideoEESaIS4_EEC2Ev"
 "_ZNSt12_Vector_baseIPN4Rcpp12SignedMethodI5VideoEESaIS4_EED2Ev"
 "_ZNSt12_Vector_baseIPN4Rcpp12SignedMethodI6StreamEESaIS4_EE11_M_allocateEy"
 "_ZNSt12_Vector_baseIPN4Rcpp12SignedMethodI6StreamEESaIS4_EE12_Vector_implC1Ev"
 "_ZNSt12_Vector_baseIPN4Rcpp12SignedMethodI6StreamEESaIS4_EE12_Vector_implD1Ev"
 "_ZNSt12_Vector_baseIPN4Rcpp12SignedMethodI6StreamEESaIS4_EE13_M_deallocateEPS4_y"
 "_ZNSt12_Vector_baseIPN4Rcpp12SignedMethodI6StreamEESaIS4_EE19_M_get_Tp_allocatorEv"
 "_ZNSt12_Vector_baseIPN4Rcpp12SignedMethodI6StreamEESaIS4_EEC2Ev"
 "_ZNSt12_Vector_baseIPN4Rcpp12SignedMethodI6StreamEESaIS4_EED2Ev"
 "_ZNSt12_Vector_baseIPN4Rcpp13SignedFactoryI11VideoWriterEESaIS4_EE12_Vector_implC1Ev"
 "_ZNSt12_Vector_baseIPN4Rcpp13SignedFactoryI11VideoWriterEESaIS4_EE12_Vector_implD1Ev"
 "_ZNSt12_Vector_baseIPN4Rcpp13SignedFactoryI11VideoWriterEESaIS4_EE13_M_deallocateEPS4_y"
 "_ZNSt12_Vector_baseIPN4Rcpp13SignedFactoryI11VideoWriterEESaIS4_EE19_M_get_Tp_allocatorEv"
 "_ZNSt12_Vector_baseIPN4Rcpp13SignedFactoryI11VideoWriterEESaIS4_EEC2Ev"
 "_ZNSt12_Vector_baseIPN4Rcpp13SignedFactoryI11VideoWriterEESaIS4_EED2Ev"
 "_ZNSt12_Vector_baseIPN4Rcpp13SignedFactoryI5ImageEESaIS4_EE12_Vector_implC1Ev"
 "_ZNSt12_Vector_baseIPN4Rcpp13SignedFactoryI5ImageEESaIS4_EE12_Vector_implD1Ev"
 "_ZNSt12_Vector_baseIPN4Rcpp13SignedFactoryI5ImageEESaIS4_EE13_M_deallocateEPS4_y"
 "_ZNSt12_Vector_baseIPN4Rcpp13SignedFactoryI5ImageEESaIS4_EE19_M_get_Tp_allocatorEv"
 "_ZNSt12_Vector_baseIPN4Rcpp13SignedFactoryI5ImageEESaIS4_EEC2Ev"
 "_ZNSt12_Vector_baseIPN4Rcpp13SignedFactoryI5ImageEESaIS4_EED2Ev"
 "_ZNSt12_Vector_baseIPN4Rcpp13SignedFactoryI5VideoEESaIS4_EE12_Vector_implC1Ev"
 "_ZNSt12_Vector_baseIPN4Rcpp13SignedFactoryI5VideoEESaIS4_EE12_Vector_implD1Ev"
 "_ZNSt12_Vector_baseIPN4Rcpp13SignedFactoryI5VideoEESaIS4_EE13_M_deallocateEPS4_y"
 "_ZNSt12_Vector_baseIPN4Rcpp13SignedFactoryI5VideoEESaIS4_EE19_M_get_Tp_allocatorEv"
 "_ZNSt12_Vector_baseIPN4Rcpp13SignedFactoryI5VideoEESaIS4_EEC2Ev"
 "_ZNSt12_Vector_baseIPN4Rcpp13SignedFactoryI5VideoEESaIS4_EED2Ev"
 "_ZNSt12_Vector_baseIPN4Rcpp13SignedFactoryI6StreamEESaIS4_EE12_Vector_implC1Ev"
 "_ZNSt12_Vector_baseIPN4Rcpp13SignedFactoryI6StreamEESaIS4_EE12_Vector_implD1Ev"
 "_ZNSt12_Vector_baseIPN4Rcpp13SignedFactoryI6StreamEESaIS4_EE13_M_deallocateEPS4_y"
 "_ZNSt12_Vector_baseIPN4Rcpp13SignedFactoryI6StreamEESaIS4_EE19_M_get_Tp_allocatorEv"
 "_ZNSt12_Vector_baseIPN4Rcpp13SignedFactoryI6StreamEESaIS4_EEC2Ev"
 "_ZNSt12_Vector_baseIPN4Rcpp13SignedFactoryI6StreamEESaIS4_EED2Ev"
 "_ZNSt12_Vector_baseIPN4Rcpp17SignedConstructorI11VideoWriterEESaIS4_EE11_M_allocateEy"
 "_ZNSt12_Vector_baseIPN4Rcpp17SignedConstructorI11VideoWriterEESaIS4_EE12_Vector_implC1Ev"
 "_ZNSt12_Vector_baseIPN4Rcpp17SignedConstructorI11VideoWriterEESaIS4_EE12_Vector_implD1Ev"
 "_ZNSt12_Vector_baseIPN4Rcpp17SignedConstructorI11VideoWriterEESaIS4_EE13_M_deallocateEPS4_y"
 "_ZNSt12_Vector_baseIPN4Rcpp17SignedConstructorI11VideoWriterEESaIS4_EE19_M_get_Tp_allocatorEv"
 "_ZNSt12_Vector_baseIPN4Rcpp17SignedConstructorI11VideoWriterEESaIS4_EEC2Ev"
 "_ZNSt12_Vector_baseIPN4Rcpp17SignedConstructorI11VideoWriterEESaIS4_EED2Ev"
 "_ZNSt12_Vector_baseIPN4Rcpp17SignedConstructorI5ImageEESaIS4_EE11_M_allocateEy"
 "_ZNSt12_Vector_baseIPN4Rcpp17SignedConstructorI5ImageEESaIS4_EE12_Vector_implC1Ev"
 "_ZNSt12_Vector_baseIPN4Rcpp17SignedConstructorI5ImageEESaIS4_EE12_Vector_implD1Ev"
 "_ZNSt12_Vector_baseIPN4Rcpp17SignedConstructorI5ImageEESaIS4_EE13_M_deallocateEPS4_y"
 "_ZNSt12_Vector_baseIPN4Rcpp17SignedConstructorI5ImageEESaIS4_EE19_M_get_Tp_allocatorEv"
 "_ZNSt12_Vector_baseIPN4Rcpp17SignedConstructorI5ImageEESaIS4_EEC2Ev"
 "_ZNSt12_Vector_baseIPN4Rcpp17SignedConstructorI5ImageEESaIS4_EED2Ev"
 "_ZNSt12_Vector_baseIPN4Rcpp17SignedConstructorI5VideoEESaIS4_EE11_M_allocateEy"
 "_ZNSt12_Vector_baseIPN4Rcpp17SignedConstructorI5VideoEESaIS4_EE12_Vector_implC1Ev"
 "_ZNSt12_Vector_baseIPN4Rcpp17SignedConstructorI5VideoEESaIS4_EE12_Vector_implD1Ev"
 "_ZNSt12_Vector_baseIPN4Rcpp17SignedConstructorI5VideoEESaIS4_EE13_M_deallocateEPS4_y"
 "_ZNSt12_Vector_baseIPN4Rcpp17SignedConstructorI5VideoEESaIS4_EE19_M_get_Tp_allocatorEv"
 "_ZNSt12_Vector_baseIPN4Rcpp17SignedConstructorI5VideoEESaIS4_EEC2Ev"
 "_ZNSt12_Vector_baseIPN4Rcpp17SignedConstructorI5VideoEESaIS4_EED2Ev"
 "_ZNSt12_Vector_baseIPN4Rcpp17SignedConstructorI6StreamEESaIS4_EE11_M_allocateEy"
 "_ZNSt12_Vector_baseIPN4Rcpp17SignedConstructorI6StreamEESaIS4_EE12_Vector_implC1Ev"
 "_ZNSt12_Vector_baseIPN4Rcpp17SignedConstructorI6StreamEESaIS4_EE12_Vector_implD1Ev"
 "_ZNSt12_Vector_baseIPN4Rcpp17SignedConstructorI6StreamEESaIS4_EE13_M_deallocateEPS4_y"
 "_ZNSt12_Vector_baseIPN4Rcpp17SignedConstructorI6StreamEESaIS4_EE19_M_get_Tp_allocatorEv"
 "_ZNSt12_Vector_baseIPN4Rcpp17SignedConstructorI6StreamEESaIS4_EEC2Ev"
 "_ZNSt12_Vector_baseIPN4Rcpp17SignedConstructorI6StreamEESaIS4_EED2Ev"
 "_ZNSt12_Vector_baseISsSaISsEE12_Vector_implC1Ev"
 "_ZNSt12_Vector_baseISsSaISsEE12_Vector_implD1Ev"
 "_ZNSt12_Vector_baseISsSaISsEE13_M_deallocateEPSsy"
 "_ZNSt12_Vector_baseISsSaISsEE19_M_get_Tp_allocatorEv"
 "_ZNSt12_Vector_baseISsSaISsEEC2Ev"
 "_ZNSt12_Vector_baseISsSaISsEED2Ev"
 "_ZNSt12_Vector_baseISt6vectorIN2cv6Point_IiEESaIS3_EESaIS5_EE11_M_allocateEy"
 "_ZNSt12_Vector_baseISt6vectorIN2cv6Point_IiEESaIS3_EESaIS5_EE12_Vector_implC1Ev"
 "_ZNSt12_Vector_baseISt6vectorIN2cv6Point_IiEESaIS3_EESaIS5_EE12_Vector_implD1Ev"
 "_ZNSt12_Vector_baseISt6vectorIN2cv6Point_IiEESaIS3_EESaIS5_EE13_M_deallocateEPS5_y"
 "_ZNSt12_Vector_baseISt6vectorIN2cv6Point_IiEESaIS3_EESaIS5_EE19_M_get_Tp_allocatorEv"
 "_ZNSt12_Vector_baseISt6vectorIN2cv6Point_IiEESaIS3_EESaIS5_EEC2Ev"
 "_ZNSt12_Vector_baseISt6vectorIN2cv6Point_IiEESaIS3_EESaIS5_EED2Ev"
 "_ZNSt13_Rb_tree_nodeISt4pairIKSsiEE9_M_valptrEv"
 "_ZNSt13_Rb_tree_nodeISt4pairIKSsPN4Rcpp10class_BaseEEE9_M_valptrEv"
 "_ZNSt13_Rb_tree_nodeISt4pairIKSsPN4Rcpp11CppFunctionEEE9_M_valptrEv"
 "_ZNSt13_Rb_tree_nodeISt4pairIKSsPN4Rcpp11CppPropertyI11VideoWriterEEEE9_M_valptrEv"
 "_ZNSt13_Rb_tree_nodeISt4pairIKSsPN4Rcpp11CppPropertyI5ImageEEEE9_M_valptrEv"
 "_ZNSt13_Rb_tree_nodeISt4pairIKSsPN4Rcpp11CppPropertyI5VideoEEEE9_M_valptrEv"
 "_ZNSt13_Rb_tree_nodeISt4pairIKSsPN4Rcpp11CppPropertyI6StreamEEEE9_M_valptrEv"
 "_ZNSt13_Rb_tree_nodeISt4pairIKSsPSt6vectorIPN4Rcpp12SignedMethodI11VideoWriterEESaIS7_EEEE9_M_valptrEv"
 "_ZNSt13_Rb_tree_nodeISt4pairIKSsPSt6vectorIPN4Rcpp12SignedMethodI5ImageEESaIS7_EEEE9_M_valptrEv"
 "_ZNSt13_Rb_tree_nodeISt4pairIKSsPSt6vectorIPN4Rcpp12SignedMethodI5VideoEESaIS7_EEEE9_M_valptrEv"
 "_ZNSt13_Rb_tree_nodeISt4pairIKSsPSt6vectorIPN4Rcpp12SignedMethodI6StreamEESaIS7_EEEE9_M_valptrEv"
 "_ZNSt13_Rb_tree_nodeISt4pairIKSsSt3mapISsiSt4lessISsESaIS0_IS1_iEEEEE9_M_valptrEv"
 "_ZNSt13move_iteratorIPN2cv6Point_IiEEEC1ES3_"
 "_ZNSt13move_iteratorIPN2cv6Point_IiEEEppEv"
 "_ZNSt13move_iteratorIPPN4Rcpp12SignedMethodI11VideoWriterEEEC1ES5_"
 "_ZNSt13move_iteratorIPPN4Rcpp12SignedMethodI5ImageEEEC1ES5_"
 "_ZNSt13move_iteratorIPPN4Rcpp12SignedMethodI5VideoEEEC1ES5_"
 "_ZNSt13move_iteratorIPPN4Rcpp12SignedMethodI6StreamEEEC1ES5_"
 "_ZNSt13move_iteratorIPPN4Rcpp17SignedConstructorI11VideoWriterEEEC1ES5_"
 "_ZNSt13move_iteratorIPPN4Rcpp17SignedConstructorI5ImageEEEC1ES5_"
 "_ZNSt13move_iteratorIPPN4Rcpp17SignedConstructorI5VideoEEEC1ES5_"
 "_ZNSt13move_iteratorIPPN4Rcpp17SignedConstructorI6StreamEEEC1ES5_"
 "_ZNSt13move_iteratorIPSt6vectorIN2cv6Point_IiEESaIS3_EEEC1ES6_"
 "_ZNSt13move_iteratorIPSt6vectorIN2cv6Point_IiEESaIS3_EEEppEv"
 "_ZNSt14__shared_countILN9__gnu_cxx12_Lock_policyE2EED1Ev"
 "_ZNSt14numeric_limitsIdE8infinityEv"
 "_ZNSt14numeric_limitsIdE9quiet_NaNEv"
 "_ZNSt14numeric_limitsIiE3maxEv"
 "_ZNSt14numeric_limitsIiE3minEv"
 "_ZNSt14numeric_limitsIyE3maxEv"
 "_ZNSt16_Sp_counted_baseILN9__gnu_cxx12_Lock_policyE2EE10_M_releaseEv"
 "_ZNSt16allocator_traitsISaIiEE10deallocateERS0_Piy"
 "_ZNSt16allocator_traitsISaIiEE8allocateERS0_y"
 "_ZNSt16allocator_traitsISaIN2cv3MatEEE10deallocateERS2_PS1_y"
 "_ZNSt16allocator_traitsISaIN2cv3MatEEE8allocateERS2_y"
 "_ZNSt16allocator_traitsISaIN2cv3VecIiLi4EEEEE10deallocateERS3_PS2_y"
 "_ZNSt16allocator_traitsISaIN2cv5Rect_IiEEEE10deallocateERS3_PS2_y"
 "_ZNSt16allocator_traitsISaIN2cv6Point_IiEEEE10_S_destroyIS2_EENSt9enable_ifIXsrSt6__and_IINS4_16__destroy_helperIT_E4typeEEE5valueEvE4typeERS3_PS9_"
 "_ZNSt16allocator_traitsISaIN2cv6Point_IiEEEE10deallocateERS3_PS2_y"
 "_ZNSt16allocator_traitsISaIN2cv6Point_IiEEEE11_S_max_sizeIKS3_vEEyRT_i"
 "_ZNSt16allocator_traitsISaIN2cv6Point_IiEEEE12_S_constructIS2_IS2_EEENSt9enable_ifIXsrSt6__and_IINS4_18__construct_helperIT_IDpT0_EE4typeEEE5valueEvE4typeERS3_PS9_DpOSA_"
 "_ZNSt16allocator_traitsISaIN2cv6Point_IiEEEE37select_on_container_copy_constructionERKS3_"
 "_ZNSt16allocator_traitsISaIN2cv6Point_IiEEEE7destroyIS2_EEvRS3_PT_"
 "_ZNSt16allocator_traitsISaIN2cv6Point_IiEEEE8allocateERS3_y"
 "_ZNSt16allocator_traitsISaIN2cv6Point_IiEEEE8max_sizeERKS3_"
 "_ZNSt16allocator_traitsISaIN2cv6Point_IiEEEE9_S_selectIKS3_vEET_RS7_z"
 "_ZNSt16allocator_traitsISaIN2cv6Point_IiEEEE9constructIS2_IS2_EEEDTcl12_S_constructfp_fp0_spcl7forwardIT0_Efp1_EEERS3_PT_DpOS6_"
 "_ZNSt16allocator_traitsISaIN2cv8KeyPointEEE10deallocateERS2_PS1_y"
 "_ZNSt16allocator_traitsISaIPN4Rcpp12SignedMethodI11VideoWriterEEEE10_S_destroyIS4_EENSt9enable_ifIXsrSt6__and_IINS6_16__destroy_helperIT_E4typeEEE5valueEvE4typeERS5_PSB_"
 "_ZNSt16allocator_traitsISaIPN4Rcpp12SignedMethodI11VideoWriterEEEE10deallocateERS5_PS4_y"
 "_ZNSt16allocator_traitsISaIPN4Rcpp12SignedMethodI11VideoWriterEEEE11_S_max_sizeIKS5_vEEyRT_i"
 "_ZNSt16allocator_traitsISaIPN4Rcpp12SignedMethodI11VideoWriterEEEE12_S_constructIS4_IS4_EEENSt9enable_ifIXsrSt6__and_IINS6_18__construct_helperIT_IDpT0_EE4typeEEE5valueEvE4typeERS5_PSB_DpOSC_"
 "_ZNSt16allocator_traitsISaIPN4Rcpp12SignedMethodI11VideoWriterEEEE7destroyIS4_EEvRS5_PT_"
 "_ZNSt16allocator_traitsISaIPN4Rcpp12SignedMethodI11VideoWriterEEEE8allocateERS5_y"
 "_ZNSt16allocator_traitsISaIPN4Rcpp12SignedMethodI11VideoWriterEEEE8max_sizeERKS5_"
 "_ZNSt16allocator_traitsISaIPN4Rcpp12SignedMethodI11VideoWriterEEEE9constructIS4_IS4_EEEDTcl12_S_constructfp_fp0_spcl7forwardIT0_Efp1_EEERS5_PT_DpOS8_"
 "_ZNSt16allocator_traitsISaIPN4Rcpp12SignedMethodI5ImageEEEE10_S_destroyIS4_EENSt9enable_ifIXsrSt6__and_IINS6_16__destroy_helperIT_E4typeEEE5valueEvE4typeERS5_PSB_"
 "_ZNSt16allocator_traitsISaIPN4Rcpp12SignedMethodI5ImageEEEE10deallocateERS5_PS4_y"
 "_ZNSt16allocator_traitsISaIPN4Rcpp12SignedMethodI5ImageEEEE11_S_max_sizeIKS5_vEEyRT_i"
 "_ZNSt16allocator_traitsISaIPN4Rcpp12SignedMethodI5ImageEEEE12_S_constructIS4_IS4_EEENSt9enable_ifIXsrSt6__and_IINS6_18__construct_helperIT_IDpT0_EE4typeEEE5valueEvE4typeERS5_PSB_DpOSC_"
 "_ZNSt16allocator_traitsISaIPN4Rcpp12SignedMethodI5ImageEEEE7destroyIS4_EEvRS5_PT_"
 "_ZNSt16allocator_traitsISaIPN4Rcpp12SignedMethodI5ImageEEEE8allocateERS5_y"
 "_ZNSt16allocator_traitsISaIPN4Rcpp12SignedMethodI5ImageEEEE8max_sizeERKS5_"
 "_ZNSt16allocator_traitsISaIPN4Rcpp12SignedMethodI5ImageEEEE9constructIS4_IS4_EEEDTcl12_S_constructfp_fp0_spcl7forwardIT0_Efp1_EEERS5_PT_DpOS8_"
 "_ZNSt16allocator_traitsISaIPN4Rcpp12SignedMethodI5VideoEEEE10_S_destroyIS4_EENSt9enable_ifIXsrSt6__and_IINS6_16__destroy_helperIT_E4typeEEE5valueEvE4typeERS5_PSB_"
 "_ZNSt16allocator_traitsISaIPN4Rcpp12SignedMethodI5VideoEEEE10deallocateERS5_PS4_y"
 "_ZNSt16allocator_traitsISaIPN4Rcpp12SignedMethodI5VideoEEEE11_S_max_sizeIKS5_vEEyRT_i"
 "_ZNSt16allocator_traitsISaIPN4Rcpp12SignedMethodI5VideoEEEE12_S_constructIS4_IS4_EEENSt9enable_ifIXsrSt6__and_IINS6_18__construct_helperIT_IDpT0_EE4typeEEE5valueEvE4typeERS5_PSB_DpOSC_"
 "_ZNSt16allocator_traitsISaIPN4Rcpp12SignedMethodI5VideoEEEE7destroyIS4_EEvRS5_PT_"
 "_ZNSt16allocator_traitsISaIPN4Rcpp12SignedMethodI5VideoEEEE8allocateERS5_y"
 "_ZNSt16allocator_traitsISaIPN4Rcpp12SignedMethodI5VideoEEEE8max_sizeERKS5_"
 "_ZNSt16allocator_traitsISaIPN4Rcpp12SignedMethodI5VideoEEEE9constructIS4_IS4_EEEDTcl12_S_constructfp_fp0_spcl7forwardIT0_Efp1_EEERS5_PT_DpOS8_"
 "_ZNSt16allocator_traitsISaIPN4Rcpp12SignedMethodI6StreamEEEE10_S_destroyIS4_EENSt9enable_ifIXsrSt6__and_IINS6_16__destroy_helperIT_E4typeEEE5valueEvE4typeERS5_PSB_"
 "_ZNSt16allocator_traitsISaIPN4Rcpp12SignedMethodI6StreamEEEE10deallocateERS5_PS4_y"
 "_ZNSt16allocator_traitsISaIPN4Rcpp12SignedMethodI6StreamEEEE11_S_max_sizeIKS5_vEEyRT_i"
 "_ZNSt16allocator_traitsISaIPN4Rcpp12SignedMethodI6StreamEEEE12_S_constructIS4_IS4_EEENSt9enable_ifIXsrSt6__and_IINS6_18__construct_helperIT_IDpT0_EE4typeEEE5valueEvE4typeERS5_PSB_DpOSC_"
 "_ZNSt16allocator_traitsISaIPN4Rcpp12SignedMethodI6StreamEEEE7destroyIS4_EEvRS5_PT_"
 "_ZNSt16allocator_traitsISaIPN4Rcpp12SignedMethodI6StreamEEEE8allocateERS5_y"
 "_ZNSt16allocator_traitsISaIPN4Rcpp12SignedMethodI6StreamEEEE8max_sizeERKS5_"
 "_ZNSt16allocator_traitsISaIPN4Rcpp12SignedMethodI6StreamEEEE9constructIS4_IS4_EEEDTcl12_S_constructfp_fp0_spcl7forwardIT0_Efp1_EEERS5_PT_DpOS8_"
 "_ZNSt16allocator_traitsISaIPN4Rcpp13SignedFactoryI11VideoWriterEEEE10deallocateERS5_PS4_y"
 "_ZNSt16allocator_traitsISaIPN4Rcpp13SignedFactoryI5ImageEEEE10deallocateERS5_PS4_y"
 "_ZNSt16allocator_traitsISaIPN4Rcpp13SignedFactoryI5VideoEEEE10deallocateERS5_PS4_y"
 "_ZNSt16allocator_traitsISaIPN4Rcpp13SignedFactoryI6StreamEEEE10deallocateERS5_PS4_y"
 "_ZNSt16allocator_traitsISaIPN4Rcpp17SignedConstructorI11VideoWriterEEEE10_S_destroyIS4_EENSt9enable_ifIXsrSt6__and_IINS6_16__destroy_helperIT_E4typeEEE5valueEvE4typeERS5_PSB_"
 "_ZNSt16allocator_traitsISaIPN4Rcpp17SignedConstructorI11VideoWriterEEEE10deallocateERS5_PS4_y"
 "_ZNSt16allocator_traitsISaIPN4Rcpp17SignedConstructorI11VideoWriterEEEE11_S_max_sizeIKS5_vEEyRT_i"
 "_ZNSt16allocator_traitsISaIPN4Rcpp17SignedConstructorI11VideoWriterEEEE12_S_constructIS4_IS4_EEENSt9enable_ifIXsrSt6__and_IINS6_18__construct_helperIT_IDpT0_EE4typeEEE5valueEvE4typeERS5_PSB_DpOSC_"
 "_ZNSt16allocator_traitsISaIPN4Rcpp17SignedConstructorI11VideoWriterEEEE7destroyIS4_EEvRS5_PT_"
 "_ZNSt16allocator_traitsISaIPN4Rcpp17SignedConstructorI11VideoWriterEEEE8allocateERS5_y"
 "_ZNSt16allocator_traitsISaIPN4Rcpp17SignedConstructorI11VideoWriterEEEE8max_sizeERKS5_"
 "_ZNSt16allocator_traitsISaIPN4Rcpp17SignedConstructorI11VideoWriterEEEE9constructIS4_IS4_EEEDTcl12_S_constructfp_fp0_spcl7forwardIT0_Efp1_EEERS5_PT_DpOS8_"
 "_ZNSt16allocator_traitsISaIPN4Rcpp17SignedConstructorI5ImageEEEE10_S_destroyIS4_EENSt9enable_ifIXsrSt6__and_IINS6_16__destroy_helperIT_E4typeEEE5valueEvE4typeERS5_PSB_"
 "_ZNSt16allocator_traitsISaIPN4Rcpp17SignedConstructorI5ImageEEEE10deallocateERS5_PS4_y"
 "_ZNSt16allocator_traitsISaIPN4Rcpp17SignedConstructorI5ImageEEEE11_S_max_sizeIKS5_vEEyRT_i"
 "_ZNSt16allocator_traitsISaIPN4Rcpp17SignedConstructorI5ImageEEEE12_S_constructIS4_IS4_EEENSt9enable_ifIXsrSt6__and_IINS6_18__construct_helperIT_IDpT0_EE4typeEEE5valueEvE4typeERS5_PSB_DpOSC_"
 "_ZNSt16allocator_traitsISaIPN4Rcpp17SignedConstructorI5ImageEEEE7destroyIS4_EEvRS5_PT_"
 "_ZNSt16allocator_traitsISaIPN4Rcpp17SignedConstructorI5ImageEEEE8allocateERS5_y"
 "_ZNSt16allocator_traitsISaIPN4Rcpp17SignedConstructorI5ImageEEEE8max_sizeERKS5_"
 "_ZNSt16allocator_traitsISaIPN4Rcpp17SignedConstructorI5ImageEEEE9constructIS4_IS4_EEEDTcl12_S_constructfp_fp0_spcl7forwardIT0_Efp1_EEERS5_PT_DpOS8_"
 "_ZNSt16allocator_traitsISaIPN4Rcpp17SignedConstructorI5VideoEEEE10_S_destroyIS4_EENSt9enable_ifIXsrSt6__and_IINS6_16__destroy_helperIT_E4typeEEE5valueEvE4typeERS5_PSB_"
 "_ZNSt16allocator_traitsISaIPN4Rcpp17SignedConstructorI5VideoEEEE10deallocateERS5_PS4_y"
 "_ZNSt16allocator_traitsISaIPN4Rcpp17SignedConstructorI5VideoEEEE11_S_max_sizeIKS5_vEEyRT_i"
 "_ZNSt16allocator_traitsISaIPN4Rcpp17SignedConstructorI5VideoEEEE12_S_constructIS4_IS4_EEENSt9enable_ifIXsrSt6__and_IINS6_18__construct_helperIT_IDpT0_EE4typeEEE5valueEvE4typeERS5_PSB_DpOSC_"
 "_ZNSt16allocator_traitsISaIPN4Rcpp17SignedConstructorI5VideoEEEE7destroyIS4_EEvRS5_PT_"
 "_ZNSt16allocator_traitsISaIPN4Rcpp17SignedConstructorI5VideoEEEE8allocateERS5_y"
 "_ZNSt16allocator_traitsISaIPN4Rcpp17SignedConstructorI5VideoEEEE8max_sizeERKS5_"
 "_ZNSt16allocator_traitsISaIPN4Rcpp17SignedConstructorI5VideoEEEE9constructIS4_IS4_EEEDTcl12_S_constructfp_fp0_spcl7forwardIT0_Efp1_EEERS5_PT_DpOS8_"
 "_ZNSt16allocator_traitsISaIPN4Rcpp17SignedConstructorI6StreamEEEE10_S_destroyIS4_EENSt9enable_ifIXsrSt6__and_IINS6_16__destroy_helperIT_E4typeEEE5valueEvE4typeERS5_PSB_"
 "_ZNSt16allocator_traitsISaIPN4Rcpp17SignedConstructorI6StreamEEEE10deallocateERS5_PS4_y"
 "_ZNSt16allocator_traitsISaIPN4Rcpp17SignedConstructorI6StreamEEEE11_S_max_sizeIKS5_vEEyRT_i"
 "_ZNSt16allocator_traitsISaIPN4Rcpp17SignedConstructorI6StreamEEEE12_S_constructIS4_IS4_EEENSt9enable_ifIXsrSt6__and_IINS6_18__construct_helperIT_IDpT0_EE4typeEEE5valueEvE4typeERS5_PSB_DpOSC_"
 "_ZNSt16allocator_traitsISaIPN4Rcpp17SignedConstructorI6StreamEEEE7destroyIS4_EEvRS5_PT_"
 "_ZNSt16allocator_traitsISaIPN4Rcpp17SignedConstructorI6StreamEEEE8allocateERS5_y"
 "_ZNSt16allocator_traitsISaIPN4Rcpp17SignedConstructorI6StreamEEEE8max_sizeERKS5_"
 "_ZNSt16allocator_traitsISaIPN4Rcpp17SignedConstructorI6StreamEEEE9constructIS4_IS4_EEEDTcl12_S_constructfp_fp0_spcl7forwardIT0_Efp1_EEERS5_PT_DpOS8_"
 "_ZNSt16allocator_traitsISaISsEE10deallocateERS0_PSsy"
 "_ZNSt16allocator_traitsISaISt13_Rb_tree_nodeISt4pairIKSsiEEEE10_S_destroyIS3_EENSt9enable_ifIXsrSt6__and_IINS6_16__destroy_helperIT_E4typeEEE5valueEvE4typeERS5_PSB_"
 "_ZNSt16allocator_traitsISaISt13_Rb_tree_nodeISt4pairIKSsiEEEE10deallocateERS5_PS4_y"
 "_ZNSt16allocator_traitsISaISt13_Rb_tree_nodeISt4pairIKSsiEEEE7destroyIS3_EEvRS5_PT_"
 "_ZNSt16allocator_traitsISaISt13_Rb_tree_nodeISt4pairIKSsPN4Rcpp10class_BaseEEEEE10_S_destroyIS6_EENSt9enable_ifIXsrSt6__and_IINS9_16__destroy_helperIT_E4typeEEE5valueEvE4typeERS8_PSE_"
 "_ZNSt16allocator_traitsISaISt13_Rb_tree_nodeISt4pairIKSsPN4Rcpp10class_BaseEEEEE10deallocateERS8_PS7_y"
 "_ZNSt16allocator_traitsISaISt13_Rb_tree_nodeISt4pairIKSsPN4Rcpp10class_BaseEEEEE12_S_constructIS6_IS6_EEENSt9enable_ifIXsrSt6__and_IINS9_18__construct_helperIT_IDpT0_EE4typeEEE5valueEvE4typeERS8_PSE_DpOSF_"
 "_ZNSt16allocator_traitsISaISt13_Rb_tree_nodeISt4pairIKSsPN4Rcpp10class_BaseEEEEE7destroyIS6_EEvRS8_PT_"
 "_ZNSt16allocator_traitsISaISt13_Rb_tree_nodeISt4pairIKSsPN4Rcpp10class_BaseEEEEE8allocateERS8_y"
 "_ZNSt16allocator_traitsISaISt13_Rb_tree_nodeISt4pairIKSsPN4Rcpp10class_BaseEEEEE9constructIS6_IS6_EEEDTcl12_S_constructfp_fp0_spcl7forwardIT0_Efp1_EEERS8_PT_DpOSB_"
 "_ZNSt16allocator_traitsISaISt13_Rb_tree_nodeISt4pairIKSsPN4Rcpp11CppFunctionEEEEE10_S_destroyIS6_EENSt9enable_ifIXsrSt6__and_IINS9_16__destroy_helperIT_E4typeEEE5valueEvE4typeERS8_PSE_"
 "_ZNSt16allocator_traitsISaISt13_Rb_tree_nodeISt4pairIKSsPN4Rcpp11CppFunctionEEEEE10deallocateERS8_PS7_y"
 "_ZNSt16allocator_traitsISaISt13_Rb_tree_nodeISt4pairIKSsPN4Rcpp11CppFunctionEEEEE12_S_constructIS6_IS6_EEENSt9enable_ifIXsrSt6__and_IINS9_18__construct_helperIT_IDpT0_EE4typeEEE5valueEvE4typeERS8_PSE_DpOSF_"
 "_ZNSt16allocator_traitsISaISt13_Rb_tree_nodeISt4pairIKSsPN4Rcpp11CppFunctionEEEEE7destroyIS6_EEvRS8_PT_"
 "_ZNSt16allocator_traitsISaISt13_Rb_tree_nodeISt4pairIKSsPN4Rcpp11CppFunctionEEEEE8allocateERS8_y"
 "_ZNSt16allocator_traitsISaISt13_Rb_tree_nodeISt4pairIKSsPN4Rcpp11CppFunctionEEEEE9constructIS6_IS6_EEEDTcl12_S_constructfp_fp0_spcl7forwardIT0_Efp1_EEERS8_PT_DpOSB_"
 "_ZNSt16allocator_traitsISaISt13_Rb_tree_nodeISt4pairIKSsPN4Rcpp11CppPropertyI11VideoWriterEEEEEE10_S_destroyIS8_EENSt9enable_ifIXsrSt6__and_IINSB_16__destroy_helperIT_E4typeEEE5valueEvE4typeERSA_PSG_"
 "_ZNSt16allocator_traitsISaISt13_Rb_tree_nodeISt4pairIKSsPN4Rcpp11CppPropertyI11VideoWriterEEEEEE10deallocateERSA_PS9_y"
 "_ZNSt16allocator_traitsISaISt13_Rb_tree_nodeISt4pairIKSsPN4Rcpp11CppPropertyI11VideoWriterEEEEEE7destroyIS8_EEvRSA_PT_"
 "_ZNSt16allocator_traitsISaISt13_Rb_tree_nodeISt4pairIKSsPN4Rcpp11CppPropertyI5ImageEEEEEE10_S_destroyIS8_EENSt9enable_ifIXsrSt6__and_IINSB_16__destroy_helperIT_E4typeEEE5valueEvE4typeERSA_PSG_"
 "_ZNSt16allocator_traitsISaISt13_Rb_tree_nodeISt4pairIKSsPN4Rcpp11CppPropertyI5ImageEEEEEE10deallocateERSA_PS9_y"
 "_ZNSt16allocator_traitsISaISt13_Rb_tree_nodeISt4pairIKSsPN4Rcpp11CppPropertyI5ImageEEEEEE7destroyIS8_EEvRSA_PT_"
 "_ZNSt16allocator_traitsISaISt13_Rb_tree_nodeISt4pairIKSsPN4Rcpp11CppPropertyI5VideoEEEEEE10_S_destroyIS8_EENSt9enable_ifIXsrSt6__and_IINSB_16__destroy_helperIT_E4typeEEE5valueEvE4typeERSA_PSG_"
 "_ZNSt16allocator_traitsISaISt13_Rb_tree_nodeISt4pairIKSsPN4Rcpp11CppPropertyI5VideoEEEEEE10deallocateERSA_PS9_y"
 "_ZNSt16allocator_traitsISaISt13_Rb_tree_nodeISt4pairIKSsPN4Rcpp11CppPropertyI5VideoEEEEEE7destroyIS8_EEvRSA_PT_"
 "_ZNSt16allocator_traitsISaISt13_Rb_tree_nodeISt4pairIKSsPN4Rcpp11CppPropertyI6StreamEEEEEE10_S_destroyIS8_EENSt9enable_ifIXsrSt6__and_IINSB_16__destroy_helperIT_E4typeEEE5valueEvE4typeERSA_PSG_"
 "_ZNSt16allocator_traitsISaISt13_Rb_tree_nodeISt4pairIKSsPN4Rcpp11CppPropertyI6StreamEEEEEE10deallocateERSA_PS9_y"
 "_ZNSt16allocator_traitsISaISt13_Rb_tree_nodeISt4pairIKSsPN4Rcpp11CppPropertyI6StreamEEEEEE7destroyIS8_EEvRSA_PT_"
 "_ZNSt16allocator_traitsISaISt13_Rb_tree_nodeISt4pairIKSsPSt6vectorIPN4Rcpp12SignedMethodI11VideoWriterEESaIS8_EEEEEE10_S_destroyISC_EENSt9enable_ifIXsrSt6__and_IINSF_16__destroy_helperIT_E4typeEEE5valueEvE4typeERSE_PSK_"
 "_ZNSt16allocator_traitsISaISt13_Rb_tree_nodeISt4pairIKSsPSt6vectorIPN4Rcpp12SignedMethodI11VideoWriterEESaIS8_EEEEEE10deallocateERSE_PSD_y"
 "_ZNSt16allocator_traitsISaISt13_Rb_tree_nodeISt4pairIKSsPSt6vectorIPN4Rcpp12SignedMethodI11VideoWriterEESaIS8_EEEEEE12_S_constructISC_IS1_ISsSB_EEEENSt9enable_ifIXsrSt6__and_IINSF_18__construct_helperIT_IDpT0_EE4typeEEE5valueEvE4typeERSE_PSL_DpOSM_"
 "_ZNSt16allocator_traitsISaISt13_Rb_tree_nodeISt4pairIKSsPSt6vectorIPN4Rcpp12SignedMethodI11VideoWriterEESaIS8_EEEEEE7destroyISC_EEvRSE_PT_"
 "_ZNSt16allocator_traitsISaISt13_Rb_tree_nodeISt4pairIKSsPSt6vectorIPN4Rcpp12SignedMethodI11VideoWriterEESaIS8_EEEEEE8allocateERSE_y"
 "_ZNSt16allocator_traitsISaISt13_Rb_tree_nodeISt4pairIKSsPSt6vectorIPN4Rcpp12SignedMethodI11VideoWriterEESaIS8_EEEEEE9constructISC_IS1_ISsSB_EEEEDTcl12_S_constructfp_fp0_spcl7forwardIT0_Efp1_EEERSE_PT_DpOSI_"
 "_ZNSt16allocator_traitsISaISt13_Rb_tree_nodeISt4pairIKSsPSt6vectorIPN4Rcpp12SignedMethodI5ImageEESaIS8_EEEEEE10_S_destroyISC_EENSt9enable_ifIXsrSt6__and_IINSF_16__destroy_helperIT_E4typeEEE5valueEvE4typeERSE_PSK_"
 "_ZNSt16allocator_traitsISaISt13_Rb_tree_nodeISt4pairIKSsPSt6vectorIPN4Rcpp12SignedMethodI5ImageEESaIS8_EEEEEE10deallocateERSE_PSD_y"
 "_ZNSt16allocator_traitsISaISt13_Rb_tree_nodeISt4pairIKSsPSt6vectorIPN4Rcpp12SignedMethodI5ImageEESaIS8_EEEEEE12_S_constructISC_IS1_ISsSB_EEEENSt9enable_ifIXsrSt6__and_IINSF_18__construct_helperIT_IDpT0_EE4typeEEE5valueEvE4typeERSE_PSL_DpOSM_"
 "_ZNSt16allocator_traitsISaISt13_Rb_tree_nodeISt4pairIKSsPSt6vectorIPN4Rcpp12SignedMethodI5ImageEESaIS8_EEEEEE7destroyISC_EEvRSE_PT_"
 "_ZNSt16allocator_traitsISaISt13_Rb_tree_nodeISt4pairIKSsPSt6vectorIPN4Rcpp12SignedMethodI5ImageEESaIS8_EEEEEE8allocateERSE_y"
 "_ZNSt16allocator_traitsISaISt13_Rb_tree_nodeISt4pairIKSsPSt6vectorIPN4Rcpp12SignedMethodI5ImageEESaIS8_EEEEEE9constructISC_IS1_ISsSB_EEEEDTcl12_S_constructfp_fp0_spcl7forwardIT0_Efp1_EEERSE_PT_DpOSI_"
 "_ZNSt16allocator_traitsISaISt13_Rb_tree_nodeISt4pairIKSsPSt6vectorIPN4Rcpp12SignedMethodI5VideoEESaIS8_EEEEEE10_S_destroyISC_EENSt9enable_ifIXsrSt6__and_IINSF_16__destroy_helperIT_E4typeEEE5valueEvE4typeERSE_PSK_"
 "_ZNSt16allocator_traitsISaISt13_Rb_tree_nodeISt4pairIKSsPSt6vectorIPN4Rcpp12SignedMethodI5VideoEESaIS8_EEEEEE10deallocateERSE_PSD_y"
 "_ZNSt16allocator_traitsISaISt13_Rb_tree_nodeISt4pairIKSsPSt6vectorIPN4Rcpp12SignedMethodI5VideoEESaIS8_EEEEEE12_S_constructISC_IS1_ISsSB_EEEENSt9enable_ifIXsrSt6__and_IINSF_18__construct_helperIT_IDpT0_EE4typeEEE5valueEvE4typeERSE_PSL_DpOSM_"
 "_ZNSt16allocator_traitsISaISt13_Rb_tree_nodeISt4pairIKSsPSt6vectorIPN4Rcpp12SignedMethodI5VideoEESaIS8_EEEEEE7destroyISC_EEvRSE_PT_"
 "_ZNSt16allocator_traitsISaISt13_Rb_tree_nodeISt4pairIKSsPSt6vectorIPN4Rcpp12SignedMethodI5VideoEESaIS8_EEEEEE8allocateERSE_y"
 "_ZNSt16allocator_traitsISaISt13_Rb_tree_nodeISt4pairIKSsPSt6vectorIPN4Rcpp12SignedMethodI5VideoEESaIS8_EEEEEE9constructISC_IS1_ISsSB_EEEEDTcl12_S_constructfp_fp0_spcl7forwardIT0_Efp1_EEERSE_PT_DpOSI_"
 "_ZNSt16allocator_traitsISaISt13_Rb_tree_nodeISt4pairIKSsPSt6vectorIPN4Rcpp12SignedMethodI6StreamEESaIS8_EEEEEE10_S_destroyISC_EENSt9enable_ifIXsrSt6__and_IINSF_16__destroy_helperIT_E4typeEEE5valueEvE4typeERSE_PSK_"
 "_ZNSt16allocator_traitsISaISt13_Rb_tree_nodeISt4pairIKSsPSt6vectorIPN4Rcpp12SignedMethodI6StreamEESaIS8_EEEEEE10deallocateERSE_PSD_y"
 "_ZNSt16allocator_traitsISaISt13_Rb_tree_nodeISt4pairIKSsPSt6vectorIPN4Rcpp12SignedMethodI6StreamEESaIS8_EEEEEE12_S_constructISC_IS1_ISsSB_EEEENSt9enable_ifIXsrSt6__and_IINSF_18__construct_helperIT_IDpT0_EE4typeEEE5valueEvE4typeERSE_PSL_DpOSM_"
 "_ZNSt16allocator_traitsISaISt13_Rb_tree_nodeISt4pairIKSsPSt6vectorIPN4Rcpp12SignedMethodI6StreamEESaIS8_EEEEEE7destroyISC_EEvRSE_PT_"
 "_ZNSt16allocator_traitsISaISt13_Rb_tree_nodeISt4pairIKSsPSt6vectorIPN4Rcpp12SignedMethodI6StreamEESaIS8_EEEEEE8allocateERSE_y"
 "_ZNSt16allocator_traitsISaISt13_Rb_tree_nodeISt4pairIKSsPSt6vectorIPN4Rcpp12SignedMethodI6StreamEESaIS8_EEEEEE9constructISC_IS1_ISsSB_EEEEDTcl12_S_constructfp_fp0_spcl7forwardIT0_Efp1_EEERSE_PT_DpOSI_"
 "_ZNSt16allocator_traitsISaISt13_Rb_tree_nodeISt4pairIKSsSt3mapISsiSt4lessISsESaIS1_IS2_iEEEEEEE10_S_destroyIS9_EENSt9enable_ifIXsrSt6__and_IINSC_16__destroy_helperIT_E4typeEEE5valueEvE4typeERSB_PSH_"
 "_ZNSt16allocator_traitsISaISt13_Rb_tree_nodeISt4pairIKSsSt3mapISsiSt4lessISsESaIS1_IS2_iEEEEEEE10deallocateERSB_PSA_y"
 "_ZNSt16allocator_traitsISaISt13_Rb_tree_nodeISt4pairIKSsSt3mapISsiSt4lessISsESaIS1_IS2_iEEEEEEE7destroyIS9_EEvRSB_PT_"
 "_ZNSt16allocator_traitsISaISt6vectorIN2cv6Point_IiEESaIS3_EEEE10_S_destroyIS5_EENSt9enable_ifIXsrSt6__and_IINS7_16__destroy_helperIT_E4typeEEE5valueEvE4typeERS6_PSC_"
 "_ZNSt16allocator_traitsISaISt6vectorIN2cv6Point_IiEESaIS3_EEEE10deallocateERS6_PS5_y"
 "_ZNSt16allocator_traitsISaISt6vectorIN2cv6Point_IiEESaIS3_EEEE11_S_max_sizeIKS6_vEEyRT_i"
 "_ZNSt16allocator_traitsISaISt6vectorIN2cv6Point_IiEESaIS3_EEEE12_S_constructIS5_IRKS5_EEENSt9enable_ifIXsrSt6__and_IINS7_18__construct_helperIT_IDpT0_EE4typeEEE5valueEvE4typeERS6_PSE_DpOSF_"
 "_ZNSt16allocator_traitsISaISt6vectorIN2cv6Point_IiEESaIS3_EEEE7destroyIS5_EEvRS6_PT_"
 "_ZNSt16allocator_traitsISaISt6vectorIN2cv6Point_IiEESaIS3_EEEE8allocateERS6_y"
 "_ZNSt16allocator_traitsISaISt6vectorIN2cv6Point_IiEESaIS3_EEEE8max_sizeERKS6_"
 "_ZNSt16allocator_traitsISaISt6vectorIN2cv6Point_IiEESaIS3_EEEE9constructIS5_IRKS5_EEEDTcl12_S_constructfp_fp0_spcl7forwardIT0_Efp1_EEERS6_PT_DpOSB_"
 "_ZNSt17_Rb_tree_iteratorISt4pairIKSsPN4Rcpp10class_BaseEEEC1EPSt13_Rb_tree_nodeIS5_E"
 "_ZNSt17_Rb_tree_iteratorISt4pairIKSsPN4Rcpp10class_BaseEEEmmEv"
 "_ZNSt17_Rb_tree_iteratorISt4pairIKSsPN4Rcpp11CppFunctionEEEC1EPSt13_Rb_tree_nodeIS5_E"
 "_ZNSt17_Rb_tree_iteratorISt4pairIKSsPN4Rcpp11CppFunctionEEEmmEv"
 "_ZNSt17_Rb_tree_iteratorISt4pairIKSsPN4Rcpp11CppPropertyI11VideoWriterEEEEC1EPSt13_Rb_tree_nodeIS7_E"
 "_ZNSt17_Rb_tree_iteratorISt4pairIKSsPN4Rcpp11CppPropertyI11VideoWriterEEEEppEv"
 "_ZNSt17_Rb_tree_iteratorISt4pairIKSsPN4Rcpp11CppPropertyI5ImageEEEEC1EPSt13_Rb_tree_nodeIS7_E"
 "_ZNSt17_Rb_tree_iteratorISt4pairIKSsPN4Rcpp11CppPropertyI5ImageEEEEppEv"
 "_ZNSt17_Rb_tree_iteratorISt4pairIKSsPN4Rcpp11CppPropertyI5VideoEEEEC1EPSt13_Rb_tree_nodeIS7_E"
 "_ZNSt17_Rb_tree_iteratorISt4pairIKSsPN4Rcpp11CppPropertyI5VideoEEEEppEv"
 "_ZNSt17_Rb_tree_iteratorISt4pairIKSsPN4Rcpp11CppPropertyI6StreamEEEEC1EPSt13_Rb_tree_nodeIS7_E"
 "_ZNSt17_Rb_tree_iteratorISt4pairIKSsPN4Rcpp11CppPropertyI6StreamEEEEppEv"
 "_ZNSt17_Rb_tree_iteratorISt4pairIKSsPSt6vectorIPN4Rcpp12SignedMethodI11VideoWriterEESaIS7_EEEEC1EPSt13_Rb_tree_nodeISB_E"
 "_ZNSt17_Rb_tree_iteratorISt4pairIKSsPSt6vectorIPN4Rcpp12SignedMethodI11VideoWriterEESaIS7_EEEEmmEv"
 "_ZNSt17_Rb_tree_iteratorISt4pairIKSsPSt6vectorIPN4Rcpp12SignedMethodI11VideoWriterEESaIS7_EEEEppEv"
 "_ZNSt17_Rb_tree_iteratorISt4pairIKSsPSt6vectorIPN4Rcpp12SignedMethodI5ImageEESaIS7_EEEEC1EPSt13_Rb_tree_nodeISB_E"
 "_ZNSt17_Rb_tree_iteratorISt4pairIKSsPSt6vectorIPN4Rcpp12SignedMethodI5ImageEESaIS7_EEEEmmEv"
 "_ZNSt17_Rb_tree_iteratorISt4pairIKSsPSt6vectorIPN4Rcpp12SignedMethodI5ImageEESaIS7_EEEEppEv"
 "_ZNSt17_Rb_tree_iteratorISt4pairIKSsPSt6vectorIPN4Rcpp12SignedMethodI5VideoEESaIS7_EEEEC1EPSt13_Rb_tree_nodeISB_E"
 "_ZNSt17_Rb_tree_iteratorISt4pairIKSsPSt6vectorIPN4Rcpp12SignedMethodI5VideoEESaIS7_EEEEmmEv"
 "_ZNSt17_Rb_tree_iteratorISt4pairIKSsPSt6vectorIPN4Rcpp12SignedMethodI5VideoEESaIS7_EEEEppEv"
 "_ZNSt17_Rb_tree_iteratorISt4pairIKSsPSt6vectorIPN4Rcpp12SignedMethodI6StreamEESaIS7_EEEEC1EPSt13_Rb_tree_nodeISB_E"
 "_ZNSt17_Rb_tree_iteratorISt4pairIKSsPSt6vectorIPN4Rcpp12SignedMethodI6StreamEESaIS7_EEEEmmEv"
 "_ZNSt17_Rb_tree_iteratorISt4pairIKSsPSt6vectorIPN4Rcpp12SignedMethodI6StreamEESaIS7_EEEEppEv"
 "_ZNSt20__uninitialized_copyILb0EE13__uninit_copyIN9__gnu_cxx17__normal_iteratorIPKN2cv6Point_IiEESt6vectorIS6_SaIS6_EEEEPS6_EET0_T_SF_SE_"
 "_ZNSt20__uninitialized_copyILb0EE13__uninit_copyISt13move_iteratorIPN2cv6Point_IiEEES6_EET0_T_S9_S8_"
 "_ZNSt20__uninitialized_copyILb0EE13__uninit_copyISt13move_iteratorIPSt6vectorIN2cv6Point_IiEESaIS6_EEES9_EET0_T_SC_SB_"
 "_ZNSt20__uninitialized_copyILb1EE13__uninit_copyISt13move_iteratorIPPN4Rcpp12SignedMethodI11VideoWriterEEES8_EET0_T_SB_SA_"
 "_ZNSt20__uninitialized_copyILb1EE13__uninit_copyISt13move_iteratorIPPN4Rcpp12SignedMethodI5ImageEEES8_EET0_T_SB_SA_"
 "_ZNSt20__uninitialized_copyILb1EE13__uninit_copyISt13move_iteratorIPPN4Rcpp12SignedMethodI5VideoEEES8_EET0_T_SB_SA_"
 "_ZNSt20__uninitialized_copyILb1EE13__uninit_copyISt13move_iteratorIPPN4Rcpp12SignedMethodI6StreamEEES8_EET0_T_SB_SA_"
 "_ZNSt20__uninitialized_copyILb1EE13__uninit_copyISt13move_iteratorIPPN4Rcpp17SignedConstructorI11VideoWriterEEES8_EET0_T_SB_SA_"
 "_ZNSt20__uninitialized_copyILb1EE13__uninit_copyISt13move_iteratorIPPN4Rcpp17SignedConstructorI5ImageEEES8_EET0_T_SB_SA_"
 "_ZNSt20__uninitialized_copyILb1EE13__uninit_copyISt13move_iteratorIPPN4Rcpp17SignedConstructorI5VideoEEES8_EET0_T_SB_SA_"
 "_ZNSt20__uninitialized_copyILb1EE13__uninit_copyISt13move_iteratorIPPN4Rcpp17SignedConstructorI6StreamEEES8_EET0_T_SB_SA_"
 "_ZNSt27__uninitialized_default_n_1ILb0EE18__uninit_default_nIPN2cv3MatEyEEvT_T0_"
 "_ZNSt27__uninitialized_default_n_1ILb1EE18__uninit_default_nIPiyEEvT_T0_"
 "_ZNSt3mapISsiSt4lessISsESaISt4pairIKSsiEEED1Ev"
 "_ZNSt3mapISsPN4Rcpp10class_BaseESt4lessISsESaISt4pairIKSsS2_EEE3endEv"
 "_ZNSt3mapISsPN4Rcpp10class_BaseESt4lessISsESaISt4pairIKSsS2_EEE4findERS6_"
 "_ZNSt3mapISsPN4Rcpp10class_BaseESt4lessISsESaISt4pairIKSsS2_EEE6insertIS7_vEES5_ISt17_Rb_tree_iteratorIS7_EbEOT_"
 "_ZNSt3mapISsPN4Rcpp10class_BaseESt4lessISsESaISt4pairIKSsS2_EEEC1Ev"
 "_ZNSt3mapISsPN4Rcpp10class_BaseESt4lessISsESaISt4pairIKSsS2_EEED1Ev"
 "_ZNSt3mapISsPN4Rcpp11CppFunctionESt4lessISsESaISt4pairIKSsS2_EEE6insertIS7_vEES5_ISt17_Rb_tree_iteratorIS7_EbEOT_"
 "_ZNSt3mapISsPN4Rcpp11CppFunctionESt4lessISsESaISt4pairIKSsS2_EEEC1Ev"
 "_ZNSt3mapISsPN4Rcpp11CppFunctionESt4lessISsESaISt4pairIKSsS2_EEED1Ev"
 "_ZNSt3mapISsPN4Rcpp11CppPropertyI11VideoWriterEESt4lessISsESaISt4pairIKSsS4_EEE3endEv"
 "_ZNSt3mapISsPN4Rcpp11CppPropertyI11VideoWriterEESt4lessISsESaISt4pairIKSsS4_EEE4findERS8_"
 "_ZNSt3mapISsPN4Rcpp11CppPropertyI11VideoWriterEESt4lessISsESaISt4pairIKSsS4_EEE5beginEv"
 "_ZNSt3mapISsPN4Rcpp11CppPropertyI11VideoWriterEESt4lessISsESaISt4pairIKSsS4_EEEC1Ev"
 "_ZNSt3mapISsPN4Rcpp11CppPropertyI11VideoWriterEESt4lessISsESaISt4pairIKSsS4_EEED1Ev"
 "_ZNSt3mapISsPN4Rcpp11CppPropertyI5ImageEESt4lessISsESaISt4pairIKSsS4_EEE3endEv"
 "_ZNSt3mapISsPN4Rcpp11CppPropertyI5ImageEESt4lessISsESaISt4pairIKSsS4_EEE4findERS8_"
 "_ZNSt3mapISsPN4Rcpp11CppPropertyI5ImageEESt4lessISsESaISt4pairIKSsS4_EEE5beginEv"
 "_ZNSt3mapISsPN4Rcpp11CppPropertyI5ImageEESt4lessISsESaISt4pairIKSsS4_EEEC1Ev"
 "_ZNSt3mapISsPN4Rcpp11CppPropertyI5ImageEESt4lessISsESaISt4pairIKSsS4_EEED1Ev"
 "_ZNSt3mapISsPN4Rcpp11CppPropertyI5VideoEESt4lessISsESaISt4pairIKSsS4_EEE3endEv"
 "_ZNSt3mapISsPN4Rcpp11CppPropertyI5VideoEESt4lessISsESaISt4pairIKSsS4_EEE4findERS8_"
 "_ZNSt3mapISsPN4Rcpp11CppPropertyI5VideoEESt4lessISsESaISt4pairIKSsS4_EEE5beginEv"
 "_ZNSt3mapISsPN4Rcpp11CppPropertyI5VideoEESt4lessISsESaISt4pairIKSsS4_EEEC1Ev"
 "_ZNSt3mapISsPN4Rcpp11CppPropertyI5VideoEESt4lessISsESaISt4pairIKSsS4_EEED1Ev"
 "_ZNSt3mapISsPN4Rcpp11CppPropertyI6StreamEESt4lessISsESaISt4pairIKSsS4_EEE3endEv"
 "_ZNSt3mapISsPN4Rcpp11CppPropertyI6StreamEESt4lessISsESaISt4pairIKSsS4_EEE4findERS8_"
 "_ZNSt3mapISsPN4Rcpp11CppPropertyI6StreamEESt4lessISsESaISt4pairIKSsS4_EEE5beginEv"
 "_ZNSt3mapISsPN4Rcpp11CppPropertyI6StreamEESt4lessISsESaISt4pairIKSsS4_EEEC1Ev"
 "_ZNSt3mapISsPN4Rcpp11CppPropertyI6StreamEESt4lessISsESaISt4pairIKSsS4_EEED1Ev"
 "_ZNSt3mapISsPSt6vectorIPN4Rcpp12SignedMethodI11VideoWriterEESaIS5_EESt4lessISsESaISt4pairIKSsS8_EEE3endEv"
 "_ZNSt3mapISsPSt6vectorIPN4Rcpp12SignedMethodI11VideoWriterEESaIS5_EESt4lessISsESaISt4pairIKSsS8_EEE4findERSC_"
 "_ZNSt3mapISsPSt6vectorIPN4Rcpp12SignedMethodI11VideoWriterEESaIS5_EESt4lessISsESaISt4pairIKSsS8_EEE5beginEv"
 "_ZNSt3mapISsPSt6vectorIPN4Rcpp12SignedMethodI11VideoWriterEESaIS5_EESt4lessISsESaISt4pairIKSsS8_EEE6insertISB_ISsS8_EvEESB_ISt17_Rb_tree_iteratorISD_EbEOT_"
 "_ZNSt3mapISsPSt6vectorIPN4Rcpp12SignedMethodI11VideoWriterEESaIS5_EESt4lessISsESaISt4pairIKSsS8_EEEC1Ev"
 "_ZNSt3mapISsPSt6vectorIPN4Rcpp12SignedMethodI11VideoWriterEESaIS5_EESt4lessISsESaISt4pairIKSsS8_EEED1Ev"
 "_ZNSt3mapISsPSt6vectorIPN4Rcpp12SignedMethodI5ImageEESaIS5_EESt4lessISsESaISt4pairIKSsS8_EEE3endEv"
 "_ZNSt3mapISsPSt6vectorIPN4Rcpp12SignedMethodI5ImageEESaIS5_EESt4lessISsESaISt4pairIKSsS8_EEE4findERSC_"
 "_ZNSt3mapISsPSt6vectorIPN4Rcpp12SignedMethodI5ImageEESaIS5_EESt4lessISsESaISt4pairIKSsS8_EEE5beginEv"
 "_ZNSt3mapISsPSt6vectorIPN4Rcpp12SignedMethodI5ImageEESaIS5_EESt4lessISsESaISt4pairIKSsS8_EEE6insertISB_ISsS8_EvEESB_ISt17_Rb_tree_iteratorISD_EbEOT_"
 "_ZNSt3mapISsPSt6vectorIPN4Rcpp12SignedMethodI5ImageEESaIS5_EESt4lessISsESaISt4pairIKSsS8_EEEC1Ev"
 "_ZNSt3mapISsPSt6vectorIPN4Rcpp12SignedMethodI5ImageEESaIS5_EESt4lessISsESaISt4pairIKSsS8_EEED1Ev"
 "_ZNSt3mapISsPSt6vectorIPN4Rcpp12SignedMethodI5VideoEESaIS5_EESt4lessISsESaISt4pairIKSsS8_EEE3endEv"
 "_ZNSt3mapISsPSt6vectorIPN4Rcpp12SignedMethodI5VideoEESaIS5_EESt4lessISsESaISt4pairIKSsS8_EEE4findERSC_"
 "_ZNSt3mapISsPSt6vectorIPN4Rcpp12SignedMethodI5VideoEESaIS5_EESt4lessISsESaISt4pairIKSsS8_EEE5beginEv"
 "_ZNSt3mapISsPSt6vectorIPN4Rcpp12SignedMethodI5VideoEESaIS5_EESt4lessISsESaISt4pairIKSsS8_EEE6insertISB_ISsS8_EvEESB_ISt17_Rb_tree_iteratorISD_EbEOT_"
 "_ZNSt3mapISsPSt6vectorIPN4Rcpp12SignedMethodI5VideoEESaIS5_EESt4lessISsESaISt4pairIKSsS8_EEEC1Ev"
 "_ZNSt3mapISsPSt6vectorIPN4Rcpp12SignedMethodI5VideoEESaIS5_EESt4lessISsESaISt4pairIKSsS8_EEED1Ev"
 "_ZNSt3mapISsPSt6vectorIPN4Rcpp12SignedMethodI6StreamEESaIS5_EESt4lessISsESaISt4pairIKSsS8_EEE3endEv"
 "_ZNSt3mapISsPSt6vectorIPN4Rcpp12SignedMethodI6StreamEESaIS5_EESt4lessISsESaISt4pairIKSsS8_EEE4findERSC_"
 "_ZNSt3mapISsPSt6vectorIPN4Rcpp12SignedMethodI6StreamEESaIS5_EESt4lessISsESaISt4pairIKSsS8_EEE5beginEv"
 "_ZNSt3mapISsPSt6vectorIPN4Rcpp12SignedMethodI6StreamEESaIS5_EESt4lessISsESaISt4pairIKSsS8_EEE6insertISB_ISsS8_EvEESB_ISt17_Rb_tree_iteratorISD_EbEOT_"
 "_ZNSt3mapISsPSt6vectorIPN4Rcpp12SignedMethodI6StreamEESaIS5_EESt4lessISsESaISt4pairIKSsS8_EEEC1Ev"
 "_ZNSt3mapISsPSt6vectorIPN4Rcpp12SignedMethodI6StreamEESaIS5_EESt4lessISsESaISt4pairIKSsS8_EEED1Ev"
 "_ZNSt3mapISsS_ISsiSt4lessISsESaISt4pairIKSsiEEES1_SaIS2_IS3_S6_EEEC1Ev"
 "_ZNSt3mapISsS_ISsiSt4lessISsESaISt4pairIKSsiEEES1_SaIS2_IS3_S6_EEED1Ev"
 "_ZNSt4pairIKSsiED1Ev"
 "_ZNSt4pairIKSsPN4Rcpp10class_BaseEEC1EOS4_"
 "_ZNSt4pairIKSsPN4Rcpp10class_BaseEEC1IRPKcRS3_vEEOT_OT0_"
 "_ZNSt4pairIKSsPN4Rcpp10class_BaseEED1Ev"
 "_ZNSt4pairIKSsPN4Rcpp11CppFunctionEEC1EOS4_"
 "_ZNSt4pairIKSsPN4Rcpp11CppFunctionEEC1IRPKcRS3_vEEOT_OT0_"
 "_ZNSt4pairIKSsPN4Rcpp11CppFunctionEED1Ev"
 "_ZNSt4pairIKSsPN4Rcpp11CppPropertyI11VideoWriterEEED1Ev"
 "_ZNSt4pairIKSsPN4Rcpp11CppPropertyI5ImageEEED1Ev"
 "_ZNSt4pairIKSsPN4Rcpp11CppPropertyI5VideoEEED1Ev"
 "_ZNSt4pairIKSsPN4Rcpp11CppPropertyI6StreamEEED1Ev"
 "_ZNSt4pairIKSsPSt6vectorIPN4Rcpp12SignedMethodI11VideoWriterEESaIS6_EEEC1ISsS9_vEEOS_IT_T0_E"
 "_ZNSt4pairIKSsPSt6vectorIPN4Rcpp12SignedMethodI11VideoWriterEESaIS6_EEED1Ev"
 "_ZNSt4pairIKSsPSt6vectorIPN4Rcpp12SignedMethodI5ImageEESaIS6_EEEC1ISsS9_vEEOS_IT_T0_E"
 "_ZNSt4pairIKSsPSt6vectorIPN4Rcpp12SignedMethodI5ImageEESaIS6_EEED1Ev"
 "_ZNSt4pairIKSsPSt6vectorIPN4Rcpp12SignedMethodI5VideoEESaIS6_EEEC1ISsS9_vEEOS_IT_T0_E"
 "_ZNSt4pairIKSsPSt6vectorIPN4Rcpp12SignedMethodI5VideoEESaIS6_EEED1Ev"
 "_ZNSt4pairIKSsPSt6vectorIPN4Rcpp12SignedMethodI6StreamEESaIS6_EEEC1ISsS9_vEEOS_IT_T0_E"
 "_ZNSt4pairIKSsPSt6vectorIPN4Rcpp12SignedMethodI6StreamEESaIS6_EEED1Ev"
 "_ZNSt4pairIKSsSt3mapISsiSt4lessISsESaIS_IS0_iEEEED1Ev"
 "_ZNSt4pairIPSt18_Rb_tree_node_baseS1_EC1IRPSt13_Rb_tree_nodeIS_IKSsPN4Rcpp10class_BaseEEESC_vEEOT_OT0_"
 "_ZNSt4pairIPSt18_Rb_tree_node_baseS1_EC1IRPSt13_Rb_tree_nodeIS_IKSsPN4Rcpp11CppFunctionEEESC_vEEOT_OT0_"
 "_ZNSt4pairIPSt18_Rb_tree_node_baseS1_EC1IRPSt13_Rb_tree_nodeIS_IKSsPSt6vectorIPN4Rcpp12SignedMethodI11VideoWriterEESaISB_EEEESI_vEEOT_OT0_"
 "_ZNSt4pairIPSt18_Rb_tree_node_baseS1_EC1IRPSt13_Rb_tree_nodeIS_IKSsPSt6vectorIPN4Rcpp12SignedMethodI5ImageEESaISB_EEEESI_vEEOT_OT0_"
 "_ZNSt4pairIPSt18_Rb_tree_node_baseS1_EC1IRPSt13_Rb_tree_nodeIS_IKSsPSt6vectorIPN4Rcpp12SignedMethodI5VideoEESaISB_EEEESI_vEEOT_OT0_"
 "_ZNSt4pairIPSt18_Rb_tree_node_baseS1_EC1IRPSt13_Rb_tree_nodeIS_IKSsPSt6vectorIPN4Rcpp12SignedMethodI6StreamEESaISB_EEEESI_vEEOT_OT0_"
 "_ZNSt4pairIPSt18_Rb_tree_node_baseS1_EC1IRS1_vEEOT_RKS1_"
 "_ZNSt4pairISsPSt6vectorIPN4Rcpp12SignedMethodI11VideoWriterEESaIS5_EEEC1IRPKcS8_vEEOT_OT0_"
 "_ZNSt4pairISsPSt6vectorIPN4Rcpp12SignedMethodI11VideoWriterEESaIS5_EEED1Ev"
 "_ZNSt4pairISsPSt6vectorIPN4Rcpp12SignedMethodI5ImageEESaIS5_EEEC1IRPKcS8_vEEOT_OT0_"
 "_ZNSt4pairISsPSt6vectorIPN4Rcpp12SignedMethodI5ImageEESaIS5_EEED1Ev"
 "_ZNSt4pairISsPSt6vectorIPN4Rcpp12SignedMethodI5VideoEESaIS5_EEEC1IRPKcS8_vEEOT_OT0_"
 "_ZNSt4pairISsPSt6vectorIPN4Rcpp12SignedMethodI5VideoEESaIS5_EEED1Ev"
 "_ZNSt4pairISsPSt6vectorIPN4Rcpp12SignedMethodI6StreamEESaIS5_EEEC1IRPKcS8_vEEOT_OT0_"
 "_ZNSt4pairISsPSt6vectorIPN4Rcpp12SignedMethodI6StreamEESaIS5_EEED1Ev"
 "_ZNSt4pairISt17_Rb_tree_iteratorIS_IKSsPN4Rcpp10class_BaseEEEbEC1IS6_bvEEOT_OT0_"
 "_ZNSt4pairISt17_Rb_tree_iteratorIS_IKSsPN4Rcpp11CppFunctionEEEbEC1IS6_bvEEOT_OT0_"
 "_ZNSt4pairISt17_Rb_tree_iteratorIS_IKSsPSt6vectorIPN4Rcpp12SignedMethodI11VideoWriterEESaIS7_EEEEbEC1ISC_bvEEOT_OT0_"
 "_ZNSt4pairISt17_Rb_tree_iteratorIS_IKSsPSt6vectorIPN4Rcpp12SignedMethodI5ImageEESaIS7_EEEEbEC1ISC_bvEEOT_OT0_"
 "_ZNSt4pairISt17_Rb_tree_iteratorIS_IKSsPSt6vectorIPN4Rcpp12SignedMethodI5VideoEESaIS7_EEEEbEC1ISC_bvEEOT_OT0_"
 "_ZNSt4pairISt17_Rb_tree_iteratorIS_IKSsPSt6vectorIPN4Rcpp12SignedMethodI6StreamEESaIS7_EEEEbEC1ISC_bvEEOT_OT0_"
 "_ZNSt6vectorIiSaIiEE21_M_default_initializeEy"
 "_ZNSt6vectorIiSaIiEEC1Ev"
 "_ZNSt6vectorIiSaIiEEC1EyRKS0_"
 "_ZNSt6vectorIiSaIiEED1Ev"
 "_ZNSt6vectorIiSaIiEEixEy"
 "_ZNSt6vectorIN2cv3MatESaIS1_EE21_M_default_initializeEy"
 "_ZNSt6vectorIN2cv3MatESaIS1_EEC1Ev"
 "_ZNSt6vectorIN2cv3MatESaIS1_EEC1EyRKS2_"
 "_ZNSt6vectorIN2cv3MatESaIS1_EED1Ev"
 "_ZNSt6vectorIN2cv3MatESaIS1_EEixEy"
 "_ZNSt6vectorIN2cv3VecIiLi4EEESaIS2_EEC1Ev"
 "_ZNSt6vectorIN2cv3VecIiLi4EEESaIS2_EED1Ev"
 "_ZNSt6vectorIN2cv3VecIiLi4EEESaIS2_EEixEy"
 "_ZNSt6vectorIN2cv5Rect_IiEESaIS2_EEC1Ev"
 "_ZNSt6vectorIN2cv5Rect_IiEESaIS2_EED1Ev"
 "_ZNSt6vectorIN2cv5Rect_IiEESaIS2_EEixEy"
 "_ZNSt6vectorIN2cv6Point_IiEESaIS2_EE12emplace_backIIS2_EEEvDpOT_"
 "_ZNSt6vectorIN2cv6Point_IiEESaIS2_EE19_M_emplace_back_auxIIS2_EEEvDpOT_"
 "_ZNSt6vectorIN2cv6Point_IiEESaIS2_EE9push_backEOS2_"
 "_ZNSt6vectorIN2cv6Point_IiEESaIS2_EEC1EOS4_"
 "_ZNSt6vectorIN2cv6Point_IiEESaIS2_EEC1ERKS4_"
 "_ZNSt6vectorIN2cv6Point_IiEESaIS2_EEC1Ev"
 "_ZNSt6vectorIN2cv6Point_IiEESaIS2_EED1Ev"
 "_ZNSt6vectorIN2cv6Point_IiEESaIS2_EEixEy"
 "_ZNSt6vectorIN2cv8KeyPointESaIS1_EEC1Ev"
 "_ZNSt6vectorIN2cv8KeyPointESaIS1_EED1Ev"
 "_ZNSt6vectorIN2cv8KeyPointESaIS1_EEixEy"
 "_ZNSt6vectorIPN4Rcpp12SignedMethodI11VideoWriterEESaIS4_EE12emplace_backIIS4_EEEvDpOT_"
 "_ZNSt6vectorIPN4Rcpp12SignedMethodI11VideoWriterEESaIS4_EE19_M_emplace_back_auxIIS4_EEEvDpOT_"
 "_ZNSt6vectorIPN4Rcpp12SignedMethodI11VideoWriterEESaIS4_EE2atEy"
 "_ZNSt6vectorIPN4Rcpp12SignedMethodI11VideoWriterEESaIS4_EE5beginEv"
 "_ZNSt6vectorIPN4Rcpp12SignedMethodI11VideoWriterEESaIS4_EE9push_backEOS4_"
 "_ZNSt6vectorIPN4Rcpp12SignedMethodI11VideoWriterEESaIS4_EEC1Ev"
 "_ZNSt6vectorIPN4Rcpp12SignedMethodI11VideoWriterEESaIS4_EED1Ev"
 "_ZNSt6vectorIPN4Rcpp12SignedMethodI11VideoWriterEESaIS4_EEixEy"
 "_ZNSt6vectorIPN4Rcpp12SignedMethodI5ImageEESaIS4_EE12emplace_backIIS4_EEEvDpOT_"
 "_ZNSt6vectorIPN4Rcpp12SignedMethodI5ImageEESaIS4_EE19_M_emplace_back_auxIIS4_EEEvDpOT_"
 "_ZNSt6vectorIPN4Rcpp12SignedMethodI5ImageEESaIS4_EE2atEy"
 "_ZNSt6vectorIPN4Rcpp12SignedMethodI5ImageEESaIS4_EE5beginEv"
 "_ZNSt6vectorIPN4Rcpp12SignedMethodI5ImageEESaIS4_EE9push_backEOS4_"
 "_ZNSt6vectorIPN4Rcpp12SignedMethodI5ImageEESaIS4_EEC1Ev"
 "_ZNSt6vectorIPN4Rcpp12SignedMethodI5ImageEESaIS4_EED1Ev"
 "_ZNSt6vectorIPN4Rcpp12SignedMethodI5ImageEESaIS4_EEixEy"
 "_ZNSt6vectorIPN4Rcpp12SignedMethodI5VideoEESaIS4_EE12emplace_backIIS4_EEEvDpOT_"
 "_ZNSt6vectorIPN4Rcpp12SignedMethodI5VideoEESaIS4_EE19_M_emplace_back_auxIIS4_EEEvDpOT_"
 "_ZNSt6vectorIPN4Rcpp12SignedMethodI5VideoEESaIS4_EE2atEy"
 "_ZNSt6vectorIPN4Rcpp12SignedMethodI5VideoEESaIS4_EE5beginEv"
 "_ZNSt6vectorIPN4Rcpp12SignedMethodI5VideoEESaIS4_EE9push_backEOS4_"
 "_ZNSt6vectorIPN4Rcpp12SignedMethodI5VideoEESaIS4_EEC1Ev"
 "_ZNSt6vectorIPN4Rcpp12SignedMethodI5VideoEESaIS4_EED1Ev"
 "_ZNSt6vectorIPN4Rcpp12SignedMethodI5VideoEESaIS4_EEixEy"
 "_ZNSt6vectorIPN4Rcpp12SignedMethodI6StreamEESaIS4_EE12emplace_backIIS4_EEEvDpOT_"
 "_ZNSt6vectorIPN4Rcpp12SignedMethodI6StreamEESaIS4_EE19_M_emplace_back_auxIIS4_EEEvDpOT_"
 "_ZNSt6vectorIPN4Rcpp12SignedMethodI6StreamEESaIS4_EE2atEy"
 "_ZNSt6vectorIPN4Rcpp12SignedMethodI6StreamEESaIS4_EE5beginEv"
 "_ZNSt6vectorIPN4Rcpp12SignedMethodI6StreamEESaIS4_EE9push_backEOS4_"
 "_ZNSt6vectorIPN4Rcpp12SignedMethodI6StreamEESaIS4_EEC1Ev"
 "_ZNSt6vectorIPN4Rcpp12SignedMethodI6StreamEESaIS4_EED1Ev"
 "_ZNSt6vectorIPN4Rcpp12SignedMethodI6StreamEESaIS4_EEixEy"
 "_ZNSt6vectorIPN4Rcpp13SignedFactoryI11VideoWriterEESaIS4_EEC1Ev"
 "_ZNSt6vectorIPN4Rcpp13SignedFactoryI11VideoWriterEESaIS4_EED1Ev"
 "_ZNSt6vectorIPN4Rcpp13SignedFactoryI11VideoWriterEESaIS4_EEixEy"
 "_ZNSt6vectorIPN4Rcpp13SignedFactoryI5ImageEESaIS4_EEC1Ev"
 "_ZNSt6vectorIPN4Rcpp13SignedFactoryI5ImageEESaIS4_EED1Ev"
 "_ZNSt6vectorIPN4Rcpp13SignedFactoryI5ImageEESaIS4_EEixEy"
 "_ZNSt6vectorIPN4Rcpp13SignedFactoryI5VideoEESaIS4_EEC1Ev"
 "_ZNSt6vectorIPN4Rcpp13SignedFactoryI5VideoEESaIS4_EED1Ev"
 "_ZNSt6vectorIPN4Rcpp13SignedFactoryI5VideoEESaIS4_EEixEy"
 "_ZNSt6vectorIPN4Rcpp13SignedFactoryI6StreamEESaIS4_EEC1Ev"
 "_ZNSt6vectorIPN4Rcpp13SignedFactoryI6StreamEESaIS4_EED1Ev"
 "_ZNSt6vectorIPN4Rcpp13SignedFactoryI6StreamEESaIS4_EEixEy"
 "_ZNSt6vectorIPN4Rcpp17SignedConstructorI11VideoWriterEESaIS4_EE12emplace_backIIS4_EEEvDpOT_"
 "_ZNSt6vectorIPN4Rcpp17SignedConstructorI11VideoWriterEESaIS4_EE19_M_emplace_back_auxIIS4_EEEvDpOT_"
 "_ZNSt6vectorIPN4Rcpp17SignedConstructorI11VideoWriterEESaIS4_EE5beginEv"
 "_ZNSt6vectorIPN4Rcpp17SignedConstructorI11VideoWriterEESaIS4_EE9push_backEOS4_"
 "_ZNSt6vectorIPN4Rcpp17SignedConstructorI11VideoWriterEESaIS4_EEC1Ev"
 "_ZNSt6vectorIPN4Rcpp17SignedConstructorI11VideoWriterEESaIS4_EED1Ev"
 "_ZNSt6vectorIPN4Rcpp17SignedConstructorI11VideoWriterEESaIS4_EEixEy"
 "_ZNSt6vectorIPN4Rcpp17SignedConstructorI5ImageEESaIS4_EE12emplace_backIIS4_EEEvDpOT_"
 "_ZNSt6vectorIPN4Rcpp17SignedConstructorI5ImageEESaIS4_EE19_M_emplace_back_auxIIS4_EEEvDpOT_"
 "_ZNSt6vectorIPN4Rcpp17SignedConstructorI5ImageEESaIS4_EE5beginEv"
 "_ZNSt6vectorIPN4Rcpp17SignedConstructorI5ImageEESaIS4_EE9push_backEOS4_"
 "_ZNSt6vectorIPN4Rcpp17SignedConstructorI5ImageEESaIS4_EEC1Ev"
 "_ZNSt6vectorIPN4Rcpp17SignedConstructorI5ImageEESaIS4_EED1Ev"
 "_ZNSt6vectorIPN4Rcpp17SignedConstructorI5ImageEESaIS4_EEixEy"
 "_ZNSt6vectorIPN4Rcpp17SignedConstructorI5VideoEESaIS4_EE12emplace_backIIS4_EEEvDpOT_"
 "_ZNSt6vectorIPN4Rcpp17SignedConstructorI5VideoEESaIS4_EE19_M_emplace_back_auxIIS4_EEEvDpOT_"
 "_ZNSt6vectorIPN4Rcpp17SignedConstructorI5VideoEESaIS4_EE5beginEv"
 "_ZNSt6vectorIPN4Rcpp17SignedConstructorI5VideoEESaIS4_EE9push_backEOS4_"
 "_ZNSt6vectorIPN4Rcpp17SignedConstructorI5VideoEESaIS4_EEC1Ev"
 "_ZNSt6vectorIPN4Rcpp17SignedConstructorI5VideoEESaIS4_EED1Ev"
 "_ZNSt6vectorIPN4Rcpp17SignedConstructorI5VideoEESaIS4_EEixEy"
 "_ZNSt6vectorIPN4Rcpp17SignedConstructorI6StreamEESaIS4_EE12emplace_backIIS4_EEEvDpOT_"
 "_ZNSt6vectorIPN4Rcpp17SignedConstructorI6StreamEESaIS4_EE19_M_emplace_back_auxIIS4_EEEvDpOT_"
 "_ZNSt6vectorIPN4Rcpp17SignedConstructorI6StreamEESaIS4_EE5beginEv"
 "_ZNSt6vectorIPN4Rcpp17SignedConstructorI6StreamEESaIS4_EE9push_backEOS4_"
 "_ZNSt6vectorIPN4Rcpp17SignedConstructorI6StreamEESaIS4_EEC1Ev"
 "_ZNSt6vectorIPN4Rcpp17SignedConstructorI6StreamEESaIS4_EED1Ev"
 "_ZNSt6vectorIPN4Rcpp17SignedConstructorI6StreamEESaIS4_EEixEy"
 "_ZNSt6vectorIS_IN2cv6Point_IiEESaIS2_EESaIS4_EE19_M_emplace_back_auxIIRKS4_EEEvDpOT_"
 "_ZNSt6vectorIS_IN2cv6Point_IiEESaIS2_EESaIS4_EE9push_backERKS4_"
 "_ZNSt6vectorIS_IN2cv6Point_IiEESaIS2_EESaIS4_EEC1Ev"
 "_ZNSt6vectorIS_IN2cv6Point_IiEESaIS2_EESaIS4_EED1Ev"
 "_ZNSt6vectorIS_IN2cv6Point_IiEESaIS2_EESaIS4_EEixEy"
 "_ZNSt6vectorISsSaISsEEC1Ev"
 "_ZNSt6vectorISsSaISsEED1Ev"
 "_ZNSt8_Rb_treeISsSt4pairIKSsiESt10_Select1stIS2_ESt4lessISsESaIS2_EE11_M_put_nodeEPSt13_Rb_tree_nodeIS2_E"
 "_ZNSt8_Rb_treeISsSt4pairIKSsiESt10_Select1stIS2_ESt4lessISsESaIS2_EE13_Rb_tree_implIS6_Lb1EED1Ev"
 "_ZNSt8_Rb_treeISsSt4pairIKSsiESt10_Select1stIS2_ESt4lessISsESaIS2_EE15_M_destroy_nodeEPSt13_Rb_tree_nodeIS2_E"
 "_ZNSt8_Rb_treeISsSt4pairIKSsiESt10_Select1stIS2_ESt4lessISsESaIS2_EE21_M_get_Node_allocatorEv"
 "_ZNSt8_Rb_treeISsSt4pairIKSsiESt10_Select1stIS2_ESt4lessISsESaIS2_EE7_S_leftEPSt18_Rb_tree_node_base"
 "_ZNSt8_Rb_treeISsSt4pairIKSsiESt10_Select1stIS2_ESt4lessISsESaIS2_EE8_M_beginEv"
 "_ZNSt8_Rb_treeISsSt4pairIKSsiESt10_Select1stIS2_ESt4lessISsESaIS2_EE8_M_eraseEPSt13_Rb_tree_nodeIS2_E"
 "_ZNSt8_Rb_treeISsSt4pairIKSsiESt10_Select1stIS2_ESt4lessISsESaIS2_EE8_S_rightEPSt18_Rb_tree_node_base"
 "_ZNSt8_Rb_treeISsSt4pairIKSsiESt10_Select1stIS2_ESt4lessISsESaIS2_EED1Ev"
 "_ZNSt8_Rb_treeISsSt4pairIKSsPN4Rcpp10class_BaseEESt10_Select1stIS5_ESt4lessISsESaIS5_EE10_M_insert_IS5_EESt17_Rb_tree_iteratorIS5_EPSt18_Rb_tree_node_baseSG_OT_"
 "_ZNSt8_Rb_treeISsSt4pairIKSsPN4Rcpp10class_BaseEESt10_Select1stIS5_ESt4lessISsESaIS5_EE11_M_get_nodeEv"
 "_ZNSt8_Rb_treeISsSt4pairIKSsPN4Rcpp10class_BaseEESt10_Select1stIS5_ESt4lessISsESaIS5_EE11_M_put_nodeEPSt13_Rb_tree_nodeIS5_E"
 "_ZNSt8_Rb_treeISsSt4pairIKSsPN4Rcpp10class_BaseEESt10_Select1stIS5_ESt4lessISsESaIS5_EE13_Rb_tree_implIS9_Lb1EE13_M_initializeEv"
 "_ZNSt8_Rb_treeISsSt4pairIKSsPN4Rcpp10class_BaseEESt10_Select1stIS5_ESt4lessISsESaIS5_EE13_Rb_tree_implIS9_Lb1EEC1Ev"
 "_ZNSt8_Rb_treeISsSt4pairIKSsPN4Rcpp10class_BaseEESt10_Select1stIS5_ESt4lessISsESaIS5_EE13_Rb_tree_implIS9_Lb1EED1Ev"
 "_ZNSt8_Rb_treeISsSt4pairIKSsPN4Rcpp10class_BaseEESt10_Select1stIS5_ESt4lessISsESaIS5_EE14_M_create_nodeIIS5_EEEPSt13_Rb_tree_nodeIS5_EDpOT_"
 "_ZNSt8_Rb_treeISsSt4pairIKSsPN4Rcpp10class_BaseEESt10_Select1stIS5_ESt4lessISsESaIS5_EE14_M_lower_boundEPSt13_Rb_tree_nodeIS5_ESE_RS1_"
 "_ZNSt8_Rb_treeISsSt4pairIKSsPN4Rcpp10class_BaseEESt10_Select1stIS5_ESt4lessISsESaIS5_EE15_M_destroy_nodeEPSt13_Rb_tree_nodeIS5_E"
 "_ZNSt8_Rb_treeISsSt4pairIKSsPN4Rcpp10class_BaseEESt10_Select1stIS5_ESt4lessISsESaIS5_EE16_M_insert_uniqueIS5_EES0_ISt17_Rb_tree_iteratorIS5_EbEOT_"
 "_ZNSt8_Rb_treeISsSt4pairIKSsPN4Rcpp10class_BaseEESt10_Select1stIS5_ESt4lessISsESaIS5_EE21_M_get_Node_allocatorEv"
 "_ZNSt8_Rb_treeISsSt4pairIKSsPN4Rcpp10class_BaseEESt10_Select1stIS5_ESt4lessISsESaIS5_EE24_M_get_insert_unique_posERS1_"
 "_ZNSt8_Rb_treeISsSt4pairIKSsPN4Rcpp10class_BaseEESt10_Select1stIS5_ESt4lessISsESaIS5_EE3endEv"
 "_ZNSt8_Rb_treeISsSt4pairIKSsPN4Rcpp10class_BaseEESt10_Select1stIS5_ESt4lessISsESaIS5_EE4findERS1_"
 "_ZNSt8_Rb_treeISsSt4pairIKSsPN4Rcpp10class_BaseEESt10_Select1stIS5_ESt4lessISsESaIS5_EE5beginEv"
 "_ZNSt8_Rb_treeISsSt4pairIKSsPN4Rcpp10class_BaseEESt10_Select1stIS5_ESt4lessISsESaIS5_EE6_M_endEv"
 "_ZNSt8_Rb_treeISsSt4pairIKSsPN4Rcpp10class_BaseEESt10_Select1stIS5_ESt4lessISsESaIS5_EE6_S_keyEPKSt13_Rb_tree_nodeIS5_E"
 "_ZNSt8_Rb_treeISsSt4pairIKSsPN4Rcpp10class_BaseEESt10_Select1stIS5_ESt4lessISsESaIS5_EE6_S_keyEPKSt18_Rb_tree_node_base"
 "_ZNSt8_Rb_treeISsSt4pairIKSsPN4Rcpp10class_BaseEESt10_Select1stIS5_ESt4lessISsESaIS5_EE7_S_leftEPSt18_Rb_tree_node_base"
 "_ZNSt8_Rb_treeISsSt4pairIKSsPN4Rcpp10class_BaseEESt10_Select1stIS5_ESt4lessISsESaIS5_EE8_M_beginEv"
 "_ZNSt8_Rb_treeISsSt4pairIKSsPN4Rcpp10class_BaseEESt10_Select1stIS5_ESt4lessISsESaIS5_EE8_M_eraseEPSt13_Rb_tree_nodeIS5_E"
 "_ZNSt8_Rb_treeISsSt4pairIKSsPN4Rcpp10class_BaseEESt10_Select1stIS5_ESt4lessISsESaIS5_EE8_S_rightEPSt18_Rb_tree_node_base"
 "_ZNSt8_Rb_treeISsSt4pairIKSsPN4Rcpp10class_BaseEESt10_Select1stIS5_ESt4lessISsESaIS5_EE8_S_valueEPKSt13_Rb_tree_nodeIS5_E"
 "_ZNSt8_Rb_treeISsSt4pairIKSsPN4Rcpp10class_BaseEESt10_Select1stIS5_ESt4lessISsESaIS5_EE8_S_valueEPKSt18_Rb_tree_node_base"
 "_ZNSt8_Rb_treeISsSt4pairIKSsPN4Rcpp10class_BaseEESt10_Select1stIS5_ESt4lessISsESaIS5_EEC1Ev"
 "_ZNSt8_Rb_treeISsSt4pairIKSsPN4Rcpp10class_BaseEESt10_Select1stIS5_ESt4lessISsESaIS5_EED1Ev"
 "_ZNSt8_Rb_treeISsSt4pairIKSsPN4Rcpp11CppFunctionEESt10_Select1stIS5_ESt4lessISsESaIS5_EE10_M_insert_IS5_EESt17_Rb_tree_iteratorIS5_EPSt18_Rb_tree_node_baseSG_OT_"
 "_ZNSt8_Rb_treeISsSt4pairIKSsPN4Rcpp11CppFunctionEESt10_Select1stIS5_ESt4lessISsESaIS5_EE11_M_get_nodeEv"
 "_ZNSt8_Rb_treeISsSt4pairIKSsPN4Rcpp11CppFunctionEESt10_Select1stIS5_ESt4lessISsESaIS5_EE11_M_put_nodeEPSt13_Rb_tree_nodeIS5_E"
 "_ZNSt8_Rb_treeISsSt4pairIKSsPN4Rcpp11CppFunctionEESt10_Select1stIS5_ESt4lessISsESaIS5_EE13_Rb_tree_implIS9_Lb1EE13_M_initializeEv"
 "_ZNSt8_Rb_treeISsSt4pairIKSsPN4Rcpp11CppFunctionEESt10_Select1stIS5_ESt4lessISsESaIS5_EE13_Rb_tree_implIS9_Lb1EEC1Ev"
 "_ZNSt8_Rb_treeISsSt4pairIKSsPN4Rcpp11CppFunctionEESt10_Select1stIS5_ESt4lessISsESaIS5_EE13_Rb_tree_implIS9_Lb1EED1Ev"
 "_ZNSt8_Rb_treeISsSt4pairIKSsPN4Rcpp11CppFunctionEESt10_Select1stIS5_ESt4lessISsESaIS5_EE14_M_create_nodeIIS5_EEEPSt13_Rb_tree_nodeIS5_EDpOT_"
 "_ZNSt8_Rb_treeISsSt4pairIKSsPN4Rcpp11CppFunctionEESt10_Select1stIS5_ESt4lessISsESaIS5_EE15_M_destroy_nodeEPSt13_Rb_tree_nodeIS5_E"
 "_ZNSt8_Rb_treeISsSt4pairIKSsPN4Rcpp11CppFunctionEESt10_Select1stIS5_ESt4lessISsESaIS5_EE16_M_insert_uniqueIS5_EES0_ISt17_Rb_tree_iteratorIS5_EbEOT_"
 "_ZNSt8_Rb_treeISsSt4pairIKSsPN4Rcpp11CppFunctionEESt10_Select1stIS5_ESt4lessISsESaIS5_EE21_M_get_Node_allocatorEv"
 "_ZNSt8_Rb_treeISsSt4pairIKSsPN4Rcpp11CppFunctionEESt10_Select1stIS5_ESt4lessISsESaIS5_EE24_M_get_insert_unique_posERS1_"
 "_ZNSt8_Rb_treeISsSt4pairIKSsPN4Rcpp11CppFunctionEESt10_Select1stIS5_ESt4lessISsESaIS5_EE5beginEv"
 "_ZNSt8_Rb_treeISsSt4pairIKSsPN4Rcpp11CppFunctionEESt10_Select1stIS5_ESt4lessISsESaIS5_EE6_M_endEv"
 "_ZNSt8_Rb_treeISsSt4pairIKSsPN4Rcpp11CppFunctionEESt10_Select1stIS5_ESt4lessISsESaIS5_EE6_S_keyEPKSt13_Rb_tree_nodeIS5_E"
 "_ZNSt8_Rb_treeISsSt4pairIKSsPN4Rcpp11CppFunctionEESt10_Select1stIS5_ESt4lessISsESaIS5_EE6_S_keyEPKSt18_Rb_tree_node_base"
 "_ZNSt8_Rb_treeISsSt4pairIKSsPN4Rcpp11CppFunctionEESt10_Select1stIS5_ESt4lessISsESaIS5_EE7_S_leftEPSt18_Rb_tree_node_base"
 "_ZNSt8_Rb_treeISsSt4pairIKSsPN4Rcpp11CppFunctionEESt10_Select1stIS5_ESt4lessISsESaIS5_EE8_M_beginEv"
 "_ZNSt8_Rb_treeISsSt4pairIKSsPN4Rcpp11CppFunctionEESt10_Select1stIS5_ESt4lessISsESaIS5_EE8_M_eraseEPSt13_Rb_tree_nodeIS5_E"
 "_ZNSt8_Rb_treeISsSt4pairIKSsPN4Rcpp11CppFunctionEESt10_Select1stIS5_ESt4lessISsESaIS5_EE8_S_rightEPSt18_Rb_tree_node_base"
 "_ZNSt8_Rb_treeISsSt4pairIKSsPN4Rcpp11CppFunctionEESt10_Select1stIS5_ESt4lessISsESaIS5_EE8_S_valueEPKSt13_Rb_tree_nodeIS5_E"
 "_ZNSt8_Rb_treeISsSt4pairIKSsPN4Rcpp11CppFunctionEESt10_Select1stIS5_ESt4lessISsESaIS5_EE8_S_valueEPKSt18_Rb_tree_node_base"
 "_ZNSt8_Rb_treeISsSt4pairIKSsPN4Rcpp11CppFunctionEESt10_Select1stIS5_ESt4lessISsESaIS5_EEC1Ev"
 "_ZNSt8_Rb_treeISsSt4pairIKSsPN4Rcpp11CppFunctionEESt10_Select1stIS5_ESt4lessISsESaIS5_EED1Ev"
 "_ZNSt8_Rb_treeISsSt4pairIKSsPN4Rcpp11CppPropertyI11VideoWriterEEESt10_Select1stIS7_ESt4lessISsESaIS7_EE11_M_put_nodeEPSt13_Rb_tree_nodeIS7_E"
 "_ZNSt8_Rb_treeISsSt4pairIKSsPN4Rcpp11CppPropertyI11VideoWriterEEESt10_Select1stIS7_ESt4lessISsESaIS7_EE13_Rb_tree_implISB_Lb1EE13_M_initializeEv"
 "_ZNSt8_Rb_treeISsSt4pairIKSsPN4Rcpp11CppPropertyI11VideoWriterEEESt10_Select1stIS7_ESt4lessISsESaIS7_EE13_Rb_tree_implISB_Lb1EEC1Ev"
 "_ZNSt8_Rb_treeISsSt4pairIKSsPN4Rcpp11CppPropertyI11VideoWriterEEESt10_Select1stIS7_ESt4lessISsESaIS7_EE13_Rb_tree_implISB_Lb1EED1Ev"
 "_ZNSt8_Rb_treeISsSt4pairIKSsPN4Rcpp11CppPropertyI11VideoWriterEEESt10_Select1stIS7_ESt4lessISsESaIS7_EE14_M_lower_boundEPSt13_Rb_tree_nodeIS7_ESG_RS1_"
 "_ZNSt8_Rb_treeISsSt4pairIKSsPN4Rcpp11CppPropertyI11VideoWriterEEESt10_Select1stIS7_ESt4lessISsESaIS7_EE15_M_destroy_nodeEPSt13_Rb_tree_nodeIS7_E"
 "_ZNSt8_Rb_treeISsSt4pairIKSsPN4Rcpp11CppPropertyI11VideoWriterEEESt10_Select1stIS7_ESt4lessISsESaIS7_EE21_M_get_Node_allocatorEv"
 "_ZNSt8_Rb_treeISsSt4pairIKSsPN4Rcpp11CppPropertyI11VideoWriterEEESt10_Select1stIS7_ESt4lessISsESaIS7_EE3endEv"
 "_ZNSt8_Rb_treeISsSt4pairIKSsPN4Rcpp11CppPropertyI11VideoWriterEEESt10_Select1stIS7_ESt4lessISsESaIS7_EE4findERS1_"
 "_ZNSt8_Rb_treeISsSt4pairIKSsPN4Rcpp11CppPropertyI11VideoWriterEEESt10_Select1stIS7_ESt4lessISsESaIS7_EE5beginEv"
 "_ZNSt8_Rb_treeISsSt4pairIKSsPN4Rcpp11CppPropertyI11VideoWriterEEESt10_Select1stIS7_ESt4lessISsESaIS7_EE6_M_endEv"
 "_ZNSt8_Rb_treeISsSt4pairIKSsPN4Rcpp11CppPropertyI11VideoWriterEEESt10_Select1stIS7_ESt4lessISsESaIS7_EE6_S_keyEPKSt13_Rb_tree_nodeIS7_E"
 "_ZNSt8_Rb_treeISsSt4pairIKSsPN4Rcpp11CppPropertyI11VideoWriterEEESt10_Select1stIS7_ESt4lessISsESaIS7_EE6_S_keyEPKSt18_Rb_tree_node_base"
 "_ZNSt8_Rb_treeISsSt4pairIKSsPN4Rcpp11CppPropertyI11VideoWriterEEESt10_Select1stIS7_ESt4lessISsESaIS7_EE7_S_leftEPSt18_Rb_tree_node_base"
 "_ZNSt8_Rb_treeISsSt4pairIKSsPN4Rcpp11CppPropertyI11VideoWriterEEESt10_Select1stIS7_ESt4lessISsESaIS7_EE8_M_beginEv"
 "_ZNSt8_Rb_treeISsSt4pairIKSsPN4Rcpp11CppPropertyI11VideoWriterEEESt10_Select1stIS7_ESt4lessISsESaIS7_EE8_M_eraseEPSt13_Rb_tree_nodeIS7_E"
 "_ZNSt8_Rb_treeISsSt4pairIKSsPN4Rcpp11CppPropertyI11VideoWriterEEESt10_Select1stIS7_ESt4lessISsESaIS7_EE8_S_rightEPSt18_Rb_tree_node_base"
 "_ZNSt8_Rb_treeISsSt4pairIKSsPN4Rcpp11CppPropertyI11VideoWriterEEESt10_Select1stIS7_ESt4lessISsESaIS7_EE8_S_valueEPKSt13_Rb_tree_nodeIS7_E"
 "_ZNSt8_Rb_treeISsSt4pairIKSsPN4Rcpp11CppPropertyI11VideoWriterEEESt10_Select1stIS7_ESt4lessISsESaIS7_EE8_S_valueEPKSt18_Rb_tree_node_base"
 "_ZNSt8_Rb_treeISsSt4pairIKSsPN4Rcpp11CppPropertyI11VideoWriterEEESt10_Select1stIS7_ESt4lessISsESaIS7_EEC1Ev"
 "_ZNSt8_Rb_treeISsSt4pairIKSsPN4Rcpp11CppPropertyI11VideoWriterEEESt10_Select1stIS7_ESt4lessISsESaIS7_EED1Ev"
 "_ZNSt8_Rb_treeISsSt4pairIKSsPN4Rcpp11CppPropertyI5ImageEEESt10_Select1stIS7_ESt4lessISsESaIS7_EE11_M_put_nodeEPSt13_Rb_tree_nodeIS7_E"
 "_ZNSt8_Rb_treeISsSt4pairIKSsPN4Rcpp11CppPropertyI5ImageEEESt10_Select1stIS7_ESt4lessISsESaIS7_EE13_Rb_tree_implISB_Lb1EE13_M_initializeEv"
 "_ZNSt8_Rb_treeISsSt4pairIKSsPN4Rcpp11CppPropertyI5ImageEEESt10_Select1stIS7_ESt4lessISsESaIS7_EE13_Rb_tree_implISB_Lb1EEC1Ev"
 "_ZNSt8_Rb_treeISsSt4pairIKSsPN4Rcpp11CppPropertyI5ImageEEESt10_Select1stIS7_ESt4lessISsESaIS7_EE13_Rb_tree_implISB_Lb1EED1Ev"
 "_ZNSt8_Rb_treeISsSt4pairIKSsPN4Rcpp11CppPropertyI5ImageEEESt10_Select1stIS7_ESt4lessISsESaIS7_EE14_M_lower_boundEPSt13_Rb_tree_nodeIS7_ESG_RS1_"
 "_ZNSt8_Rb_treeISsSt4pairIKSsPN4Rcpp11CppPropertyI5ImageEEESt10_Select1stIS7_ESt4lessISsESaIS7_EE15_M_destroy_nodeEPSt13_Rb_tree_nodeIS7_E"
 "_ZNSt8_Rb_treeISsSt4pairIKSsPN4Rcpp11CppPropertyI5ImageEEESt10_Select1stIS7_ESt4lessISsESaIS7_EE21_M_get_Node_allocatorEv"
 "_ZNSt8_Rb_treeISsSt4pairIKSsPN4Rcpp11CppPropertyI5ImageEEESt10_Select1stIS7_ESt4lessISsESaIS7_EE3endEv"
 "_ZNSt8_Rb_treeISsSt4pairIKSsPN4Rcpp11CppPropertyI5ImageEEESt10_Select1stIS7_ESt4lessISsESaIS7_EE4findERS1_"
 "_ZNSt8_Rb_treeISsSt4pairIKSsPN4Rcpp11CppPropertyI5ImageEEESt10_Select1stIS7_ESt4lessISsESaIS7_EE5beginEv"
 "_ZNSt8_Rb_treeISsSt4pairIKSsPN4Rcpp11CppPropertyI5ImageEEESt10_Select1stIS7_ESt4lessISsESaIS7_EE6_M_endEv"
 "_ZNSt8_Rb_treeISsSt4pairIKSsPN4Rcpp11CppPropertyI5ImageEEESt10_Select1stIS7_ESt4lessISsESaIS7_EE6_S_keyEPKSt13_Rb_tree_nodeIS7_E"
 "_ZNSt8_Rb_treeISsSt4pairIKSsPN4Rcpp11CppPropertyI5ImageEEESt10_Select1stIS7_ESt4lessISsESaIS7_EE6_S_keyEPKSt18_Rb_tree_node_base"
 "_ZNSt8_Rb_treeISsSt4pairIKSsPN4Rcpp11CppPropertyI5ImageEEESt10_Select1stIS7_ESt4lessISsESaIS7_EE7_S_leftEPSt18_Rb_tree_node_base"
 "_ZNSt8_Rb_treeISsSt4pairIKSsPN4Rcpp11CppPropertyI5ImageEEESt10_Select1stIS7_ESt4lessISsESaIS7_EE8_M_beginEv"
 "_ZNSt8_Rb_treeISsSt4pairIKSsPN4Rcpp11CppPropertyI5ImageEEESt10_Select1stIS7_ESt4lessISsESaIS7_EE8_M_eraseEPSt13_Rb_tree_nodeIS7_E"
 "_ZNSt8_Rb_treeISsSt4pairIKSsPN4Rcpp11CppPropertyI5ImageEEESt10_Select1stIS7_ESt4lessISsESaIS7_EE8_S_rightEPSt18_Rb_tree_node_base"
 "_ZNSt8_Rb_treeISsSt4pairIKSsPN4Rcpp11CppPropertyI5ImageEEESt10_Select1stIS7_ESt4lessISsESaIS7_EE8_S_valueEPKSt13_Rb_tree_nodeIS7_E"
 "_ZNSt8_Rb_treeISsSt4pairIKSsPN4Rcpp11CppPropertyI5ImageEEESt10_Select1stIS7_ESt4lessISsESaIS7_EE8_S_valueEPKSt18_Rb_tree_node_base"
 "_ZNSt8_Rb_treeISsSt4pairIKSsPN4Rcpp11CppPropertyI5ImageEEESt10_Select1stIS7_ESt4lessISsESaIS7_EEC1Ev"
 "_ZNSt8_Rb_treeISsSt4pairIKSsPN4Rcpp11CppPropertyI5ImageEEESt10_Select1stIS7_ESt4lessISsESaIS7_EED1Ev"
 "_ZNSt8_Rb_treeISsSt4pairIKSsPN4Rcpp11CppPropertyI5VideoEEESt10_Select1stIS7_ESt4lessISsESaIS7_EE11_M_put_nodeEPSt13_Rb_tree_nodeIS7_E"
 "_ZNSt8_Rb_treeISsSt4pairIKSsPN4Rcpp11CppPropertyI5VideoEEESt10_Select1stIS7_ESt4lessISsESaIS7_EE13_Rb_tree_implISB_Lb1EE13_M_initializeEv"
 "_ZNSt8_Rb_treeISsSt4pairIKSsPN4Rcpp11CppPropertyI5VideoEEESt10_Select1stIS7_ESt4lessISsESaIS7_EE13_Rb_tree_implISB_Lb1EEC1Ev"
 "_ZNSt8_Rb_treeISsSt4pairIKSsPN4Rcpp11CppPropertyI5VideoEEESt10_Select1stIS7_ESt4lessISsESaIS7_EE13_Rb_tree_implISB_Lb1EED1Ev"
 "_ZNSt8_Rb_treeISsSt4pairIKSsPN4Rcpp11CppPropertyI5VideoEEESt10_Select1stIS7_ESt4lessISsESaIS7_EE14_M_lower_boundEPSt13_Rb_tree_nodeIS7_ESG_RS1_"
 "_ZNSt8_Rb_treeISsSt4pairIKSsPN4Rcpp11CppPropertyI5VideoEEESt10_Select1stIS7_ESt4lessISsESaIS7_EE15_M_destroy_nodeEPSt13_Rb_tree_nodeIS7_E"
 "_ZNSt8_Rb_treeISsSt4pairIKSsPN4Rcpp11CppPropertyI5VideoEEESt10_Select1stIS7_ESt4lessISsESaIS7_EE21_M_get_Node_allocatorEv"
 "_ZNSt8_Rb_treeISsSt4pairIKSsPN4Rcpp11CppPropertyI5VideoEEESt10_Select1stIS7_ESt4lessISsESaIS7_EE3endEv"
 "_ZNSt8_Rb_treeISsSt4pairIKSsPN4Rcpp11CppPropertyI5VideoEEESt10_Select1stIS7_ESt4lessISsESaIS7_EE4findERS1_"
 "_ZNSt8_Rb_treeISsSt4pairIKSsPN4Rcpp11CppPropertyI5VideoEEESt10_Select1stIS7_ESt4lessISsESaIS7_EE5beginEv"
 "_ZNSt8_Rb_treeISsSt4pairIKSsPN4Rcpp11CppPropertyI5VideoEEESt10_Select1stIS7_ESt4lessISsESaIS7_EE6_M_endEv"
 "_ZNSt8_Rb_treeISsSt4pairIKSsPN4Rcpp11CppPropertyI5VideoEEESt10_Select1stIS7_ESt4lessISsESaIS7_EE6_S_keyEPKSt13_Rb_tree_nodeIS7_E"
 "_ZNSt8_Rb_treeISsSt4pairIKSsPN4Rcpp11CppPropertyI5VideoEEESt10_Select1stIS7_ESt4lessISsESaIS7_EE6_S_keyEPKSt18_Rb_tree_node_base"
 "_ZNSt8_Rb_treeISsSt4pairIKSsPN4Rcpp11CppPropertyI5VideoEEESt10_Select1stIS7_ESt4lessISsESaIS7_EE7_S_leftEPSt18_Rb_tree_node_base"
 "_ZNSt8_Rb_treeISsSt4pairIKSsPN4Rcpp11CppPropertyI5VideoEEESt10_Select1stIS7_ESt4lessISsESaIS7_EE8_M_beginEv"
 "_ZNSt8_Rb_treeISsSt4pairIKSsPN4Rcpp11CppPropertyI5VideoEEESt10_Select1stIS7_ESt4lessISsESaIS7_EE8_M_eraseEPSt13_Rb_tree_nodeIS7_E"
 "_ZNSt8_Rb_treeISsSt4pairIKSsPN4Rcpp11CppPropertyI5VideoEEESt10_Select1stIS7_ESt4lessISsESaIS7_EE8_S_rightEPSt18_Rb_tree_node_base"
 "_ZNSt8_Rb_treeISsSt4pairIKSsPN4Rcpp11CppPropertyI5VideoEEESt10_Select1stIS7_ESt4lessISsESaIS7_EE8_S_valueEPKSt13_Rb_tree_nodeIS7_E"
 "_ZNSt8_Rb_treeISsSt4pairIKSsPN4Rcpp11CppPropertyI5VideoEEESt10_Select1stIS7_ESt4lessISsESaIS7_EE8_S_valueEPKSt18_Rb_tree_node_base"
 "_ZNSt8_Rb_treeISsSt4pairIKSsPN4Rcpp11CppPropertyI5VideoEEESt10_Select1stIS7_ESt4lessISsESaIS7_EEC1Ev"
 "_ZNSt8_Rb_treeISsSt4pairIKSsPN4Rcpp11CppPropertyI5VideoEEESt10_Select1stIS7_ESt4lessISsESaIS7_EED1Ev"
 "_ZNSt8_Rb_treeISsSt4pairIKSsPN4Rcpp11CppPropertyI6StreamEEESt10_Select1stIS7_ESt4lessISsESaIS7_EE11_M_put_nodeEPSt13_Rb_tree_nodeIS7_E"
 "_ZNSt8_Rb_treeISsSt4pairIKSsPN4Rcpp11CppPropertyI6StreamEEESt10_Select1stIS7_ESt4lessISsESaIS7_EE13_Rb_tree_implISB_Lb1EE13_M_initializeEv"
 "_ZNSt8_Rb_treeISsSt4pairIKSsPN4Rcpp11CppPropertyI6StreamEEESt10_Select1stIS7_ESt4lessISsESaIS7_EE13_Rb_tree_implISB_Lb1EEC1Ev"
 "_ZNSt8_Rb_treeISsSt4pairIKSsPN4Rcpp11CppPropertyI6StreamEEESt10_Select1stIS7_ESt4lessISsESaIS7_EE13_Rb_tree_implISB_Lb1EED1Ev"
 "_ZNSt8_Rb_treeISsSt4pairIKSsPN4Rcpp11CppPropertyI6StreamEEESt10_Select1stIS7_ESt4lessISsESaIS7_EE14_M_lower_boundEPSt13_Rb_tree_nodeIS7_ESG_RS1_"
 "_ZNSt8_Rb_treeISsSt4pairIKSsPN4Rcpp11CppPropertyI6StreamEEESt10_Select1stIS7_ESt4lessISsESaIS7_EE15_M_destroy_nodeEPSt13_Rb_tree_nodeIS7_E"
 "_ZNSt8_Rb_treeISsSt4pairIKSsPN4Rcpp11CppPropertyI6StreamEEESt10_Select1stIS7_ESt4lessISsESaIS7_EE21_M_get_Node_allocatorEv"
 "_ZNSt8_Rb_treeISsSt4pairIKSsPN4Rcpp11CppPropertyI6StreamEEESt10_Select1stIS7_ESt4lessISsESaIS7_EE3endEv"
 "_ZNSt8_Rb_treeISsSt4pairIKSsPN4Rcpp11CppPropertyI6StreamEEESt10_Select1stIS7_ESt4lessISsESaIS7_EE4findERS1_"
 "_ZNSt8_Rb_treeISsSt4pairIKSsPN4Rcpp11CppPropertyI6StreamEEESt10_Select1stIS7_ESt4lessISsESaIS7_EE5beginEv"
 "_ZNSt8_Rb_treeISsSt4pairIKSsPN4Rcpp11CppPropertyI6StreamEEESt10_Select1stIS7_ESt4lessISsESaIS7_EE6_M_endEv"
 "_ZNSt8_Rb_treeISsSt4pairIKSsPN4Rcpp11CppPropertyI6StreamEEESt10_Select1stIS7_ESt4lessISsESaIS7_EE6_S_keyEPKSt13_Rb_tree_nodeIS7_E"
 "_ZNSt8_Rb_treeISsSt4pairIKSsPN4Rcpp11CppPropertyI6StreamEEESt10_Select1stIS7_ESt4lessISsESaIS7_EE6_S_keyEPKSt18_Rb_tree_node_base"
 "_ZNSt8_Rb_treeISsSt4pairIKSsPN4Rcpp11CppPropertyI6StreamEEESt10_Select1stIS7_ESt4lessISsESaIS7_EE7_S_leftEPSt18_Rb_tree_node_base"
 "_ZNSt8_Rb_treeISsSt4pairIKSsPN4Rcpp11CppPropertyI6StreamEEESt10_Select1stIS7_ESt4lessISsESaIS7_EE8_M_beginEv"
 "_ZNSt8_Rb_treeISsSt4pairIKSsPN4Rcpp11CppPropertyI6StreamEEESt10_Select1stIS7_ESt4lessISsESaIS7_EE8_M_eraseEPSt13_Rb_tree_nodeIS7_E"
 "_ZNSt8_Rb_treeISsSt4pairIKSsPN4Rcpp11CppPropertyI6StreamEEESt10_Select1stIS7_ESt4lessISsESaIS7_EE8_S_rightEPSt18_Rb_tree_node_base"
 "_ZNSt8_Rb_treeISsSt4pairIKSsPN4Rcpp11CppPropertyI6StreamEEESt10_Select1stIS7_ESt4lessISsESaIS7_EE8_S_valueEPKSt13_Rb_tree_nodeIS7_E"
 "_ZNSt8_Rb_treeISsSt4pairIKSsPN4Rcpp11CppPropertyI6StreamEEESt10_Select1stIS7_ESt4lessISsESaIS7_EE8_S_valueEPKSt18_Rb_tree_node_base"
 "_ZNSt8_Rb_treeISsSt4pairIKSsPN4Rcpp11CppPropertyI6StreamEEESt10_Select1stIS7_ESt4lessISsESaIS7_EEC1Ev"
 "_ZNSt8_Rb_treeISsSt4pairIKSsPN4Rcpp11CppPropertyI6StreamEEESt10_Select1stIS7_ESt4lessISsESaIS7_EED1Ev"
 "_ZNSt8_Rb_treeISsSt4pairIKSsPSt6vectorIPN4Rcpp12SignedMethodI11VideoWriterEESaIS7_EEESt10_Select1stISB_ESt4lessISsESaISB_EE10_M_insert_IS0_ISsSA_EEESt17_Rb_tree_iteratorISB_EPSt18_Rb_tree_node_baseSN_OT_"
 "_ZNSt8_Rb_treeISsSt4pairIKSsPSt6vectorIPN4Rcpp12SignedMethodI11VideoWriterEESaIS7_EEESt10_Select1stISB_ESt4lessISsESaISB_EE11_M_get_nodeEv"
 "_ZNSt8_Rb_treeISsSt4pairIKSsPSt6vectorIPN4Rcpp12SignedMethodI11VideoWriterEESaIS7_EEESt10_Select1stISB_ESt4lessISsESaISB_EE11_M_put_nodeEPSt13_Rb_tree_nodeISB_E"
 "_ZNSt8_Rb_treeISsSt4pairIKSsPSt6vectorIPN4Rcpp12SignedMethodI11VideoWriterEESaIS7_EEESt10_Select1stISB_ESt4lessISsESaISB_EE13_Rb_tree_implISF_Lb1EE13_M_initializeEv"
 "_ZNSt8_Rb_treeISsSt4pairIKSsPSt6vectorIPN4Rcpp12SignedMethodI11VideoWriterEESaIS7_EEESt10_Select1stISB_ESt4lessISsESaISB_EE13_Rb_tree_implISF_Lb1EEC1Ev"
 "_ZNSt8_Rb_treeISsSt4pairIKSsPSt6vectorIPN4Rcpp12SignedMethodI11VideoWriterEESaIS7_EEESt10_Select1stISB_ESt4lessISsESaISB_EE13_Rb_tree_implISF_Lb1EED1Ev"
 "_ZNSt8_Rb_treeISsSt4pairIKSsPSt6vectorIPN4Rcpp12SignedMethodI11VideoWriterEESaIS7_EEESt10_Select1stISB_ESt4lessISsESaISB_EE14_M_create_nodeIIS0_ISsSA_EEEEPSt13_Rb_tree_nodeISB_EDpOT_"
 "_ZNSt8_Rb_treeISsSt4pairIKSsPSt6vectorIPN4Rcpp12SignedMethodI11VideoWriterEESaIS7_EEESt10_Select1stISB_ESt4lessISsESaISB_EE14_M_lower_boundEPSt13_Rb_tree_nodeISB_ESK_RS1_"
 "_ZNSt8_Rb_treeISsSt4pairIKSsPSt6vectorIPN4Rcpp12SignedMethodI11VideoWriterEESaIS7_EEESt10_Select1stISB_ESt4lessISsESaISB_EE15_M_destroy_nodeEPSt13_Rb_tree_nodeISB_E"
 "_ZNSt8_Rb_treeISsSt4pairIKSsPSt6vectorIPN4Rcpp12SignedMethodI11VideoWriterEESaIS7_EEESt10_Select1stISB_ESt4lessISsESaISB_EE16_M_insert_uniqueIS0_ISsSA_EEES0_ISt17_Rb_tree_iteratorISB_EbEOT_"
 "_ZNSt8_Rb_treeISsSt4pairIKSsPSt6vectorIPN4Rcpp12SignedMethodI11VideoWriterEESaIS7_EEESt10_Select1stISB_ESt4lessISsESaISB_EE21_M_get_Node_allocatorEv"
 "_ZNSt8_Rb_treeISsSt4pairIKSsPSt6vectorIPN4Rcpp12SignedMethodI11VideoWriterEESaIS7_EEESt10_Select1stISB_ESt4lessISsESaISB_EE24_M_get_insert_unique_posERS1_"
 "_ZNSt8_Rb_treeISsSt4pairIKSsPSt6vectorIPN4Rcpp12SignedMethodI11VideoWriterEESaIS7_EEESt10_Select1stISB_ESt4lessISsESaISB_EE3endEv"
 "_ZNSt8_Rb_treeISsSt4pairIKSsPSt6vectorIPN4Rcpp12SignedMethodI11VideoWriterEESaIS7_EEESt10_Select1stISB_ESt4lessISsESaISB_EE4findERS1_"
 "_ZNSt8_Rb_treeISsSt4pairIKSsPSt6vectorIPN4Rcpp12SignedMethodI11VideoWriterEESaIS7_EEESt10_Select1stISB_ESt4lessISsESaISB_EE5beginEv"
 "_ZNSt8_Rb_treeISsSt4pairIKSsPSt6vectorIPN4Rcpp12SignedMethodI11VideoWriterEESaIS7_EEESt10_Select1stISB_ESt4lessISsESaISB_EE6_M_endEv"
 "_ZNSt8_Rb_treeISsSt4pairIKSsPSt6vectorIPN4Rcpp12SignedMethodI11VideoWriterEESaIS7_EEESt10_Select1stISB_ESt4lessISsESaISB_EE6_S_keyEPKSt13_Rb_tree_nodeISB_E"
 "_ZNSt8_Rb_treeISsSt4pairIKSsPSt6vectorIPN4Rcpp12SignedMethodI11VideoWriterEESaIS7_EEESt10_Select1stISB_ESt4lessISsESaISB_EE6_S_keyEPKSt18_Rb_tree_node_base"
 "_ZNSt8_Rb_treeISsSt4pairIKSsPSt6vectorIPN4Rcpp12SignedMethodI11VideoWriterEESaIS7_EEESt10_Select1stISB_ESt4lessISsESaISB_EE7_S_leftEPSt18_Rb_tree_node_base"
 "_ZNSt8_Rb_treeISsSt4pairIKSsPSt6vectorIPN4Rcpp12SignedMethodI11VideoWriterEESaIS7_EEESt10_Select1stISB_ESt4lessISsESaISB_EE8_M_beginEv"
 "_ZNSt8_Rb_treeISsSt4pairIKSsPSt6vectorIPN4Rcpp12SignedMethodI11VideoWriterEESaIS7_EEESt10_Select1stISB_ESt4lessISsESaISB_EE8_M_eraseEPSt13_Rb_tree_nodeISB_E"
 "_ZNSt8_Rb_treeISsSt4pairIKSsPSt6vectorIPN4Rcpp12SignedMethodI11VideoWriterEESaIS7_EEESt10_Select1stISB_ESt4lessISsESaISB_EE8_S_rightEPSt18_Rb_tree_node_base"
 "_ZNSt8_Rb_treeISsSt4pairIKSsPSt6vectorIPN4Rcpp12SignedMethodI11VideoWriterEESaIS7_EEESt10_Select1stISB_ESt4lessISsESaISB_EE8_S_valueEPKSt13_Rb_tree_nodeISB_E"
 "_ZNSt8_Rb_treeISsSt4pairIKSsPSt6vectorIPN4Rcpp12SignedMethodI11VideoWriterEESaIS7_EEESt10_Select1stISB_ESt4lessISsESaISB_EE8_S_valueEPKSt18_Rb_tree_node_base"
 "_ZNSt8_Rb_treeISsSt4pairIKSsPSt6vectorIPN4Rcpp12SignedMethodI11VideoWriterEESaIS7_EEESt10_Select1stISB_ESt4lessISsESaISB_EEC1Ev"
 "_ZNSt8_Rb_treeISsSt4pairIKSsPSt6vectorIPN4Rcpp12SignedMethodI11VideoWriterEESaIS7_EEESt10_Select1stISB_ESt4lessISsESaISB_EED1Ev"
 "_ZNSt8_Rb_treeISsSt4pairIKSsPSt6vectorIPN4Rcpp12SignedMethodI5ImageEESaIS7_EEESt10_Select1stISB_ESt4lessISsESaISB_EE10_M_insert_IS0_ISsSA_EEESt17_Rb_tree_iteratorISB_EPSt18_Rb_tree_node_baseSN_OT_"
 "_ZNSt8_Rb_treeISsSt4pairIKSsPSt6vectorIPN4Rcpp12SignedMethodI5ImageEESaIS7_EEESt10_Select1stISB_ESt4lessISsESaISB_EE11_M_get_nodeEv"
 "_ZNSt8_Rb_treeISsSt4pairIKSsPSt6vectorIPN4Rcpp12SignedMethodI5ImageEESaIS7_EEESt10_Select1stISB_ESt4lessISsESaISB_EE11_M_put_nodeEPSt13_Rb_tree_nodeISB_E"
 "_ZNSt8_Rb_treeISsSt4pairIKSsPSt6vectorIPN4Rcpp12SignedMethodI5ImageEESaIS7_EEESt10_Select1stISB_ESt4lessISsESaISB_EE13_Rb_tree_implISF_Lb1EE13_M_initializeEv"
 "_ZNSt8_Rb_treeISsSt4pairIKSsPSt6vectorIPN4Rcpp12SignedMethodI5ImageEESaIS7_EEESt10_Select1stISB_ESt4lessISsESaISB_EE13_Rb_tree_implISF_Lb1EEC1Ev"
 "_ZNSt8_Rb_treeISsSt4pairIKSsPSt6vectorIPN4Rcpp12SignedMethodI5ImageEESaIS7_EEESt10_Select1stISB_ESt4lessISsESaISB_EE13_Rb_tree_implISF_Lb1EED1Ev"
 "_ZNSt8_Rb_treeISsSt4pairIKSsPSt6vectorIPN4Rcpp12SignedMethodI5ImageEESaIS7_EEESt10_Select1stISB_ESt4lessISsESaISB_EE14_M_create_nodeIIS0_ISsSA_EEEEPSt13_Rb_tree_nodeISB_EDpOT_"
 "_ZNSt8_Rb_treeISsSt4pairIKSsPSt6vectorIPN4Rcpp12SignedMethodI5ImageEESaIS7_EEESt10_Select1stISB_ESt4lessISsESaISB_EE14_M_lower_boundEPSt13_Rb_tree_nodeISB_ESK_RS1_"
 "_ZNSt8_Rb_treeISsSt4pairIKSsPSt6vectorIPN4Rcpp12SignedMethodI5ImageEESaIS7_EEESt10_Select1stISB_ESt4lessISsESaISB_EE15_M_destroy_nodeEPSt13_Rb_tree_nodeISB_E"
 "_ZNSt8_Rb_treeISsSt4pairIKSsPSt6vectorIPN4Rcpp12SignedMethodI5ImageEESaIS7_EEESt10_Select1stISB_ESt4lessISsESaISB_EE16_M_insert_uniqueIS0_ISsSA_EEES0_ISt17_Rb_tree_iteratorISB_EbEOT_"
 "_ZNSt8_Rb_treeISsSt4pairIKSsPSt6vectorIPN4Rcpp12SignedMethodI5ImageEESaIS7_EEESt10_Select1stISB_ESt4lessISsESaISB_EE21_M_get_Node_allocatorEv"
 "_ZNSt8_Rb_treeISsSt4pairIKSsPSt6vectorIPN4Rcpp12SignedMethodI5ImageEESaIS7_EEESt10_Select1stISB_ESt4lessISsESaISB_EE24_M_get_insert_unique_posERS1_"
 "_ZNSt8_Rb_treeISsSt4pairIKSsPSt6vectorIPN4Rcpp12SignedMethodI5ImageEESaIS7_EEESt10_Select1stISB_ESt4lessISsESaISB_EE3endEv"
 "_ZNSt8_Rb_treeISsSt4pairIKSsPSt6vectorIPN4Rcpp12SignedMethodI5ImageEESaIS7_EEESt10_Select1stISB_ESt4lessISsESaISB_EE4findERS1_"
 "_ZNSt8_Rb_treeISsSt4pairIKSsPSt6vectorIPN4Rcpp12SignedMethodI5ImageEESaIS7_EEESt10_Select1stISB_ESt4lessISsESaISB_EE5beginEv"
 "_ZNSt8_Rb_treeISsSt4pairIKSsPSt6vectorIPN4Rcpp12SignedMethodI5ImageEESaIS7_EEESt10_Select1stISB_ESt4lessISsESaISB_EE6_M_endEv"
 "_ZNSt8_Rb_treeISsSt4pairIKSsPSt6vectorIPN4Rcpp12SignedMethodI5ImageEESaIS7_EEESt10_Select1stISB_ESt4lessISsESaISB_EE6_S_keyEPKSt13_Rb_tree_nodeISB_E"
 "_ZNSt8_Rb_treeISsSt4pairIKSsPSt6vectorIPN4Rcpp12SignedMethodI5ImageEESaIS7_EEESt10_Select1stISB_ESt4lessISsESaISB_EE6_S_keyEPKSt18_Rb_tree_node_base"
 "_ZNSt8_Rb_treeISsSt4pairIKSsPSt6vectorIPN4Rcpp12SignedMethodI5ImageEESaIS7_EEESt10_Select1stISB_ESt4lessISsESaISB_EE7_S_leftEPSt18_Rb_tree_node_base"
 "_ZNSt8_Rb_treeISsSt4pairIKSsPSt6vectorIPN4Rcpp12SignedMethodI5ImageEESaIS7_EEESt10_Select1stISB_ESt4lessISsESaISB_EE8_M_beginEv"
 "_ZNSt8_Rb_treeISsSt4pairIKSsPSt6vectorIPN4Rcpp12SignedMethodI5ImageEESaIS7_EEESt10_Select1stISB_ESt4lessISsESaISB_EE8_M_eraseEPSt13_Rb_tree_nodeISB_E"
 "_ZNSt8_Rb_treeISsSt4pairIKSsPSt6vectorIPN4Rcpp12SignedMethodI5ImageEESaIS7_EEESt10_Select1stISB_ESt4lessISsESaISB_EE8_S_rightEPSt18_Rb_tree_node_base"
 "_ZNSt8_Rb_treeISsSt4pairIKSsPSt6vectorIPN4Rcpp12SignedMethodI5ImageEESaIS7_EEESt10_Select1stISB_ESt4lessISsESaISB_EE8_S_valueEPKSt13_Rb_tree_nodeISB_E"
 "_ZNSt8_Rb_treeISsSt4pairIKSsPSt6vectorIPN4Rcpp12SignedMethodI5ImageEESaIS7_EEESt10_Select1stISB_ESt4lessISsESaISB_EE8_S_valueEPKSt18_Rb_tree_node_base"
 "_ZNSt8_Rb_treeISsSt4pairIKSsPSt6vectorIPN4Rcpp12SignedMethodI5ImageEESaIS7_EEESt10_Select1stISB_ESt4lessISsESaISB_EEC1Ev"
 "_ZNSt8_Rb_treeISsSt4pairIKSsPSt6vectorIPN4Rcpp12SignedMethodI5ImageEESaIS7_EEESt10_Select1stISB_ESt4lessISsESaISB_EED1Ev"
 "_ZNSt8_Rb_treeISsSt4pairIKSsPSt6vectorIPN4Rcpp12SignedMethodI5VideoEESaIS7_EEESt10_Select1stISB_ESt4lessISsESaISB_EE10_M_insert_IS0_ISsSA_EEESt17_Rb_tree_iteratorISB_EPSt18_Rb_tree_node_baseSN_OT_"
 "_ZNSt8_Rb_treeISsSt4pairIKSsPSt6vectorIPN4Rcpp12SignedMethodI5VideoEESaIS7_EEESt10_Select1stISB_ESt4lessISsESaISB_EE11_M_get_nodeEv"
 "_ZNSt8_Rb_treeISsSt4pairIKSsPSt6vectorIPN4Rcpp12SignedMethodI5VideoEESaIS7_EEESt10_Select1stISB_ESt4lessISsESaISB_EE11_M_put_nodeEPSt13_Rb_tree_nodeISB_E"
 "_ZNSt8_Rb_treeISsSt4pairIKSsPSt6vectorIPN4Rcpp12SignedMethodI5VideoEESaIS7_EEESt10_Select1stISB_ESt4lessISsESaISB_EE13_Rb_tree_implISF_Lb1EE13_M_initializeEv"
 "_ZNSt8_Rb_treeISsSt4pairIKSsPSt6vectorIPN4Rcpp12SignedMethodI5VideoEESaIS7_EEESt10_Select1stISB_ESt4lessISsESaISB_EE13_Rb_tree_implISF_Lb1EEC1Ev"
 "_ZNSt8_Rb_treeISsSt4pairIKSsPSt6vectorIPN4Rcpp12SignedMethodI5VideoEESaIS7_EEESt10_Select1stISB_ESt4lessISsESaISB_EE13_Rb_tree_implISF_Lb1EED1Ev"
 "_ZNSt8_Rb_treeISsSt4pairIKSsPSt6vectorIPN4Rcpp12SignedMethodI5VideoEESaIS7_EEESt10_Select1stISB_ESt4lessISsESaISB_EE14_M_create_nodeIIS0_ISsSA_EEEEPSt13_Rb_tree_nodeISB_EDpOT_"
 "_ZNSt8_Rb_treeISsSt4pairIKSsPSt6vectorIPN4Rcpp12SignedMethodI5VideoEESaIS7_EEESt10_Select1stISB_ESt4lessISsESaISB_EE14_M_lower_boundEPSt13_Rb_tree_nodeISB_ESK_RS1_"
 "_ZNSt8_Rb_treeISsSt4pairIKSsPSt6vectorIPN4Rcpp12SignedMethodI5VideoEESaIS7_EEESt10_Select1stISB_ESt4lessISsESaISB_EE15_M_destroy_nodeEPSt13_Rb_tree_nodeISB_E"
 "_ZNSt8_Rb_treeISsSt4pairIKSsPSt6vectorIPN4Rcpp12SignedMethodI5VideoEESaIS7_EEESt10_Select1stISB_ESt4lessISsESaISB_EE16_M_insert_uniqueIS0_ISsSA_EEES0_ISt17_Rb_tree_iteratorISB_EbEOT_"
 "_ZNSt8_Rb_treeISsSt4pairIKSsPSt6vectorIPN4Rcpp12SignedMethodI5VideoEESaIS7_EEESt10_Select1stISB_ESt4lessISsESaISB_EE21_M_get_Node_allocatorEv"
 "_ZNSt8_Rb_treeISsSt4pairIKSsPSt6vectorIPN4Rcpp12SignedMethodI5VideoEESaIS7_EEESt10_Select1stISB_ESt4lessISsESaISB_EE24_M_get_insert_unique_posERS1_"
 "_ZNSt8_Rb_treeISsSt4pairIKSsPSt6vectorIPN4Rcpp12SignedMethodI5VideoEESaIS7_EEESt10_Select1stISB_ESt4lessISsESaISB_EE3endEv"
 "_ZNSt8_Rb_treeISsSt4pairIKSsPSt6vectorIPN4Rcpp12SignedMethodI5VideoEESaIS7_EEESt10_Select1stISB_ESt4lessISsESaISB_EE4findERS1_"
 "_ZNSt8_Rb_treeISsSt4pairIKSsPSt6vectorIPN4Rcpp12SignedMethodI5VideoEESaIS7_EEESt10_Select1stISB_ESt4lessISsESaISB_EE5beginEv"
 "_ZNSt8_Rb_treeISsSt4pairIKSsPSt6vectorIPN4Rcpp12SignedMethodI5VideoEESaIS7_EEESt10_Select1stISB_ESt4lessISsESaISB_EE6_M_endEv"
 "_ZNSt8_Rb_treeISsSt4pairIKSsPSt6vectorIPN4Rcpp12SignedMethodI5VideoEESaIS7_EEESt10_Select1stISB_ESt4lessISsESaISB_EE6_S_keyEPKSt13_Rb_tree_nodeISB_E"
 "_ZNSt8_Rb_treeISsSt4pairIKSsPSt6vectorIPN4Rcpp12SignedMethodI5VideoEESaIS7_EEESt10_Select1stISB_ESt4lessISsESaISB_EE6_S_keyEPKSt18_Rb_tree_node_base"
 "_ZNSt8_Rb_treeISsSt4pairIKSsPSt6vectorIPN4Rcpp12SignedMethodI5VideoEESaIS7_EEESt10_Select1stISB_ESt4lessISsESaISB_EE7_S_leftEPSt18_Rb_tree_node_base"
 "_ZNSt8_Rb_treeISsSt4pairIKSsPSt6vectorIPN4Rcpp12SignedMethodI5VideoEESaIS7_EEESt10_Select1stISB_ESt4lessISsESaISB_EE8_M_beginEv"
 "_ZNSt8_Rb_treeISsSt4pairIKSsPSt6vectorIPN4Rcpp12SignedMethodI5VideoEESaIS7_EEESt10_Select1stISB_ESt4lessISsESaISB_EE8_M_eraseEPSt13_Rb_tree_nodeISB_E"
 "_ZNSt8_Rb_treeISsSt4pairIKSsPSt6vectorIPN4Rcpp12SignedMethodI5VideoEESaIS7_EEESt10_Select1stISB_ESt4lessISsESaISB_EE8_S_rightEPSt18_Rb_tree_node_base"
 "_ZNSt8_Rb_treeISsSt4pairIKSsPSt6vectorIPN4Rcpp12SignedMethodI5VideoEESaIS7_EEESt10_Select1stISB_ESt4lessISsESaISB_EE8_S_valueEPKSt13_Rb_tree_nodeISB_E"
 "_ZNSt8_Rb_treeISsSt4pairIKSsPSt6vectorIPN4Rcpp12SignedMethodI5VideoEESaIS7_EEESt10_Select1stISB_ESt4lessISsESaISB_EE8_S_valueEPKSt18_Rb_tree_node_base"
 "_ZNSt8_Rb_treeISsSt4pairIKSsPSt6vectorIPN4Rcpp12SignedMethodI5VideoEESaIS7_EEESt10_Select1stISB_ESt4lessISsESaISB_EEC1Ev"
 "_ZNSt8_Rb_treeISsSt4pairIKSsPSt6vectorIPN4Rcpp12SignedMethodI5VideoEESaIS7_EEESt10_Select1stISB_ESt4lessISsESaISB_EED1Ev"
 "_ZNSt8_Rb_treeISsSt4pairIKSsPSt6vectorIPN4Rcpp12SignedMethodI6StreamEESaIS7_EEESt10_Select1stISB_ESt4lessISsESaISB_EE10_M_insert_IS0_ISsSA_EEESt17_Rb_tree_iteratorISB_EPSt18_Rb_tree_node_baseSN_OT_"
 "_ZNSt8_Rb_treeISsSt4pairIKSsPSt6vectorIPN4Rcpp12SignedMethodI6StreamEESaIS7_EEESt10_Select1stISB_ESt4lessISsESaISB_EE11_M_get_nodeEv"
 "_ZNSt8_Rb_treeISsSt4pairIKSsPSt6vectorIPN4Rcpp12SignedMethodI6StreamEESaIS7_EEESt10_Select1stISB_ESt4lessISsESaISB_EE11_M_put_nodeEPSt13_Rb_tree_nodeISB_E"
 "_ZNSt8_Rb_treeISsSt4pairIKSsPSt6vectorIPN4Rcpp12SignedMethodI6StreamEESaIS7_EEESt10_Select1stISB_ESt4lessISsESaISB_EE13_Rb_tree_implISF_Lb1EE13_M_initializeEv"
 "_ZNSt8_Rb_treeISsSt4pairIKSsPSt6vectorIPN4Rcpp12SignedMethodI6StreamEESaIS7_EEESt10_Select1stISB_ESt4lessISsESaISB_EE13_Rb_tree_implISF_Lb1EEC1Ev"
 "_ZNSt8_Rb_treeISsSt4pairIKSsPSt6vectorIPN4Rcpp12SignedMethodI6StreamEESaIS7_EEESt10_Select1stISB_ESt4lessISsESaISB_EE13_Rb_tree_implISF_Lb1EED1Ev"
 "_ZNSt8_Rb_treeISsSt4pairIKSsPSt6vectorIPN4Rcpp12SignedMethodI6StreamEESaIS7_EEESt10_Select1stISB_ESt4lessISsESaISB_EE14_M_create_nodeIIS0_ISsSA_EEEEPSt13_Rb_tree_nodeISB_EDpOT_"
 "_ZNSt8_Rb_treeISsSt4pairIKSsPSt6vectorIPN4Rcpp12SignedMethodI6StreamEESaIS7_EEESt10_Select1stISB_ESt4lessISsESaISB_EE14_M_lower_boundEPSt13_Rb_tree_nodeISB_ESK_RS1_"
 "_ZNSt8_Rb_treeISsSt4pairIKSsPSt6vectorIPN4Rcpp12SignedMethodI6StreamEESaIS7_EEESt10_Select1stISB_ESt4lessISsESaISB_EE15_M_destroy_nodeEPSt13_Rb_tree_nodeISB_E"
 "_ZNSt8_Rb_treeISsSt4pairIKSsPSt6vectorIPN4Rcpp12SignedMethodI6StreamEESaIS7_EEESt10_Select1stISB_ESt4lessISsESaISB_EE16_M_insert_uniqueIS0_ISsSA_EEES0_ISt17_Rb_tree_iteratorISB_EbEOT_"
 "_ZNSt8_Rb_treeISsSt4pairIKSsPSt6vectorIPN4Rcpp12SignedMethodI6StreamEESaIS7_EEESt10_Select1stISB_ESt4lessISsESaISB_EE21_M_get_Node_allocatorEv"
 "_ZNSt8_Rb_treeISsSt4pairIKSsPSt6vectorIPN4Rcpp12SignedMethodI6StreamEESaIS7_EEESt10_Select1stISB_ESt4lessISsESaISB_EE24_M_get_insert_unique_posERS1_"
 "_ZNSt8_Rb_treeISsSt4pairIKSsPSt6vectorIPN4Rcpp12SignedMethodI6StreamEESaIS7_EEESt10_Select1stISB_ESt4lessISsESaISB_EE3endEv"
 "_ZNSt8_Rb_treeISsSt4pairIKSsPSt6vectorIPN4Rcpp12SignedMethodI6StreamEESaIS7_EEESt10_Select1stISB_ESt4lessISsESaISB_EE4findERS1_"
 "_ZNSt8_Rb_treeISsSt4pairIKSsPSt6vectorIPN4Rcpp12SignedMethodI6StreamEESaIS7_EEESt10_Select1stISB_ESt4lessISsESaISB_EE5beginEv"
 "_ZNSt8_Rb_treeISsSt4pairIKSsPSt6vectorIPN4Rcpp12SignedMethodI6StreamEESaIS7_EEESt10_Select1stISB_ESt4lessISsESaISB_EE6_M_endEv"
 "_ZNSt8_Rb_treeISsSt4pairIKSsPSt6vectorIPN4Rcpp12SignedMethodI6StreamEESaIS7_EEESt10_Select1stISB_ESt4lessISsESaISB_EE6_S_keyEPKSt13_Rb_tree_nodeISB_E"
 "_ZNSt8_Rb_treeISsSt4pairIKSsPSt6vectorIPN4Rcpp12SignedMethodI6StreamEESaIS7_EEESt10_Select1stISB_ESt4lessISsESaISB_EE6_S_keyEPKSt18_Rb_tree_node_base"
 "_ZNSt8_Rb_treeISsSt4pairIKSsPSt6vectorIPN4Rcpp12SignedMethodI6StreamEESaIS7_EEESt10_Select1stISB_ESt4lessISsESaISB_EE7_S_leftEPSt18_Rb_tree_node_base"
 "_ZNSt8_Rb_treeISsSt4pairIKSsPSt6vectorIPN4Rcpp12SignedMethodI6StreamEESaIS7_EEESt10_Select1stISB_ESt4lessISsESaISB_EE8_M_beginEv"
 "_ZNSt8_Rb_treeISsSt4pairIKSsPSt6vectorIPN4Rcpp12SignedMethodI6StreamEESaIS7_EEESt10_Select1stISB_ESt4lessISsESaISB_EE8_M_eraseEPSt13_Rb_tree_nodeISB_E"
 "_ZNSt8_Rb_treeISsSt4pairIKSsPSt6vectorIPN4Rcpp12SignedMethodI6StreamEESaIS7_EEESt10_Select1stISB_ESt4lessISsESaISB_EE8_S_rightEPSt18_Rb_tree_node_base"
 "_ZNSt8_Rb_treeISsSt4pairIKSsPSt6vectorIPN4Rcpp12SignedMethodI6StreamEESaIS7_EEESt10_Select1stISB_ESt4lessISsESaISB_EE8_S_valueEPKSt13_Rb_tree_nodeISB_E"
 "_ZNSt8_Rb_treeISsSt4pairIKSsPSt6vectorIPN4Rcpp12SignedMethodI6StreamEESaIS7_EEESt10_Select1stISB_ESt4lessISsESaISB_EE8_S_valueEPKSt18_Rb_tree_node_base"
 "_ZNSt8_Rb_treeISsSt4pairIKSsPSt6vectorIPN4Rcpp12SignedMethodI6StreamEESaIS7_EEESt10_Select1stISB_ESt4lessISsESaISB_EEC1Ev"
 "_ZNSt8_Rb_treeISsSt4pairIKSsPSt6vectorIPN4Rcpp12SignedMethodI6StreamEESaIS7_EEESt10_Select1stISB_ESt4lessISsESaISB_EED1Ev"
 "_ZNSt8_Rb_treeISsSt4pairIKSsSt3mapISsiSt4lessISsESaIS0_IS1_iEEEESt10_Select1stIS8_ES4_SaIS8_EE11_M_put_nodeEPSt13_Rb_tree_nodeIS8_E"
 "_ZNSt8_Rb_treeISsSt4pairIKSsSt3mapISsiSt4lessISsESaIS0_IS1_iEEEESt10_Select1stIS8_ES4_SaIS8_EE13_Rb_tree_implIS4_Lb1EE13_M_initializeEv"
 "_ZNSt8_Rb_treeISsSt4pairIKSsSt3mapISsiSt4lessISsESaIS0_IS1_iEEEESt10_Select1stIS8_ES4_SaIS8_EE13_Rb_tree_implIS4_Lb1EEC1Ev"
 "_ZNSt8_Rb_treeISsSt4pairIKSsSt3mapISsiSt4lessISsESaIS0_IS1_iEEEESt10_Select1stIS8_ES4_SaIS8_EE13_Rb_tree_implIS4_Lb1EED1Ev"
 "_ZNSt8_Rb_treeISsSt4pairIKSsSt3mapISsiSt4lessISsESaIS0_IS1_iEEEESt10_Select1stIS8_ES4_SaIS8_EE15_M_destroy_nodeEPSt13_Rb_tree_nodeIS8_E"
 "_ZNSt8_Rb_treeISsSt4pairIKSsSt3mapISsiSt4lessISsESaIS0_IS1_iEEEESt10_Select1stIS8_ES4_SaIS8_EE21_M_get_Node_allocatorEv"
 "_ZNSt8_Rb_treeISsSt4pairIKSsSt3mapISsiSt4lessISsESaIS0_IS1_iEEEESt10_Select1stIS8_ES4_SaIS8_EE7_S_leftEPSt18_Rb_tree_node_base"
 "_ZNSt8_Rb_treeISsSt4pairIKSsSt3mapISsiSt4lessISsESaIS0_IS1_iEEEESt10_Select1stIS8_ES4_SaIS8_EE8_M_beginEv"
 "_ZNSt8_Rb_treeISsSt4pairIKSsSt3mapISsiSt4lessISsESaIS0_IS1_iEEEESt10_Select1stIS8_ES4_SaIS8_EE8_M_eraseEPSt13_Rb_tree_nodeIS8_E"
 "_ZNSt8_Rb_treeISsSt4pairIKSsSt3mapISsiSt4lessISsESaIS0_IS1_iEEEESt10_Select1stIS8_ES4_SaIS8_EE8_S_rightEPSt18_Rb_tree_node_base"
 "_ZNSt8_Rb_treeISsSt4pairIKSsSt3mapISsiSt4lessISsESaIS0_IS1_iEEEESt10_Select1stIS8_ES4_SaIS8_EEC1Ev"
 "_ZNSt8_Rb_treeISsSt4pairIKSsSt3mapISsiSt4lessISsESaIS0_IS1_iEEEESt10_Select1stIS8_ES4_SaIS8_EED1Ev"
 "_ZNSt8ios_base4setfESt13_Ios_Fmtflags"
 "_ZNSt8ios_base4setfESt13_Ios_FmtflagsS0_"
 "_ZNSt8ios_base5flagsESt13_Ios_Fmtflags"
 "_ZNSt8ios_base5widthEx"
 "_ZNSt8ios_base6unsetfESt13_Ios_Fmtflags"
 "_ZNSt8ios_base9precisionEx"
 "_ZNSt9bad_allocC1Ev"
 "_ZNSt9exceptionC2Ev"
 "_ZnwyPv"
 "_ZSt10__distanceIN4Rcpp8internal14Proxy_IteratorINS1_12string_proxyILi16ENS0_15PreserveStorageEEEEEENSt15iterator_traitsIT_E15difference_typeES8_S8_St26random_access_iterator_tag"
 "_ZSt10__distanceIN4Rcpp8internal14Proxy_IteratorINS1_13generic_proxyILi19ENS0_15PreserveStorageEEEEEENSt15iterator_traitsIT_E15difference_typeES8_S8_St26random_access_iterator_tag"
 "_ZSt10__distanceIN9__gnu_cxx17__normal_iteratorIPKiSt6vectorIiSaIiEEEEENSt15iterator_traitsIT_E15difference_typeES9_S9_St26random_access_iterator_tag"
 "_ZSt10__distanceIPKdENSt15iterator_traitsIT_E15difference_typeES3_S3_St26random_access_iterator_tag"
 "_ZSt10__distanceIPKfENSt15iterator_traitsIT_E15difference_typeES3_S3_St26random_access_iterator_tag"
 "_ZSt10__fill_n_aIPiyiEN9__gnu_cxx11__enable_ifIXsrSt11__is_scalarIT1_E7__valueET_E6__typeES6_T0_RKS4_"
 "_ZSt10_ConstructIN2cv3MatEIEEvPT_DpOT0_"
 "_ZSt10_ConstructIN2cv6Point_IiEEIRKS2_EEvPT_DpOT0_"
 "_ZSt10_ConstructIN2cv6Point_IiEEIS2_EEvPT_DpOT0_"
 "_ZSt10_ConstructISt6vectorIN2cv6Point_IiEESaIS3_EEIS5_EEvPT_DpOT0_"
 "_ZSt10accumulateIN9__gnu_cxx17__normal_iteratorIPKiSt6vectorIiSaIiEEEExSt10multipliesIxEET0_T_SB_SA_T1_"
 "_ZSt11__addressofIN2cv3MatEEPT_RS2_"
 "_ZSt11__addressofIN2cv6Point_IiEEEPT_RS3_"
 "_ZSt11__addressofISsEPT_RS0_"
 "_ZSt11__addressofISt6vectorIN2cv6Point_IiEESaIS3_EEEPT_RS6_"
 "_ZSt12__miter_baseISt13move_iteratorIPPN4Rcpp12SignedMethodI11VideoWriterEEEENSt11_Miter_baseIT_E13iterator_typeES9_"
 "_ZSt12__miter_baseISt13move_iteratorIPPN4Rcpp12SignedMethodI5ImageEEEENSt11_Miter_baseIT_E13iterator_typeES9_"
 "_ZSt12__miter_baseISt13move_iteratorIPPN4Rcpp12SignedMethodI5VideoEEEENSt11_Miter_baseIT_E13iterator_typeES9_"
 "_ZSt12__miter_baseISt13move_iteratorIPPN4Rcpp12SignedMethodI6StreamEEEENSt11_Miter_baseIT_E13iterator_typeES9_"
 "_ZSt12__miter_baseISt13move_iteratorIPPN4Rcpp17SignedConstructorI11VideoWriterEEEENSt11_Miter_baseIT_E13iterator_typeES9_"
 "_ZSt12__miter_baseISt13move_iteratorIPPN4Rcpp17SignedConstructorI5ImageEEEENSt11_Miter_baseIT_E13iterator_typeES9_"
 "_ZSt12__miter_baseISt13move_iteratorIPPN4Rcpp17SignedConstructorI5VideoEEEENSt11_Miter_baseIT_E13iterator_typeES9_"
 "_ZSt12__miter_baseISt13move_iteratorIPPN4Rcpp17SignedConstructorI6StreamEEEENSt11_Miter_baseIT_E13iterator_typeES9_"
 "_ZSt12__niter_baseIPdENSt11_Niter_baseIT_E13iterator_typeES2_"
 "_ZSt12__niter_baseIPiENSt11_Niter_baseIT_E13iterator_typeES2_"
 "_ZSt12__niter_baseIPPN4Rcpp12SignedMethodI11VideoWriterEEENSt11_Niter_baseIT_E13iterator_typeES7_"
 "_ZSt12__niter_baseIPPN4Rcpp12SignedMethodI5ImageEEENSt11_Niter_baseIT_E13iterator_typeES7_"
 "_ZSt12__niter_baseIPPN4Rcpp12SignedMethodI5VideoEEENSt11_Niter_baseIT_E13iterator_typeES7_"
 "_ZSt12__niter_baseIPPN4Rcpp12SignedMethodI6StreamEEENSt11_Niter_baseIT_E13iterator_typeES7_"
 "_ZSt12__niter_baseIPPN4Rcpp17SignedConstructorI11VideoWriterEEENSt11_Niter_baseIT_E13iterator_typeES7_"
 "_ZSt12__niter_baseIPPN4Rcpp17SignedConstructorI5ImageEEENSt11_Niter_baseIT_E13iterator_typeES7_"
 "_ZSt12__niter_baseIPPN4Rcpp17SignedConstructorI5VideoEEENSt11_Niter_baseIT_E13iterator_typeES7_"
 "_ZSt12__niter_baseIPPN4Rcpp17SignedConstructorI6StreamEEENSt11_Niter_baseIT_E13iterator_typeES7_"
 "_ZSt13__copy_move_aILb1EPPN4Rcpp12SignedMethodI11VideoWriterEES5_ET1_T0_S7_S6_"
 "_ZSt13__copy_move_aILb1EPPN4Rcpp12SignedMethodI5ImageEES5_ET1_T0_S7_S6_"
 "_ZSt13__copy_move_aILb1EPPN4Rcpp12SignedMethodI5VideoEES5_ET1_T0_S7_S6_"
 "_ZSt13__copy_move_aILb1EPPN4Rcpp12SignedMethodI6StreamEES5_ET1_T0_S7_S6_"
 "_ZSt13__copy_move_aILb1EPPN4Rcpp17SignedConstructorI11VideoWriterEES5_ET1_T0_S7_S6_"
 "_ZSt13__copy_move_aILb1EPPN4Rcpp17SignedConstructorI5ImageEES5_ET1_T0_S7_S6_"
 "_ZSt13__copy_move_aILb1EPPN4Rcpp17SignedConstructorI5VideoEES5_ET1_T0_S7_S6_"
 "_ZSt13__copy_move_aILb1EPPN4Rcpp17SignedConstructorI6StreamEES5_ET1_T0_S7_S6_"
 "_ZSt14__copy_move_a2ILb1EPPN4Rcpp12SignedMethodI11VideoWriterEES5_ET1_T0_S7_S6_"
 "_ZSt14__copy_move_a2ILb1EPPN4Rcpp12SignedMethodI5ImageEES5_ET1_T0_S7_S6_"
 "_ZSt14__copy_move_a2ILb1EPPN4Rcpp12SignedMethodI5VideoEES5_ET1_T0_S7_S6_"
 "_ZSt14__copy_move_a2ILb1EPPN4Rcpp12SignedMethodI6StreamEES5_ET1_T0_S7_S6_"
 "_ZSt14__copy_move_a2ILb1EPPN4Rcpp17SignedConstructorI11VideoWriterEES5_ET1_T0_S7_S6_"
 "_ZSt14__copy_move_a2ILb1EPPN4Rcpp17SignedConstructorI5ImageEES5_ET1_T0_S7_S6_"
 "_ZSt14__copy_move_a2ILb1EPPN4Rcpp17SignedConstructorI5VideoEES5_ET1_T0_S7_S6_"
 "_ZSt14__copy_move_a2ILb1EPPN4Rcpp17SignedConstructorI6StreamEES5_ET1_T0_S7_S6_"
 "_ZSt18uninitialized_copyIN9__gnu_cxx17__normal_iteratorIPKN2cv6Point_IiEESt6vectorIS4_SaIS4_EEEEPS4_ET0_T_SD_SC_"
 "_ZSt18uninitialized_copyISt13move_iteratorIPN2cv6Point_IiEEES4_ET0_T_S7_S6_"
 "_ZSt18uninitialized_copyISt13move_iteratorIPPN4Rcpp12SignedMethodI11VideoWriterEEES6_ET0_T_S9_S8_"
 "_ZSt18uninitialized_copyISt13move_iteratorIPPN4Rcpp12SignedMethodI5ImageEEES6_ET0_T_S9_S8_"
 "_ZSt18uninitialized_copyISt13move_iteratorIPPN4Rcpp12SignedMethodI5VideoEEES6_ET0_T_S9_S8_"
 "_ZSt18uninitialized_copyISt13move_iteratorIPPN4Rcpp12SignedMethodI6StreamEEES6_ET0_T_S9_S8_"
 "_ZSt18uninitialized_copyISt13move_iteratorIPPN4Rcpp17SignedConstructorI11VideoWriterEEES6_ET0_T_S9_S8_"
 "_ZSt18uninitialized_copyISt13move_iteratorIPPN4Rcpp17SignedConstructorI5ImageEEES6_ET0_T_S9_S8_"
 "_ZSt18uninitialized_copyISt13move_iteratorIPPN4Rcpp17SignedConstructorI5VideoEEES6_ET0_T_S9_S8_"
 "_ZSt18uninitialized_copyISt13move_iteratorIPPN4Rcpp17SignedConstructorI6StreamEEES6_ET0_T_S9_S8_"
 "_ZSt18uninitialized_copyISt13move_iteratorIPSt6vectorIN2cv6Point_IiEESaIS4_EEES7_ET0_T_SA_S9_"
 "_ZSt19__iterator_categoryIN4Rcpp8internal14Proxy_IteratorINS1_12string_proxyILi16ENS0_15PreserveStorageEEEEEENSt15iterator_traitsIT_E17iterator_categoryERKS8_"
 "_ZSt19__iterator_categoryIN4Rcpp8internal14Proxy_IteratorINS1_13generic_proxyILi19ENS0_15PreserveStorageEEEEEENSt15iterator_traitsIT_E17iterator_categoryERKS8_"
 "_ZSt19__iterator_categoryIN9__gnu_cxx17__normal_iteratorIPKiSt6vectorIiSaIiEEEEENSt15iterator_traitsIT_E17iterator_categoryERKS9_"
 "_ZSt19__iterator_categoryIPKdENSt15iterator_traitsIT_E17iterator_categoryERKS3_"
 "_ZSt19__iterator_categoryIPKfENSt15iterator_traitsIT_E17iterator_categoryERKS3_"
 "_ZSt22__uninitialized_copy_aIN9__gnu_cxx17__normal_iteratorIPKN2cv6Point_IiEESt6vectorIS4_SaIS4_EEEEPS4_S4_ET0_T_SD_SC_RSaIT1_E"
 "_ZSt22__uninitialized_copy_aISt13move_iteratorIPN2cv6Point_IiEEES4_S3_ET0_T_S7_S6_RSaIT1_E"
 "_ZSt22__uninitialized_copy_aISt13move_iteratorIPPN4Rcpp12SignedMethodI11VideoWriterEEES6_S5_ET0_T_S9_S8_RSaIT1_E"
 "_ZSt22__uninitialized_copy_aISt13move_iteratorIPPN4Rcpp12SignedMethodI5ImageEEES6_S5_ET0_T_S9_S8_RSaIT1_E"
 "_ZSt22__uninitialized_copy_aISt13move_iteratorIPPN4Rcpp12SignedMethodI5VideoEEES6_S5_ET0_T_S9_S8_RSaIT1_E"
 "_ZSt22__uninitialized_copy_aISt13move_iteratorIPPN4Rcpp12SignedMethodI6StreamEEES6_S5_ET0_T_S9_S8_RSaIT1_E"
 "_ZSt22__uninitialized_copy_aISt13move_iteratorIPPN4Rcpp17SignedConstructorI11VideoWriterEEES6_S5_ET0_T_S9_S8_RSaIT1_E"
 "_ZSt22__uninitialized_copy_aISt13move_iteratorIPPN4Rcpp17SignedConstructorI5ImageEEES6_S5_ET0_T_S9_S8_RSaIT1_E"
 "_ZSt22__uninitialized_copy_aISt13move_iteratorIPPN4Rcpp17SignedConstructorI5VideoEEES6_S5_ET0_T_S9_S8_RSaIT1_E"
 "_ZSt22__uninitialized_copy_aISt13move_iteratorIPPN4Rcpp17SignedConstructorI6StreamEEES6_S5_ET0_T_S9_S8_RSaIT1_E"
 "_ZSt22__uninitialized_copy_aISt13move_iteratorIPSt6vectorIN2cv6Point_IiEESaIS4_EEES7_S6_ET0_T_SA_S9_RSaIT1_E"
 "_ZSt25__uninitialized_default_nIPiyEvT_T0_"
 "_ZSt25__uninitialized_default_nIPN2cv3MatEyEvT_T0_"
 "_ZSt27__uninitialized_default_n_aIPiyiEvT_T0_RSaIT1_E"
 "_ZSt27__uninitialized_default_n_aIPN2cv3MatEyS1_EvT_T0_RSaIT1_E"
 "_ZSt32__make_move_if_noexcept_iteratorIPN2cv6Point_IiEESt13move_iteratorIS3_EET0_T_"
 "_ZSt32__make_move_if_noexcept_iteratorIPPN4Rcpp12SignedMethodI11VideoWriterEESt13move_iteratorIS5_EET0_T_"
 "_ZSt32__make_move_if_noexcept_iteratorIPPN4Rcpp12SignedMethodI5ImageEESt13move_iteratorIS5_EET0_T_"
 "_ZSt32__make_move_if_noexcept_iteratorIPPN4Rcpp12SignedMethodI5VideoEESt13move_iteratorIS5_EET0_T_"
 "_ZSt32__make_move_if_noexcept_iteratorIPPN4Rcpp12SignedMethodI6StreamEESt13move_iteratorIS5_EET0_T_"
 "_ZSt32__make_move_if_noexcept_iteratorIPPN4Rcpp17SignedConstructorI11VideoWriterEESt13move_iteratorIS5_EET0_T_"
 "_ZSt32__make_move_if_noexcept_iteratorIPPN4Rcpp17SignedConstructorI5ImageEESt13move_iteratorIS5_EET0_T_"
 "_ZSt32__make_move_if_noexcept_iteratorIPPN4Rcpp17SignedConstructorI5VideoEESt13move_iteratorIS5_EET0_T_"
 "_ZSt32__make_move_if_noexcept_iteratorIPPN4Rcpp17SignedConstructorI6StreamEESt13move_iteratorIS5_EET0_T_"
 "_ZSt32__make_move_if_noexcept_iteratorIPSt6vectorIN2cv6Point_IiEESaIS3_EESt13move_iteratorIS6_EET0_T_"
 "_ZSt34__uninitialized_move_if_noexcept_aIPN2cv6Point_IiEES3_SaIS2_EET0_T_S6_S5_RT1_"
 "_ZSt34__uninitialized_move_if_noexcept_aIPPN4Rcpp12SignedMethodI11VideoWriterEES5_SaIS4_EET0_T_S8_S7_RT1_"
 "_ZSt34__uninitialized_move_if_noexcept_aIPPN4Rcpp12SignedMethodI5ImageEES5_SaIS4_EET0_T_S8_S7_RT1_"
 "_ZSt34__uninitialized_move_if_noexcept_aIPPN4Rcpp12SignedMethodI5VideoEES5_SaIS4_EET0_T_S8_S7_RT1_"
 "_ZSt34__uninitialized_move_if_noexcept_aIPPN4Rcpp12SignedMethodI6StreamEES5_SaIS4_EET0_T_S8_S7_RT1_"
 "_ZSt34__uninitialized_move_if_noexcept_aIPPN4Rcpp17SignedConstructorI11VideoWriterEES5_SaIS4_EET0_T_S8_S7_RT1_"
 "_ZSt34__uninitialized_move_if_noexcept_aIPPN4Rcpp17SignedConstructorI5ImageEES5_SaIS4_EET0_T_S8_S7_RT1_"
 "_ZSt34__uninitialized_move_if_noexcept_aIPPN4Rcpp17SignedConstructorI5VideoEES5_SaIS4_EET0_T_S8_S7_RT1_"
 "_ZSt34__uninitialized_move_if_noexcept_aIPPN4Rcpp17SignedConstructorI6StreamEES5_SaIS4_EET0_T_S8_S7_RT1_"
 "_ZSt34__uninitialized_move_if_noexcept_aIPSt6vectorIN2cv6Point_IiEESaIS3_EES6_SaIS5_EET0_T_S9_S8_RT1_"
 "_ZSt3maxIyERKT_S2_S2_"
 "_ZSt3minIiERKT_S2_S2_"
 "_ZSt4copyISt13move_iteratorIPPN4Rcpp12SignedMethodI11VideoWriterEEES6_ET0_T_S9_S8_"
 "_ZSt4copyISt13move_iteratorIPPN4Rcpp12SignedMethodI5ImageEEES6_ET0_T_S9_S8_"
 "_ZSt4copyISt13move_iteratorIPPN4Rcpp12SignedMethodI5VideoEEES6_ET0_T_S9_S8_"
 "_ZSt4copyISt13move_iteratorIPPN4Rcpp12SignedMethodI6StreamEEES6_ET0_T_S9_S8_"
 "_ZSt4copyISt13move_iteratorIPPN4Rcpp17SignedConstructorI11VideoWriterEEES6_ET0_T_S9_S8_"
 "_ZSt4copyISt13move_iteratorIPPN4Rcpp17SignedConstructorI5ImageEEES6_ET0_T_S9_S8_"
 "_ZSt4copyISt13move_iteratorIPPN4Rcpp17SignedConstructorI5VideoEEES6_ET0_T_S9_S8_"
 "_ZSt4copyISt13move_iteratorIPPN4Rcpp17SignedConstructorI6StreamEEES6_ET0_T_S9_S8_"
 "_ZSt4fillIPddEvT_S1_RKT0_"
 "_ZSt4fillIPiiEvT_S1_RKT0_"
 "_ZSt4moveIRiEONSt16remove_referenceIT_E4typeEOS2_"
 "_ZSt4moveIRN2cv6Point_IiEEEONSt16remove_referenceIT_E4typeEOS5_"
 "_ZSt4moveIRPN2cv6Point_IiEEEONSt16remove_referenceIT_E4typeEOS6_"
 "_ZSt4moveIRPN4Rcpp12SignedMethodI11VideoWriterEEEONSt16remove_referenceIT_E4typeEOS7_"
 "_ZSt4moveIRPN4Rcpp12SignedMethodI5ImageEEEONSt16remove_referenceIT_E4typeEOS7_"
 "_ZSt4moveIRPN4Rcpp12SignedMethodI5VideoEEEONSt16remove_referenceIT_E4typeEOS7_"
 "_ZSt4moveIRPN4Rcpp12SignedMethodI6StreamEEEONSt16remove_referenceIT_E4typeEOS7_"
 "_ZSt4moveIRPN4Rcpp17SignedConstructorI11VideoWriterEEEONSt16remove_referenceIT_E4typeEOS7_"
 "_ZSt4moveIRPN4Rcpp17SignedConstructorI5ImageEEEONSt16remove_referenceIT_E4typeEOS7_"
 "_ZSt4moveIRPN4Rcpp17SignedConstructorI5VideoEEEONSt16remove_referenceIT_E4typeEOS7_"
 "_ZSt4moveIRPN4Rcpp17SignedConstructorI6StreamEEEONSt16remove_referenceIT_E4typeEOS7_"
 "_ZSt4moveIRSaIN2cv6Point_IiEEEEONSt16remove_referenceIT_E4typeEOS6_"
 "_ZSt4moveIRSsEONSt16remove_referenceIT_E4typeEOS2_"
 "_ZSt4moveIRSt6vectorIN2cv6Point_IiEESaIS3_EEEONSt16remove_referenceIT_E4typeEOS8_"
 "_ZSt4swapIPN2cv6Point_IiEEEvRT_S5_"
 "_ZSt6fill_nIPiyiET_S1_T0_RKT1_"
 "_ZSt7forwardIbEOT_RNSt16remove_referenceIS0_E4typeE"
 "_ZSt7forwardIiEOT_RNSt16remove_referenceIS0_E4typeE"
 "_ZSt7forwardIN2cv6Point_IiEEEOT_RNSt16remove_referenceIS3_E4typeE"
 "_ZSt7forwardIPKcEOT_RNSt16remove_referenceIS2_E4typeE"
 "_ZSt7forwardIPN4Rcpp12SignedMethodI11VideoWriterEEEOT_RNSt16remove_referenceIS5_E4typeE"
 "_ZSt7forwardIPN4Rcpp12SignedMethodI5ImageEEEOT_RNSt16remove_referenceIS5_E4typeE"
 "_ZSt7forwardIPN4Rcpp12SignedMethodI5VideoEEEOT_RNSt16remove_referenceIS5_E4typeE"
 "_ZSt7forwardIPN4Rcpp12SignedMethodI6StreamEEEOT_RNSt16remove_referenceIS5_E4typeE"
 "_ZSt7forwardIPN4Rcpp17SignedConstructorI11VideoWriterEEEOT_RNSt16remove_referenceIS5_E4typeE"
 "_ZSt7forwardIPN4Rcpp17SignedConstructorI5ImageEEEOT_RNSt16remove_referenceIS5_E4typeE"
 "_ZSt7forwardIPN4Rcpp17SignedConstructorI5VideoEEEOT_RNSt16remove_referenceIS5_E4typeE"
 "_ZSt7forwardIPN4Rcpp17SignedConstructorI6StreamEEEOT_RNSt16remove_referenceIS5_E4typeE"
 "_ZSt7forwardIPSt6vectorIPN4Rcpp12SignedMethodI11VideoWriterEESaIS5_EEEOT_RNSt16remove_referenceIS9_E4typeE"
 "_ZSt7forwardIPSt6vectorIPN4Rcpp12SignedMethodI5ImageEESaIS5_EEEOT_RNSt16remove_referenceIS9_E4typeE"
 "_ZSt7forwardIPSt6vectorIPN4Rcpp12SignedMethodI5VideoEESaIS5_EEEOT_RNSt16remove_referenceIS9_E4typeE"
 "_ZSt7forwardIPSt6vectorIPN4Rcpp12SignedMethodI6StreamEESaIS5_EEEOT_RNSt16remove_referenceIS9_E4typeE"
 "_ZSt7forwardIRiEOT_RNSt16remove_referenceIS1_E4typeE"
 "_ZSt7forwardIRKN2cv6Point_IiEEEOT_RNSt16remove_referenceIS5_E4typeE"
 "_ZSt7forwardIRKPKcEOT_RNSt16remove_referenceIS4_E4typeE"
 "_ZSt7forwardIRKSt6vectorIN2cv6Point_IiEESaIS3_EEEOT_RNSt16remove_referenceIS8_E4typeE"
 "_ZSt7forwardIRKxEOT_RNSt16remove_referenceIS2_E4typeE"
 "_ZSt7forwardIRPKcEOT_RNSt16remove_referenceIS3_E4typeE"
 "_ZSt7forwardIRPN4Rcpp10class_BaseEEOT_RNSt16remove_referenceIS4_E4typeE"
 "_ZSt7forwardIRPN4Rcpp11CppFunctionEEOT_RNSt16remove_referenceIS4_E4typeE"
 "_ZSt7forwardIRPSt13_Rb_tree_nodeISt4pairIKSsPN4Rcpp10class_BaseEEEEOT_RNSt16remove_referenceISA_E4typeE"
 "_ZSt7forwardIRPSt13_Rb_tree_nodeISt4pairIKSsPN4Rcpp11CppFunctionEEEEOT_RNSt16remove_referenceISA_E4typeE"
 "_ZSt7forwardIRPSt13_Rb_tree_nodeISt4pairIKSsPSt6vectorIPN4Rcpp12SignedMethodI11VideoWriterEESaIS8_EEEEEOT_RNSt16remove_referenceISG_E4typeE"
 "_ZSt7forwardIRPSt13_Rb_tree_nodeISt4pairIKSsPSt6vectorIPN4Rcpp12SignedMethodI5ImageEESaIS8_EEEEEOT_RNSt16remove_referenceISG_E4typeE"
 "_ZSt7forwardIRPSt13_Rb_tree_nodeISt4pairIKSsPSt6vectorIPN4Rcpp12SignedMethodI5VideoEESaIS8_EEEEEOT_RNSt16remove_referenceISG_E4typeE"
 "_ZSt7forwardIRPSt13_Rb_tree_nodeISt4pairIKSsPSt6vectorIPN4Rcpp12SignedMethodI6StreamEESaIS8_EEEEEOT_RNSt16remove_referenceISG_E4typeE"
 "_ZSt7forwardIRPSt18_Rb_tree_node_baseEOT_RNSt16remove_referenceIS3_E4typeE"
 "_ZSt7forwardIRxEOT_RNSt16remove_referenceIS1_E4typeE"
 "_ZSt7forwardISsEOT_RNSt16remove_referenceIS0_E4typeE"
 "_ZSt7forwardISt17_Rb_tree_iteratorISt4pairIKSsPN4Rcpp10class_BaseEEEEOT_RNSt16remove_referenceIS8_E4typeE"
 "_ZSt7forwardISt17_Rb_tree_iteratorISt4pairIKSsPN4Rcpp11CppFunctionEEEEOT_RNSt16remove_referenceIS8_E4typeE"
 "_ZSt7forwardISt17_Rb_tree_iteratorISt4pairIKSsPSt6vectorIPN4Rcpp12SignedMethodI11VideoWriterEESaIS8_EEEEEOT_RNSt16remove_referenceISE_E4typeE"
 "_ZSt7forwardISt17_Rb_tree_iteratorISt4pairIKSsPSt6vectorIPN4Rcpp12SignedMethodI5ImageEESaIS8_EEEEEOT_RNSt16remove_referenceISE_E4typeE"
 "_ZSt7forwardISt17_Rb_tree_iteratorISt4pairIKSsPSt6vectorIPN4Rcpp12SignedMethodI5VideoEESaIS8_EEEEEOT_RNSt16remove_referenceISE_E4typeE"
 "_ZSt7forwardISt17_Rb_tree_iteratorISt4pairIKSsPSt6vectorIPN4Rcpp12SignedMethodI6StreamEESaIS8_EEEEEOT_RNSt16remove_referenceISE_E4typeE"
 "_ZSt7forwardISt4pairIKSsPN4Rcpp10class_BaseEEEOT_RNSt16remove_referenceIS6_E4typeE"
 "_ZSt7forwardISt4pairIKSsPN4Rcpp11CppFunctionEEEOT_RNSt16remove_referenceIS6_E4typeE"
 "_ZSt7forwardISt4pairISsPSt6vectorIPN4Rcpp12SignedMethodI11VideoWriterEESaIS6_EEEEOT_RNSt16remove_referenceISB_E4typeE"
 "_ZSt7forwardISt4pairISsPSt6vectorIPN4Rcpp12SignedMethodI5ImageEESaIS6_EEEEOT_RNSt16remove_referenceISB_E4typeE"
 "_ZSt7forwardISt4pairISsPSt6vectorIPN4Rcpp12SignedMethodI5VideoEESaIS6_EEEEOT_RNSt16remove_referenceISB_E4typeE"
 "_ZSt7forwardISt4pairISsPSt6vectorIPN4Rcpp12SignedMethodI6StreamEESaIS6_EEEEOT_RNSt16remove_referenceISB_E4typeE"
 "_ZSt7forwardISt6vectorIN2cv6Point_IiEESaIS3_EEEOT_RNSt16remove_referenceIS6_E4typeE"
 "_ZSt7forwardIxEOT_RNSt16remove_referenceIS0_E4typeE"
 "_ZSt8__fill_aIPddEN9__gnu_cxx11__enable_ifIXsrSt11__is_scalarIT0_E7__valueEvE6__typeET_S8_RKS4_"
 "_ZSt8__fill_aIPiiEN9__gnu_cxx11__enable_ifIXsrSt11__is_scalarIT0_E7__valueEvE6__typeET_S8_RKS4_"
 "_ZSt8_DestroyIN2cv3MatEEvPT_"
 "_ZSt8_DestroyIPiEvT_S1_"
 "_ZSt8_DestroyIPiiEvT_S1_RSaIT0_E"
 "_ZSt8_DestroyIPN2cv3MatEEvT_S3_"
 "_ZSt8_DestroyIPN2cv3MatES1_EvT_S3_RSaIT0_E"
 "_ZSt8_DestroyIPN2cv3VecIiLi4EEEEvT_S4_"
 "_ZSt8_DestroyIPN2cv3VecIiLi4EEES2_EvT_S4_RSaIT0_E"
 "_ZSt8_DestroyIPN2cv5Rect_IiEEEvT_S4_"
 "_ZSt8_DestroyIPN2cv5Rect_IiEES2_EvT_S4_RSaIT0_E"
 "_ZSt8_DestroyIPN2cv6Point_IiEEEvT_S4_"
 "_ZSt8_DestroyIPN2cv6Point_IiEES2_EvT_S4_RSaIT0_E"
 "_ZSt8_DestroyIPN2cv8KeyPointEEvT_S3_"
 "_ZSt8_DestroyIPN2cv8KeyPointES1_EvT_S3_RSaIT0_E"
 "_ZSt8_DestroyIPPN4Rcpp12SignedMethodI11VideoWriterEEEvT_S6_"
 "_ZSt8_DestroyIPPN4Rcpp12SignedMethodI11VideoWriterEES4_EvT_S6_RSaIT0_E"
 "_ZSt8_DestroyIPPN4Rcpp12SignedMethodI5ImageEEEvT_S6_"
 "_ZSt8_DestroyIPPN4Rcpp12SignedMethodI5ImageEES4_EvT_S6_RSaIT0_E"
 "_ZSt8_DestroyIPPN4Rcpp12SignedMethodI5VideoEEEvT_S6_"
 "_ZSt8_DestroyIPPN4Rcpp12SignedMethodI5VideoEES4_EvT_S6_RSaIT0_E"
 "_ZSt8_DestroyIPPN4Rcpp12SignedMethodI6StreamEEEvT_S6_"
 "_ZSt8_DestroyIPPN4Rcpp12SignedMethodI6StreamEES4_EvT_S6_RSaIT0_E"
 "_ZSt8_DestroyIPPN4Rcpp13SignedFactoryI11VideoWriterEEEvT_S6_"
 "_ZSt8_DestroyIPPN4Rcpp13SignedFactoryI11VideoWriterEES4_EvT_S6_RSaIT0_E"
 "_ZSt8_DestroyIPPN4Rcpp13SignedFactoryI5ImageEEEvT_S6_"
 "_ZSt8_DestroyIPPN4Rcpp13SignedFactoryI5ImageEES4_EvT_S6_RSaIT0_E"
 "_ZSt8_DestroyIPPN4Rcpp13SignedFactoryI5VideoEEEvT_S6_"
 "_ZSt8_DestroyIPPN4Rcpp13SignedFactoryI5VideoEES4_EvT_S6_RSaIT0_E"
 "_ZSt8_DestroyIPPN4Rcpp13SignedFactoryI6StreamEEEvT_S6_"
 "_ZSt8_DestroyIPPN4Rcpp13SignedFactoryI6StreamEES4_EvT_S6_RSaIT0_E"
 "_ZSt8_DestroyIPPN4Rcpp17SignedConstructorI11VideoWriterEEEvT_S6_"
 "_ZSt8_DestroyIPPN4Rcpp17SignedConstructorI11VideoWriterEES4_EvT_S6_RSaIT0_E"
 "_ZSt8_DestroyIPPN4Rcpp17SignedConstructorI5ImageEEEvT_S6_"
 "_ZSt8_DestroyIPPN4Rcpp17SignedConstructorI5ImageEES4_EvT_S6_RSaIT0_E"
 "_ZSt8_DestroyIPPN4Rcpp17SignedConstructorI5VideoEEEvT_S6_"
 "_ZSt8_DestroyIPPN4Rcpp17SignedConstructorI5VideoEES4_EvT_S6_RSaIT0_E"
 "_ZSt8_DestroyIPPN4Rcpp17SignedConstructorI6StreamEEEvT_S6_"
 "_ZSt8_DestroyIPPN4Rcpp17SignedConstructorI6StreamEES4_EvT_S6_RSaIT0_E"
 "_ZSt8_DestroyIPSsEvT_S1_"
 "_ZSt8_DestroyIPSsSsEvT_S1_RSaIT0_E"
 "_ZSt8_DestroyIPSt6vectorIN2cv6Point_IiEESaIS3_EEEvT_S7_"
 "_ZSt8_DestroyIPSt6vectorIN2cv6Point_IiEESaIS3_EES5_EvT_S7_RSaIT0_E"
 "_ZSt8_DestroyISsEvPT_"
 "_ZSt8_DestroyISt6vectorIN2cv6Point_IiEESaIS3_EEEvPT_"
 "_ZSt8distanceIN4Rcpp8internal14Proxy_IteratorINS1_12string_proxyILi16ENS0_15PreserveStorageEEEEEENSt15iterator_traitsIT_E15difference_typeES8_S8_"
 "_ZSt8distanceIN4Rcpp8internal14Proxy_IteratorINS1_13generic_proxyILi19ENS0_15PreserveStorageEEEEEENSt15iterator_traitsIT_E15difference_typeES8_S8_"
 "_ZSt8distanceIN9__gnu_cxx17__normal_iteratorIPKiSt6vectorIiSaIiEEEEENSt15iterator_traitsIT_E15difference_typeES9_S9_"
 "_ZSt8distanceIPKdENSt15iterator_traitsIT_E15difference_typeES3_S3_"
 "_ZSt8distanceIPKfENSt15iterator_traitsIT_E15difference_typeES3_S3_"
 "_ZSt9transformIN9__gnu_cxx17__normal_iteratorIPcSsEES3_PFiiEET0_T_S7_S6_T1_"
 "_ZSt9transformIPKfPdPFdfEET0_T_S6_S5_T1_"
 "_ZStaNRSt13_Ios_FmtflagsS_"
 "_ZStanSt13_Ios_FmtflagsS_"
 "_ZStcoSt13_Ios_Fmtflags"
 "_ZSteqIcEN9__gnu_cxx11__enable_ifIXsrSt9__is_charIT_E7__valueEbE6__typeERKSbIS3_St11char_traitsIS3_ESaIS3_EESC_"
 "_ZSteqIcSt11char_traitsIcESaIcEEbRKSbIT_T0_T1_EPKS3_"
 "_ZSteqIPN2cv6Point_IiEEEbRKSt13move_iteratorIT_ES8_"
 "_ZSteqIPSt6vectorIN2cv6Point_IiEESaIS3_EEEbRKSt13move_iteratorIT_ESB_"
 "_ZStltIcSt11char_traitsIcESaIcEEbRKSbIT_T0_T1_ES8_"
 "_ZStneIcSt11char_traitsIcESaIcEEbRKSbIT_T0_T1_EPKS3_"
 "_ZStneIPN2cv6Point_IiEEEbRKSt13move_iteratorIT_ES8_"
 "_ZStneIPSt6vectorIN2cv6Point_IiEESaIS3_EEEbRKSt13move_iteratorIT_ESB_"
 "_ZStoRRSt13_Ios_FmtflagsS_"
 "_ZStorSt13_Ios_FmtflagsS_"
 "_ZStplIcSt11char_traitsIcESaIcEESbIT_T0_T1_EOS6_PKS3_"
 "_ZStplIcSt11char_traitsIcESaIcEESbIT_T0_T1_EOS6_RKS6_"
 "_ZTCN4Rcpp8RostreamILb0EEE0_So"
 "_ZTCN4Rcpp8RostreamILb1EEE0_So"
 "_ZTI11VideoWriter"
 "_ZTI5Image"
 "_ZTI5Video"
 "_ZTI6Stream"
 "_ZTIN4arma13Base_eval_MatIdNS_3MatIdEEEE"
 "_ZTIN4arma13Base_eval_MatIfNS_3MatIfEEEE"
 "_ZTIN4arma14Base_extra_yesIdNS_3MatIdEEEE"
 "_ZTIN4arma14Base_extra_yesIfNS_3MatIfEEEE"
 "_ZTIN4arma18Base_trans_defaultINS_3MatIdEEEE"
 "_ZTIN4arma18Base_trans_defaultINS_3MatIfEEEE"
 "_ZTIN4arma18BaseCube_eval_CubeIdNS_4CubeIdEEEE"
 "_ZTIN4arma18BaseCube_eval_CubeIiNS_4CubeIiEEEE"
 "_ZTIN4arma3ColIfEE"
 "_ZTIN4arma3MatIdEE"
 "_ZTIN4arma3MatIfEE"
 "_ZTIN4arma4BaseIdNS_3MatIdEEEE"
 "_ZTIN4arma4BaseIfNS_3MatIfEEEE"
 "_ZTIN4arma4CubeIdEE"
 "_ZTIN4arma4CubeIiEE"
 "_ZTIN4arma8BaseCubeIdNS_4CubeIdEEEE"
 "_ZTIN4arma8BaseCubeIiNS_4CubeIiEEEE"
 "_ZTIN4Rcpp10class_BaseE"
 "_ZTIN4Rcpp10CppMethod0I11VideoWriterbEE"
 "_ZTIN4Rcpp10CppMethod0I11VideoWriterdEE"
 "_ZTIN4Rcpp10CppMethod0I11VideoWriteriEE"
 "_ZTIN4Rcpp10CppMethod0I11VideoWriterNS_6VectorILi14ENS_15PreserveStorageEEEEE"
 "_ZTIN4Rcpp10CppMethod0I11VideoWriterSsEE"
 "_ZTIN4Rcpp10CppMethod0I11VideoWritervEE"
 "_ZTIN4Rcpp10CppMethod0I5ImageiEE"
 "_ZTIN4Rcpp10CppMethod0I5ImageN4arma4CubeIdEEEE"
 "_ZTIN4Rcpp10CppMethod0I5ImageNS_6VectorILi14ENS_15PreserveStorageEEEEE"
 "_ZTIN4Rcpp10CppMethod0I5ImageSsEE"
 "_ZTIN4Rcpp10CppMethod0I5Video5ImageEE"
 "_ZTIN4Rcpp10CppMethod0I5VideobEE"
 "_ZTIN4Rcpp10CppMethod0I5VideodEE"
 "_ZTIN4Rcpp10CppMethod0I5VideoiEE"
 "_ZTIN4Rcpp10CppMethod0I5VideoNS_6VectorILi14ENS_15PreserveStorageEEEEE"
 "_ZTIN4Rcpp10CppMethod0I5VideoSsEE"
 "_ZTIN4Rcpp10CppMethod0I5VideovEE"
 "_ZTIN4Rcpp10CppMethod0I6Stream5ImageEE"
 "_ZTIN4Rcpp10CppMethod0I6StreambEE"
 "_ZTIN4Rcpp10CppMethod0I6StreamiEE"
 "_ZTIN4Rcpp10CppMethod0I6StreamNS_6VectorILi14ENS_15PreserveStorageEEEEE"
 "_ZTIN4Rcpp10CppMethod0I6StreamvEE"
 "_ZTIN4Rcpp10CppMethod1I11VideoWriterdSsEE"
 "_ZTIN4Rcpp10CppMethod1I11VideoWriterv5ImageEE"
 "_ZTIN4Rcpp10CppMethod1I5ImagebN4arma4CubeIdEEEE"
 "_ZTIN4Rcpp10CppMethod1I5ImagebSsEE"
 "_ZTIN4Rcpp10CppMethod1I5ImageviEE"
 "_ZTIN4Rcpp10CppMethod1I5ImagevSsEE"
 "_ZTIN4Rcpp10CppMethod1I5Video5ImageiEE"
 "_ZTIN4Rcpp10CppMethod1I5VideodSsEE"
 "_ZTIN4Rcpp10CppMethod1I6StreamdSsEE"
 "_ZTIN4Rcpp10CppMethod2I11VideoWriterbSsdEE"
 "_ZTIN4Rcpp10CppMethod2I5ImageNS_6MatrixILi14ENS_15PreserveStorageEEENS_6VectorILi13ES3_EES6_EE"
 "_ZTIN4Rcpp10CppMethod2I5VideobSsdEE"
 "_ZTIN4Rcpp10CppMethod2I5VideobSsSsEE"
 "_ZTIN4Rcpp10CppMethod2I6StreambiSsEE"
 "_ZTIN4Rcpp10CppMethod2I6StreambSsdEE"
 "_ZTIN4Rcpp10CppMethod3I5ImagevNS_6VectorILi13ENS_15PreserveStorageEEES4_NS_6MatrixILi13ES3_EEEE"
 "_ZTIN4Rcpp10CppMethod7I11VideoWriterbSsSsdiibSsEE"
 "_ZTIN4Rcpp10eval_errorE"
 "_ZTIN4Rcpp10MatrixBaseILi13ELb1ENS_6MatrixILi13ENS_15PreserveStorageEEEEE"
 "_ZTIN4Rcpp10MatrixBaseILi14ELb1ENS_6MatrixILi14ENS_15PreserveStorageEEEEE"
 "_ZTIN4Rcpp10RstreambufILb0EEE"
 "_ZTIN4Rcpp10RstreambufILb1EEE"
 "_ZTIN4Rcpp10VectorBaseILi10ELb1ENS_6VectorILi10ENS_15PreserveStorageEEEEE"
 "_ZTIN4Rcpp10VectorBaseILi13ELb1ENS_6VectorILi13ENS_15PreserveStorageEEEEE"
 "_ZTIN4Rcpp10VectorBaseILi14ELb1ENS_6VectorILi14ENS_15PreserveStorageEEEEE"
 "_ZTIN4Rcpp10VectorBaseILi19ELb1ENS_6VectorILi19ENS_15PreserveStorageEEEEE"
 "_ZTIN4Rcpp11CppFunctionE"
 "_ZTIN4Rcpp12CppFinalizerI11VideoWriterEE"
 "_ZTIN4Rcpp12CppFinalizerI5ImageEE"
 "_ZTIN4Rcpp12CppFinalizerI5VideoEE"
 "_ZTIN4Rcpp12CppFinalizerI6StreamEE"
 "_ZTIN4Rcpp12not_a_matrixE"
 "_ZTIN4Rcpp13Constructor_0I11VideoWriterEE"
 "_ZTIN4Rcpp13Constructor_0I5ImageEE"
 "_ZTIN4Rcpp13Constructor_0I5VideoEE"
 "_ZTIN4Rcpp13Constructor_0I6StreamEE"
 "_ZTIN4Rcpp13Constructor_1I5ImageN4arma4CubeIdEEEE"
 "_ZTIN4Rcpp13Constructor_1I5ImageN4arma4CubeIiEEEE"
 "_ZTIN4Rcpp13Constructor_1I5ImageSsEE"
 "_ZTIN4Rcpp13Constructor_2I5VideoSsSsEE"
 "_ZTIN4Rcpp13Constructor_2I6StreamiSsEE"
 "_ZTIN4Rcpp13Constructor_7I11VideoWriterSsSsdiibSsEE"
 "_ZTIN4Rcpp13not_referenceE"
 "_ZTIN4Rcpp14DataFrame_ImplINS_15PreserveStorageEEE"
 "_ZTIN4Rcpp14not_compatibleE"
 "_ZTIN4Rcpp14RObjectMethodsINS_6VectorILi10ENS_15PreserveStorageEEEEE"
 "_ZTIN4Rcpp14RObjectMethodsINS_6VectorILi13ENS_15PreserveStorageEEEEE"
 "_ZTIN4Rcpp14RObjectMethodsINS_6VectorILi14ENS_15PreserveStorageEEEEE"
 "_ZTIN4Rcpp14RObjectMethodsINS_6VectorILi19ENS_15PreserveStorageEEEEE"
 "_ZTIN4Rcpp15CppFunctionBaseE"
 "_ZTIN4Rcpp15PreserveStorageINS_6VectorILi10ES0_EEEE"
 "_ZTIN4Rcpp15PreserveStorageINS_6VectorILi13ES0_EEEE"
 "_ZTIN4Rcpp15PreserveStorageINS_6VectorILi14ES0_EEEE"
 "_ZTIN4Rcpp15PreserveStorageINS_6VectorILi19ES0_EEEE"
 "_ZTIN4Rcpp15SlotProxyPolicyINS_6VectorILi10ENS_15PreserveStorageEEEEE"
 "_ZTIN4Rcpp15SlotProxyPolicyINS_6VectorILi13ENS_15PreserveStorageEEEEE"
 "_ZTIN4Rcpp15SlotProxyPolicyINS_6VectorILi14ENS_15PreserveStorageEEEEE"
 "_ZTIN4Rcpp15SlotProxyPolicyINS_6VectorILi19ENS_15PreserveStorageEEEEE"
 "_ZTIN4Rcpp16Constructor_BaseI11VideoWriterEE"
 "_ZTIN4Rcpp16Constructor_BaseI5ImageEE"
 "_ZTIN4Rcpp16Constructor_BaseI5VideoEE"
 "_ZTIN4Rcpp16Constructor_BaseI6StreamEE"
 "_ZTIN4Rcpp16NamesProxyPolicyINS_6VectorILi10ENS_15PreserveStorageEEEEE"
 "_ZTIN4Rcpp16NamesProxyPolicyINS_6VectorILi13ENS_15PreserveStorageEEEEE"
 "_ZTIN4Rcpp16NamesProxyPolicyINS_6VectorILi14ENS_15PreserveStorageEEEEE"
 "_ZTIN4Rcpp16NamesProxyPolicyINS_6VectorILi19ENS_15PreserveStorageEEEEE"
 "_ZTIN4Rcpp17LongjumpExceptionE"
 "_ZTIN4Rcpp19index_out_of_boundsE"
 "_ZTIN4Rcpp20AttributeProxyPolicyINS_6VectorILi10ENS_15PreserveStorageEEEEE"
 "_ZTIN4Rcpp20AttributeProxyPolicyINS_6VectorILi13ENS_15PreserveStorageEEEEE"
 "_ZTIN4Rcpp20AttributeProxyPolicyINS_6VectorILi14ENS_15PreserveStorageEEEEE"
 "_ZTIN4Rcpp20AttributeProxyPolicyINS_6VectorILi19ENS_15PreserveStorageEEEEE"
 "_ZTIN4Rcpp24CppFunction_WithFormals0IvEE"
 "_ZTIN4Rcpp24CppFunction_WithFormals1I5ImageNS_6VectorILi19ENS_15PreserveStorageEEEEE"
 "_ZTIN4Rcpp24CppFunction_WithFormals1I5ImageRNS_6VectorILi19ENS_15PreserveStorageEEEEE"
 "_ZTIN4Rcpp24CppFunction_WithFormals1I5ImageS1_EE"
 "_ZTIN4Rcpp24CppFunction_WithFormals1Id5ImageEE"
 "_ZTIN4Rcpp24CppFunction_WithFormals1INS_14DataFrame_ImplINS_15PreserveStorageEEE5ImageEE"
 "_ZTIN4Rcpp24CppFunction_WithFormals1INS_14DataFrame_ImplINS_15PreserveStorageEEESsEE"
 "_ZTIN4Rcpp24CppFunction_WithFormals1INS_6MatrixILi14ENS_15PreserveStorageEEE5ImageEE"
 "_ZTIN4Rcpp24CppFunction_WithFormals1INS_6VectorILi19ENS_15PreserveStorageEEE5ImageEE"
 "_ZTIN4Rcpp24CppFunction_WithFormals1INS_6VectorILi19ENS_15PreserveStorageEEESsEE"
 "_ZTIN4Rcpp24CppFunction_WithFormals1IvSsEE"
 "_ZTIN4Rcpp24CppFunction_WithFormals2I5ImageS1_dEE"
 "_ZTIN4Rcpp24CppFunction_WithFormals2I5ImageS1_iEE"
 "_ZTIN4Rcpp24CppFunction_WithFormals2I5ImageS1_NS_6MatrixILi14ENS_15PreserveStorageEEEEE"
 "_ZTIN4Rcpp24CppFunction_WithFormals2I5ImageS1_S1_EE"
 "_ZTIN4Rcpp24CppFunction_WithFormals2Id5ImageS1_EE"
 "_ZTIN4Rcpp24CppFunction_WithFormals2INS_6VectorILi19ENS_15PreserveStorageEEE5ImageiEE"
 "_ZTIN4Rcpp24CppFunction_WithFormals3I5ImageS1_dbEE"
 "_ZTIN4Rcpp24CppFunction_WithFormals3I5ImageS1_idEE"
 "_ZTIN4Rcpp24CppFunction_WithFormals3I5ImageS1_iiEE"
 "_ZTIN4Rcpp24CppFunction_WithFormals3I5ImageS1_NS_6VectorILi14ENS_15PreserveStorageEEES4_EE"
 "_ZTIN4Rcpp24CppFunction_WithFormals3I5ImageS1_S1_iEE"
 "_ZTIN4Rcpp24CppFunction_WithFormals3IN4arma3MatIdEENS1_3ColIfEEddEE"
 "_ZTIN4Rcpp24CppFunction_WithFormals3INS_14DataFrame_ImplINS_15PreserveStorageEEE5ImageSsbEE"
 "_ZTIN4Rcpp24CppFunction_WithFormals3Iv5ImageNS_6MatrixILi13ENS_15PreserveStorageEEENS_6VectorILi13ES3_EEEE"
 "_ZTIN4Rcpp24CppFunction_WithFormals3IvSsiiEE"
 "_ZTIN4Rcpp24CppFunction_WithFormals4I5ImageS1_dS1_dEE"
 "_ZTIN4Rcpp24CppFunction_WithFormals4I5ImageS1_iddEE"
 "_ZTIN4Rcpp24CppFunction_WithFormals4I5ImageS1_iibEE"
 "_ZTIN4Rcpp24CppFunction_WithFormals4I5ImageS1_iidEE"
 "_ZTIN4Rcpp24CppFunction_WithFormals4I5ImageS1_iNS_6VectorILi14ENS_15PreserveStorageEEEiEE"
 "_ZTIN4Rcpp24CppFunction_WithFormals4I5ImageS1_S1_diEE"
 "_ZTIN4Rcpp24CppFunction_WithFormals4I5ImageS1_S1_iS1_EE"
 "_ZTIN4Rcpp24CppFunction_WithFormals4INS_6VectorILi14ENS_15PreserveStorageEEESsidiEE"
 "_ZTIN4Rcpp24CppFunction_WithFormals4INS_6VectorILi19ENS_15PreserveStorageEEE5ImageiiNS1_ILi14ES2_EEEE"
 "_ZTIN4Rcpp24CppFunction_WithFormals5I5ImageRS1_iiiiEE"
 "_ZTIN4Rcpp24CppFunction_WithFormals5I5ImageS1_iiddEE"
 "_ZTIN4Rcpp24CppFunction_WithFormals5I5ImageS1_iiidEE"
 "_ZTIN4Rcpp24CppFunction_WithFormals5Iv5ImageSsiiiEE"
 "_ZTIN4Rcpp24CppFunction_WithFormals6I5ImageS1_diiidEE"
 "_ZTIN4Rcpp24CppFunction_WithFormals6I5ImageS1_iiddiEE"
 "_ZTIN4Rcpp24CppFunction_WithFormals6I5ImageS1_iiiiiEE"
 "_ZTIN4Rcpp24CppFunction_WithFormals6I5ImageS1_N4arma3MatIfEENS_6VectorILi13ENS_15PreserveStorageEEEiiS7_EE"
 "_ZTIN4Rcpp24CppFunction_WithFormals6IN4arma3MatIfEE5ImageS4_iidiEE"
 "_ZTIN4Rcpp24CppFunction_WithFormals6Iv5ImageNS_6VectorILi14ENS_15PreserveStorageEEES4_NS2_ILi13ES3_EENS_6MatrixILi13ES3_EES5_EE"
 "_ZTIN4Rcpp24CppFunction_WithFormals7I5ImageRS1_iiiiiNS_6VectorILi13ENS_15PreserveStorageEEEEE"
 "_ZTIN4Rcpp24CppFunction_WithFormals7Iv5ImageNS_6VectorILi14ENS_15PreserveStorageEEES4_S4_S4_NS_6MatrixILi13ES3_EENS2_ILi13ES3_EEEE"
 "_ZTIN4Rcpp24CppFunction_WithFormals8IN4arma4CubeIdEE5ImageS4_diiiidEE"
 "_ZTIN4Rcpp24CppFunction_WithFormals8Iv5ImageNS_6VectorILi14ENS_15PreserveStorageEEES4_S4_S4_S4_NS_6MatrixILi13ES3_EENS2_ILi13ES3_EEEE"
 "_ZTIN4Rcpp24CppFunction_WithFormals9Iv5ImageNS_6VectorILi16ENS_15PreserveStorageEEENS2_ILi14ES3_EES5_NS2_ILi13ES3_EES5_NS_6MatrixILi13ES3_EES6_NS2_ILi10ES3_EEEE"
 "_ZTIN4Rcpp25CppFunction_WithFormals10Iv5ImageNS_6VectorILi14ENS_15PreserveStorageEEES4_S4_S4_S4_S4_S4_NS_6MatrixILi13ES3_EENS2_ILi13ES3_EEEE"
 "_ZTIN4Rcpp25CppFunction_WithFormals20INS_14DataFrame_ImplINS_15PreserveStorageEEE5ImagefffyfbffbhbffbffbffEE"
 "_ZTIN4Rcpp6class_I11VideoWriterEE"
 "_ZTIN4Rcpp6class_I5ImageEE"
 "_ZTIN4Rcpp6class_I5VideoEE"
 "_ZTIN4Rcpp6class_I6StreamEE"
 "_ZTIN4Rcpp6MatrixILi13ENS_15PreserveStorageEEE"
 "_ZTIN4Rcpp6MatrixILi14ENS_15PreserveStorageEEE"
 "_ZTIN4Rcpp6traits24expands_to_logical__implILi10EEE"
 "_ZTIN4Rcpp6traits24expands_to_logical__implILi13EEE"
 "_ZTIN4Rcpp6traits24expands_to_logical__implILi14EEE"
 "_ZTIN4Rcpp6traits24expands_to_logical__implILi19EEE"
 "_ZTIN4Rcpp6VectorILi10ENS_15PreserveStorageEEE"
 "_ZTIN4Rcpp6VectorILi13ENS_15PreserveStorageEEE"
 "_ZTIN4Rcpp6VectorILi14ENS_15PreserveStorageEEE"
 "_ZTIN4Rcpp6VectorILi19ENS_15PreserveStorageEEE"
 "_ZTIN4Rcpp8internal20InterruptedExceptionE"
 "_ZTIN4Rcpp8RostreamILb0EEE"
 "_ZTIN4Rcpp8RostreamILb1EEE"
 "_ZTIN4Rcpp9CppMethodI11VideoWriterEE"
 "_ZTIN4Rcpp9CppMethodI5ImageEE"
 "_ZTIN4Rcpp9CppMethodI5VideoEE"
 "_ZTIN4Rcpp9CppMethodI6StreamEE"
 "_ZTIN4Rcpp9exceptionE"
 "_ZTIN7cvflann17flann_algorithm_tE"
 "_ZTIN7cvflann20flann_centers_init_tE"
 "_ZTIN7cvflann7anyimpl14big_any_policyINS_17flann_algorithm_tEEE"
 "_ZTIN7cvflann7anyimpl14big_any_policyINS_20flann_centers_init_tEEE"
 "_ZTIN7cvflann7anyimpl14big_any_policyINS0_9empty_anyEEE"
 "_ZTIN7cvflann7anyimpl14big_any_policyISsEE"
 "_ZTIN7cvflann7anyimpl15base_any_policyE"
 "_ZTIN7cvflann7anyimpl16small_any_policyIbEE"
 "_ZTIN7cvflann7anyimpl16small_any_policyIfEE"
 "_ZTIN7cvflann7anyimpl16small_any_policyIiEE"
 "_ZTIN7cvflann7anyimpl16small_any_policyIjEE"
 "_ZTIN7cvflann7anyimpl16small_any_policyIPKcEE"
 "_ZTIN7cvflann7anyimpl21typed_base_any_policyIbEE"
 "_ZTIN7cvflann7anyimpl21typed_base_any_policyIfEE"
 "_ZTIN7cvflann7anyimpl21typed_base_any_policyIiEE"
 "_ZTIN7cvflann7anyimpl21typed_base_any_policyIjEE"
 "_ZTIN7cvflann7anyimpl21typed_base_any_policyINS_17flann_algorithm_tEEE"
 "_ZTIN7cvflann7anyimpl21typed_base_any_policyINS_20flann_centers_init_tEEE"
 "_ZTIN7cvflann7anyimpl21typed_base_any_policyINS0_9empty_anyEEE"
 "_ZTIN7cvflann7anyimpl21typed_base_any_policyIPKcEE"
 "_ZTIN7cvflann7anyimpl21typed_base_any_policyISsEE"
 "_ZTIN7cvflann7anyimpl9empty_anyE"
 "_ZTISs"
 "_ZTISt11logic_error"
 "_ZTISt11range_error"
 "_ZTISt13runtime_error"
 "_ZTISt9bad_alloc"
 "_ZTISt9exception"
 "_ZTS11VideoWriter"
 "_ZTS5Image"
 "_ZTS5Video"
 "_ZTS6Stream"
 "_ZTSN4arma13Base_eval_MatIdNS_3MatIdEEEE"
 "_ZTSN4arma13Base_eval_MatIfNS_3MatIfEEEE"
 "_ZTSN4arma14Base_extra_yesIdNS_3MatIdEEEE"
 "_ZTSN4arma14Base_extra_yesIfNS_3MatIfEEEE"
 "_ZTSN4arma18Base_trans_defaultINS_3MatIdEEEE"
 "_ZTSN4arma18Base_trans_defaultINS_3MatIfEEEE"
 "_ZTSN4arma18BaseCube_eval_CubeIdNS_4CubeIdEEEE"
 "_ZTSN4arma18BaseCube_eval_CubeIiNS_4CubeIiEEEE"
 "_ZTSN4arma3ColIfEE"
 "_ZTSN4arma3MatIdEE"
 "_ZTSN4arma3MatIfEE"
 "_ZTSN4arma4BaseIdNS_3MatIdEEEE"
 "_ZTSN4arma4BaseIfNS_3MatIfEEEE"
 "_ZTSN4arma4CubeIdEE"
 "_ZTSN4arma4CubeIiEE"
 "_ZTSN4arma8BaseCubeIdNS_4CubeIdEEEE"
 "_ZTSN4arma8BaseCubeIiNS_4CubeIiEEEE"
 "_ZTSN4Rcpp10class_BaseE"
 "_ZTSN4Rcpp10CppMethod0I11VideoWriterbEE"
 "_ZTSN4Rcpp10CppMethod0I11VideoWriterdEE"
 "_ZTSN4Rcpp10CppMethod0I11VideoWriteriEE"
 "_ZTSN4Rcpp10CppMethod0I11VideoWriterNS_6VectorILi14ENS_15PreserveStorageEEEEE"
 "_ZTSN4Rcpp10CppMethod0I11VideoWriterSsEE"
 "_ZTSN4Rcpp10CppMethod0I11VideoWritervEE"
 "_ZTSN4Rcpp10CppMethod0I5ImageiEE"
 "_ZTSN4Rcpp10CppMethod0I5ImageN4arma4CubeIdEEEE"
 "_ZTSN4Rcpp10CppMethod0I5ImageNS_6VectorILi14ENS_15PreserveStorageEEEEE"
 "_ZTSN4Rcpp10CppMethod0I5ImageSsEE"
 "_ZTSN4Rcpp10CppMethod0I5Video5ImageEE"
 "_ZTSN4Rcpp10CppMethod0I5VideobEE"
 "_ZTSN4Rcpp10CppMethod0I5VideodEE"
 "_ZTSN4Rcpp10CppMethod0I5VideoiEE"
 "_ZTSN4Rcpp10CppMethod0I5VideoNS_6VectorILi14ENS_15PreserveStorageEEEEE"
 "_ZTSN4Rcpp10CppMethod0I5VideoSsEE"
 "_ZTSN4Rcpp10CppMethod0I5VideovEE"
 "_ZTSN4Rcpp10CppMethod0I6Stream5ImageEE"
 "_ZTSN4Rcpp10CppMethod0I6StreambEE"
 "_ZTSN4Rcpp10CppMethod0I6StreamiEE"
 "_ZTSN4Rcpp10CppMethod0I6StreamNS_6VectorILi14ENS_15PreserveStorageEEEEE"
 "_ZTSN4Rcpp10CppMethod0I6StreamvEE"
 "_ZTSN4Rcpp10CppMethod1I11VideoWriterdSsEE"
 "_ZTSN4Rcpp10CppMethod1I11VideoWriterv5ImageEE"
 "_ZTSN4Rcpp10CppMethod1I5ImagebN4arma4CubeIdEEEE"
 "_ZTSN4Rcpp10CppMethod1I5ImagebSsEE"
 "_ZTSN4Rcpp10CppMethod1I5ImageviEE"
 "_ZTSN4Rcpp10CppMethod1I5ImagevSsEE"
 "_ZTSN4Rcpp10CppMethod1I5Video5ImageiEE"
 "_ZTSN4Rcpp10CppMethod1I5VideodSsEE"
 "_ZTSN4Rcpp10CppMethod1I6StreamdSsEE"
 "_ZTSN4Rcpp10CppMethod2I11VideoWriterbSsdEE"
 "_ZTSN4Rcpp10CppMethod2I5ImageNS_6MatrixILi14ENS_15PreserveStorageEEENS_6VectorILi13ES3_EES6_EE"
 "_ZTSN4Rcpp10CppMethod2I5VideobSsdEE"
 "_ZTSN4Rcpp10CppMethod2I5VideobSsSsEE"
 "_ZTSN4Rcpp10CppMethod2I6StreambiSsEE"
 "_ZTSN4Rcpp10CppMethod2I6StreambSsdEE"
 "_ZTSN4Rcpp10CppMethod3I5ImagevNS_6VectorILi13ENS_15PreserveStorageEEES4_NS_6MatrixILi13ES3_EEEE"
 "_ZTSN4Rcpp10CppMethod7I11VideoWriterbSsSsdiibSsEE"
 "_ZTSN4Rcpp10eval_errorE"
 "_ZTSN4Rcpp10MatrixBaseILi13ELb1ENS_6MatrixILi13ENS_15PreserveStorageEEEEE"
 "_ZTSN4Rcpp10MatrixBaseILi14ELb1ENS_6MatrixILi14ENS_15PreserveStorageEEEEE"
 "_ZTSN4Rcpp10RstreambufILb0EEE"
 "_ZTSN4Rcpp10RstreambufILb1EEE"
 "_ZTSN4Rcpp10VectorBaseILi10ELb1ENS_6VectorILi10ENS_15PreserveStorageEEEEE"
 "_ZTSN4Rcpp10VectorBaseILi13ELb1ENS_6VectorILi13ENS_15PreserveStorageEEEEE"
 "_ZTSN4Rcpp10VectorBaseILi14ELb1ENS_6VectorILi14ENS_15PreserveStorageEEEEE"
 "_ZTSN4Rcpp10VectorBaseILi19ELb1ENS_6VectorILi19ENS_15PreserveStorageEEEEE"
 "_ZTSN4Rcpp11CppFunctionE"
 "_ZTSN4Rcpp12CppFinalizerI11VideoWriterEE"
 "_ZTSN4Rcpp12CppFinalizerI5ImageEE"
 "_ZTSN4Rcpp12CppFinalizerI5VideoEE"
 "_ZTSN4Rcpp12CppFinalizerI6StreamEE"
 "_ZTSN4Rcpp12not_a_matrixE"
 "_ZTSN4Rcpp13Constructor_0I11VideoWriterEE"
 "_ZTSN4Rcpp13Constructor_0I5ImageEE"
 "_ZTSN4Rcpp13Constructor_0I5VideoEE"
 "_ZTSN4Rcpp13Constructor_0I6StreamEE"
 "_ZTSN4Rcpp13Constructor_1I5ImageN4arma4CubeIdEEEE"
 "_ZTSN4Rcpp13Constructor_1I5ImageN4arma4CubeIiEEEE"
 "_ZTSN4Rcpp13Constructor_1I5ImageSsEE"
 "_ZTSN4Rcpp13Constructor_2I5VideoSsSsEE"
 "_ZTSN4Rcpp13Constructor_2I6StreamiSsEE"
 "_ZTSN4Rcpp13Constructor_7I11VideoWriterSsSsdiibSsEE"
 "_ZTSN4Rcpp13not_referenceE"
 "_ZTSN4Rcpp14DataFrame_ImplINS_15PreserveStorageEEE"
 "_ZTSN4Rcpp14not_compatibleE"
 "_ZTSN4Rcpp14RObjectMethodsINS_6VectorILi10ENS_15PreserveStorageEEEEE"
 "_ZTSN4Rcpp14RObjectMethodsINS_6VectorILi13ENS_15PreserveStorageEEEEE"
 "_ZTSN4Rcpp14RObjectMethodsINS_6VectorILi14ENS_15PreserveStorageEEEEE"
 "_ZTSN4Rcpp14RObjectMethodsINS_6VectorILi19ENS_15PreserveStorageEEEEE"
 "_ZTSN4Rcpp15CppFunctionBaseE"
 "_ZTSN4Rcpp15PreserveStorageINS_6VectorILi10ES0_EEEE"
 "_ZTSN4Rcpp15PreserveStorageINS_6VectorILi13ES0_EEEE"
 "_ZTSN4Rcpp15PreserveStorageINS_6VectorILi14ES0_EEEE"
 "_ZTSN4Rcpp15PreserveStorageINS_6VectorILi19ES0_EEEE"
 "_ZTSN4Rcpp15SlotProxyPolicyINS_6VectorILi10ENS_15PreserveStorageEEEEE"
 "_ZTSN4Rcpp15SlotProxyPolicyINS_6VectorILi13ENS_15PreserveStorageEEEEE"
 "_ZTSN4Rcpp15SlotProxyPolicyINS_6VectorILi14ENS_15PreserveStorageEEEEE"
 "_ZTSN4Rcpp15SlotProxyPolicyINS_6VectorILi19ENS_15PreserveStorageEEEEE"
 "_ZTSN4Rcpp16Constructor_BaseI11VideoWriterEE"
 "_ZTSN4Rcpp16Constructor_BaseI5ImageEE"
 "_ZTSN4Rcpp16Constructor_BaseI5VideoEE"
 "_ZTSN4Rcpp16Constructor_BaseI6StreamEE"
 "_ZTSN4Rcpp16NamesProxyPolicyINS_6VectorILi10ENS_15PreserveStorageEEEEE"
 "_ZTSN4Rcpp16NamesProxyPolicyINS_6VectorILi13ENS_15PreserveStorageEEEEE"
 "_ZTSN4Rcpp16NamesProxyPolicyINS_6VectorILi14ENS_15PreserveStorageEEEEE"
 "_ZTSN4Rcpp16NamesProxyPolicyINS_6VectorILi19ENS_15PreserveStorageEEEEE"
 "_ZTSN4Rcpp17LongjumpExceptionE"
 "_ZTSN4Rcpp19index_out_of_boundsE"
 "_ZTSN4Rcpp20AttributeProxyPolicyINS_6VectorILi10ENS_15PreserveStorageEEEEE"
 "_ZTSN4Rcpp20AttributeProxyPolicyINS_6VectorILi13ENS_15PreserveStorageEEEEE"
 "_ZTSN4Rcpp20AttributeProxyPolicyINS_6VectorILi14ENS_15PreserveStorageEEEEE"
 "_ZTSN4Rcpp20AttributeProxyPolicyINS_6VectorILi19ENS_15PreserveStorageEEEEE"
 "_ZTSN4Rcpp24CppFunction_WithFormals0IvEE"
 "_ZTSN4Rcpp24CppFunction_WithFormals1I5ImageNS_6VectorILi19ENS_15PreserveStorageEEEEE"
 "_ZTSN4Rcpp24CppFunction_WithFormals1I5ImageRNS_6VectorILi19ENS_15PreserveStorageEEEEE"
 "_ZTSN4Rcpp24CppFunction_WithFormals1I5ImageS1_EE"
 "_ZTSN4Rcpp24CppFunction_WithFormals1Id5ImageEE"
 "_ZTSN4Rcpp24CppFunction_WithFormals1INS_14DataFrame_ImplINS_15PreserveStorageEEE5ImageEE"
 "_ZTSN4Rcpp24CppFunction_WithFormals1INS_14DataFrame_ImplINS_15PreserveStorageEEESsEE"
 "_ZTSN4Rcpp24CppFunction_WithFormals1INS_6MatrixILi14ENS_15PreserveStorageEEE5ImageEE"
 "_ZTSN4Rcpp24CppFunction_WithFormals1INS_6VectorILi19ENS_15PreserveStorageEEE5ImageEE"
 "_ZTSN4Rcpp24CppFunction_WithFormals1INS_6VectorILi19ENS_15PreserveStorageEEESsEE"
 "_ZTSN4Rcpp24CppFunction_WithFormals1IvSsEE"
 "_ZTSN4Rcpp24CppFunction_WithFormals2I5ImageS1_dEE"
 "_ZTSN4Rcpp24CppFunction_WithFormals2I5ImageS1_iEE"
 "_ZTSN4Rcpp24CppFunction_WithFormals2I5ImageS1_NS_6MatrixILi14ENS_15PreserveStorageEEEEE"
 "_ZTSN4Rcpp24CppFunction_WithFormals2I5ImageS1_S1_EE"
 "_ZTSN4Rcpp24CppFunction_WithFormals2Id5ImageS1_EE"
 "_ZTSN4Rcpp24CppFunction_WithFormals2INS_6VectorILi19ENS_15PreserveStorageEEE5ImageiEE"
 "_ZTSN4Rcpp24CppFunction_WithFormals3I5ImageS1_dbEE"
 "_ZTSN4Rcpp24CppFunction_WithFormals3I5ImageS1_idEE"
 "_ZTSN4Rcpp24CppFunction_WithFormals3I5ImageS1_iiEE"
 "_ZTSN4Rcpp24CppFunction_WithFormals3I5ImageS1_NS_6VectorILi14ENS_15PreserveStorageEEES4_EE"
 "_ZTSN4Rcpp24CppFunction_WithFormals3I5ImageS1_S1_iEE"
 "_ZTSN4Rcpp24CppFunction_WithFormals3IN4arma3MatIdEENS1_3ColIfEEddEE"
 "_ZTSN4Rcpp24CppFunction_WithFormals3INS_14DataFrame_ImplINS_15PreserveStorageEEE5ImageSsbEE"
 "_ZTSN4Rcpp24CppFunction_WithFormals3Iv5ImageNS_6MatrixILi13ENS_15PreserveStorageEEENS_6VectorILi13ES3_EEEE"
 "_ZTSN4Rcpp24CppFunction_WithFormals3IvSsiiEE"
 "_ZTSN4Rcpp24CppFunction_WithFormals4I5ImageS1_dS1_dEE"
 "_ZTSN4Rcpp24CppFunction_WithFormals4I5ImageS1_iddEE"
 "_ZTSN4Rcpp24CppFunction_WithFormals4I5ImageS1_iibEE"
 "_ZTSN4Rcpp24CppFunction_WithFormals4I5ImageS1_iidEE"
 "_ZTSN4Rcpp24CppFunction_WithFormals4I5ImageS1_iNS_6VectorILi14ENS_15PreserveStorageEEEiEE"
 "_ZTSN4Rcpp24CppFunction_WithFormals4I5ImageS1_S1_diEE"
 "_ZTSN4Rcpp24CppFunction_WithFormals4I5ImageS1_S1_iS1_EE"
 "_ZTSN4Rcpp24CppFunction_WithFormals4INS_6VectorILi14ENS_15PreserveStorageEEESsidiEE"
 "_ZTSN4Rcpp24CppFunction_WithFormals4INS_6VectorILi19ENS_15PreserveStorageEEE5ImageiiNS1_ILi14ES2_EEEE"
 "_ZTSN4Rcpp24CppFunction_WithFormals5I5ImageRS1_iiiiEE"
 "_ZTSN4Rcpp24CppFunction_WithFormals5I5ImageS1_iiddEE"
 "_ZTSN4Rcpp24CppFunction_WithFormals5I5ImageS1_iiidEE"
 "_ZTSN4Rcpp24CppFunction_WithFormals5Iv5ImageSsiiiEE"
 "_ZTSN4Rcpp24CppFunction_WithFormals6I5ImageS1_diiidEE"
 "_ZTSN4Rcpp24CppFunction_WithFormals6I5ImageS1_iiddiEE"
 "_ZTSN4Rcpp24CppFunction_WithFormals6I5ImageS1_iiiiiEE"
 "_ZTSN4Rcpp24CppFunction_WithFormals6I5ImageS1_N4arma3MatIfEENS_6VectorILi13ENS_15PreserveStorageEEEiiS7_EE"
 "_ZTSN4Rcpp24CppFunction_WithFormals6IN4arma3MatIfEE5ImageS4_iidiEE"
 "_ZTSN4Rcpp24CppFunction_WithFormals6Iv5ImageNS_6VectorILi14ENS_15PreserveStorageEEES4_NS2_ILi13ES3_EENS_6MatrixILi13ES3_EES5_EE"
 "_ZTSN4Rcpp24CppFunction_WithFormals7I5ImageRS1_iiiiiNS_6VectorILi13ENS_15PreserveStorageEEEEE"
 "_ZTSN4Rcpp24CppFunction_WithFormals7Iv5ImageNS_6VectorILi14ENS_15PreserveStorageEEES4_S4_S4_NS_6MatrixILi13ES3_EENS2_ILi13ES3_EEEE"
 "_ZTSN4Rcpp24CppFunction_WithFormals8IN4arma4CubeIdEE5ImageS4_diiiidEE"
 "_ZTSN4Rcpp24CppFunction_WithFormals8Iv5ImageNS_6VectorILi14ENS_15PreserveStorageEEES4_S4_S4_S4_NS_6MatrixILi13ES3_EENS2_ILi13ES3_EEEE"
 "_ZTSN4Rcpp24CppFunction_WithFormals9Iv5ImageNS_6VectorILi16ENS_15PreserveStorageEEENS2_ILi14ES3_EES5_NS2_ILi13ES3_EES5_NS_6MatrixILi13ES3_EES6_NS2_ILi10ES3_EEEE"
 "_ZTSN4Rcpp25CppFunction_WithFormals10Iv5ImageNS_6VectorILi14ENS_15PreserveStorageEEES4_S4_S4_S4_S4_S4_NS_6MatrixILi13ES3_EENS2_ILi13ES3_EEEE"
 "_ZTSN4Rcpp25CppFunction_WithFormals20INS_14DataFrame_ImplINS_15PreserveStorageEEE5ImagefffyfbffbhbffbffbffEE"
 "_ZTSN4Rcpp6class_I11VideoWriterEE"
 "_ZTSN4Rcpp6class_I5ImageEE"
 "_ZTSN4Rcpp6class_I5VideoEE"
 "_ZTSN4Rcpp6class_I6StreamEE"
 "_ZTSN4Rcpp6MatrixILi13ENS_15PreserveStorageEEE"
 "_ZTSN4Rcpp6MatrixILi14ENS_15PreserveStorageEEE"
 "_ZTSN4Rcpp6traits24expands_to_logical__implILi10EEE"
 "_ZTSN4Rcpp6traits24expands_to_logical__implILi13EEE"
 "_ZTSN4Rcpp6traits24expands_to_logical__implILi14EEE"
 "_ZTSN4Rcpp6traits24expands_to_logical__implILi19EEE"
 "_ZTSN4Rcpp6VectorILi10ENS_15PreserveStorageEEE"
 "_ZTSN4Rcpp6VectorILi13ENS_15PreserveStorageEEE"
 "_ZTSN4Rcpp6VectorILi14ENS_15PreserveStorageEEE"
 "_ZTSN4Rcpp6VectorILi19ENS_15PreserveStorageEEE"
 "_ZTSN4Rcpp8internal20InterruptedExceptionE"
 "_ZTSN4Rcpp8RostreamILb0EEE"
 "_ZTSN4Rcpp8RostreamILb1EEE"
 "_ZTSN4Rcpp9CppMethodI11VideoWriterEE"
 "_ZTSN4Rcpp9CppMethodI5ImageEE"
 "_ZTSN4Rcpp9CppMethodI5VideoEE"
 "_ZTSN4Rcpp9CppMethodI6StreamEE"
 "_ZTSN4Rcpp9exceptionE"
 "_ZTSN7cvflann17flann_algorithm_tE"
 "_ZTSN7cvflann20flann_centers_init_tE"
 "_ZTSN7cvflann7anyimpl14big_any_policyINS_17flann_algorithm_tEEE"
 "_ZTSN7cvflann7anyimpl14big_any_policyINS_20flann_centers_init_tEEE"
 "_ZTSN7cvflann7anyimpl14big_any_policyINS0_9empty_anyEEE"
 "_ZTSN7cvflann7anyimpl14big_any_policyISsEE"
 "_ZTSN7cvflann7anyimpl15base_any_policyE"
 "_ZTSN7cvflann7anyimpl16small_any_policyIbEE"
 "_ZTSN7cvflann7anyimpl16small_any_policyIfEE"
 "_ZTSN7cvflann7anyimpl16small_any_policyIiEE"
 "_ZTSN7cvflann7anyimpl16small_any_policyIjEE"
 "_ZTSN7cvflann7anyimpl16small_any_policyIPKcEE"
 "_ZTSN7cvflann7anyimpl21typed_base_any_policyIbEE"
 "_ZTSN7cvflann7anyimpl21typed_base_any_policyIfEE"
 "_ZTSN7cvflann7anyimpl21typed_base_any_policyIiEE"
 "_ZTSN7cvflann7anyimpl21typed_base_any_policyIjEE"
 "_ZTSN7cvflann7anyimpl21typed_base_any_policyINS_17flann_algorithm_tEEE"
 "_ZTSN7cvflann7anyimpl21typed_base_any_policyINS_20flann_centers_init_tEEE"
 "_ZTSN7cvflann7anyimpl21typed_base_any_policyINS0_9empty_anyEEE"
 "_ZTSN7cvflann7anyimpl21typed_base_any_policyIPKcEE"
 "_ZTSN7cvflann7anyimpl21typed_base_any_policyISsEE"
 "_ZTSN7cvflann7anyimpl9empty_anyE"
 "_ZTSSs"
 "_ZTSSt11logic_error"
 "_ZTSSt11range_error"
 "_ZTSSt13runtime_error"
 "_ZTSSt9bad_alloc"
 "_ZTSSt9exception"
 "_ZTTN4Rcpp8RostreamILb0EEE"
 "_ZTTN4Rcpp8RostreamILb1EEE"
 "_ZTv0_n24_N4Rcpp8RostreamILb0EED0Ev"
 "_ZTv0_n24_N4Rcpp8RostreamILb0EED1Ev"
 "_ZTv0_n24_N4Rcpp8RostreamILb1EED0Ev"
 "_ZTv0_n24_N4Rcpp8RostreamILb1EED1Ev"
 "_ZTVN4Rcpp10class_BaseE"
 "_ZTVN4Rcpp10CppMethod0I11VideoWriterbEE"
 "_ZTVN4Rcpp10CppMethod0I11VideoWriterdEE"
 "_ZTVN4Rcpp10CppMethod0I11VideoWriteriEE"
 "_ZTVN4Rcpp10CppMethod0I11VideoWriterNS_6VectorILi14ENS_15PreserveStorageEEEEE"
 "_ZTVN4Rcpp10CppMethod0I11VideoWriterSsEE"
 "_ZTVN4Rcpp10CppMethod0I11VideoWritervEE"
 "_ZTVN4Rcpp10CppMethod0I5ImageiEE"
 "_ZTVN4Rcpp10CppMethod0I5ImageN4arma4CubeIdEEEE"
 "_ZTVN4Rcpp10CppMethod0I5ImageNS_6VectorILi14ENS_15PreserveStorageEEEEE"
 "_ZTVN4Rcpp10CppMethod0I5ImageSsEE"
 "_ZTVN4Rcpp10CppMethod0I5Video5ImageEE"
 "_ZTVN4Rcpp10CppMethod0I5VideobEE"
 "_ZTVN4Rcpp10CppMethod0I5VideodEE"
 "_ZTVN4Rcpp10CppMethod0I5VideoiEE"
 "_ZTVN4Rcpp10CppMethod0I5VideoNS_6VectorILi14ENS_15PreserveStorageEEEEE"
 "_ZTVN4Rcpp10CppMethod0I5VideoSsEE"
 "_ZTVN4Rcpp10CppMethod0I5VideovEE"
 "_ZTVN4Rcpp10CppMethod0I6Stream5ImageEE"
 "_ZTVN4Rcpp10CppMethod0I6StreambEE"
 "_ZTVN4Rcpp10CppMethod0I6StreamiEE"
 "_ZTVN4Rcpp10CppMethod0I6StreamNS_6VectorILi14ENS_15PreserveStorageEEEEE"
 "_ZTVN4Rcpp10CppMethod0I6StreamvEE"
 "_ZTVN4Rcpp10CppMethod1I11VideoWriterdSsEE"
 "_ZTVN4Rcpp10CppMethod1I11VideoWriterv5ImageEE"
 "_ZTVN4Rcpp10CppMethod1I5ImagebN4arma4CubeIdEEEE"
 "_ZTVN4Rcpp10CppMethod1I5ImagebSsEE"
 "_ZTVN4Rcpp10CppMethod1I5ImageviEE"
 "_ZTVN4Rcpp10CppMethod1I5ImagevSsEE"
 "_ZTVN4Rcpp10CppMethod1I5Video5ImageiEE"
 "_ZTVN4Rcpp10CppMethod1I5VideodSsEE"
 "_ZTVN4Rcpp10CppMethod1I6StreamdSsEE"
 "_ZTVN4Rcpp10CppMethod2I11VideoWriterbSsdEE"
 "_ZTVN4Rcpp10CppMethod2I5ImageNS_6MatrixILi14ENS_15PreserveStorageEEENS_6VectorILi13ES3_EES6_EE"
 "_ZTVN4Rcpp10CppMethod2I5VideobSsdEE"
 "_ZTVN4Rcpp10CppMethod2I5VideobSsSsEE"
 "_ZTVN4Rcpp10CppMethod2I6StreambiSsEE"
 "_ZTVN4Rcpp10CppMethod2I6StreambSsdEE"
 "_ZTVN4Rcpp10CppMethod3I5ImagevNS_6VectorILi13ENS_15PreserveStorageEEES4_NS_6MatrixILi13ES3_EEEE"
 "_ZTVN4Rcpp10CppMethod7I11VideoWriterbSsSsdiibSsEE"
 "_ZTVN4Rcpp10eval_errorE"
 "_ZTVN4Rcpp10RstreambufILb0EEE"
 "_ZTVN4Rcpp10RstreambufILb1EEE"
 "_ZTVN4Rcpp11CppFunctionE"
 "_ZTVN4Rcpp12CppFinalizerI11VideoWriterEE"
 "_ZTVN4Rcpp12CppFinalizerI5ImageEE"
 "_ZTVN4Rcpp12CppFinalizerI5VideoEE"
 "_ZTVN4Rcpp12CppFinalizerI6StreamEE"
 "_ZTVN4Rcpp12not_a_matrixE"
 "_ZTVN4Rcpp13Constructor_0I11VideoWriterEE"
 "_ZTVN4Rcpp13Constructor_0I5ImageEE"
 "_ZTVN4Rcpp13Constructor_0I5VideoEE"
 "_ZTVN4Rcpp13Constructor_0I6StreamEE"
 "_ZTVN4Rcpp13Constructor_1I5ImageN4arma4CubeIdEEEE"
 "_ZTVN4Rcpp13Constructor_1I5ImageN4arma4CubeIiEEEE"
 "_ZTVN4Rcpp13Constructor_1I5ImageSsEE"
 "_ZTVN4Rcpp13Constructor_2I5VideoSsSsEE"
 "_ZTVN4Rcpp13Constructor_2I6StreamiSsEE"
 "_ZTVN4Rcpp13Constructor_7I11VideoWriterSsSsdiibSsEE"
 "_ZTVN4Rcpp13not_referenceE"
 "_ZTVN4Rcpp14not_compatibleE"
 "_ZTVN4Rcpp15CppFunctionBaseE"
 "_ZTVN4Rcpp16Constructor_BaseI11VideoWriterEE"
 "_ZTVN4Rcpp16Constructor_BaseI5ImageEE"
 "_ZTVN4Rcpp16Constructor_BaseI5VideoEE"
 "_ZTVN4Rcpp16Constructor_BaseI6StreamEE"
 "_ZTVN4Rcpp19index_out_of_boundsE"
 "_ZTVN4Rcpp24CppFunction_WithFormals0IvEE"
 "_ZTVN4Rcpp24CppFunction_WithFormals1I5ImageNS_6VectorILi19ENS_15PreserveStorageEEEEE"
 "_ZTVN4Rcpp24CppFunction_WithFormals1I5ImageRNS_6VectorILi19ENS_15PreserveStorageEEEEE"
 "_ZTVN4Rcpp24CppFunction_WithFormals1I5ImageS1_EE"
 "_ZTVN4Rcpp24CppFunction_WithFormals1Id5ImageEE"
 "_ZTVN4Rcpp24CppFunction_WithFormals1INS_14DataFrame_ImplINS_15PreserveStorageEEE5ImageEE"
 "_ZTVN4Rcpp24CppFunction_WithFormals1INS_14DataFrame_ImplINS_15PreserveStorageEEESsEE"
 "_ZTVN4Rcpp24CppFunction_WithFormals1INS_6MatrixILi14ENS_15PreserveStorageEEE5ImageEE"
 "_ZTVN4Rcpp24CppFunction_WithFormals1INS_6VectorILi19ENS_15PreserveStorageEEE5ImageEE"
 "_ZTVN4Rcpp24CppFunction_WithFormals1INS_6VectorILi19ENS_15PreserveStorageEEESsEE"
 "_ZTVN4Rcpp24CppFunction_WithFormals1IvSsEE"
 "_ZTVN4Rcpp24CppFunction_WithFormals2I5ImageS1_dEE"
 "_ZTVN4Rcpp24CppFunction_WithFormals2I5ImageS1_iEE"
 "_ZTVN4Rcpp24CppFunction_WithFormals2I5ImageS1_NS_6MatrixILi14ENS_15PreserveStorageEEEEE"
 "_ZTVN4Rcpp24CppFunction_WithFormals2I5ImageS1_S1_EE"
 "_ZTVN4Rcpp24CppFunction_WithFormals2Id5ImageS1_EE"
 "_ZTVN4Rcpp24CppFunction_WithFormals2INS_6VectorILi19ENS_15PreserveStorageEEE5ImageiEE"
 "_ZTVN4Rcpp24CppFunction_WithFormals3I5ImageS1_dbEE"
 "_ZTVN4Rcpp24CppFunction_WithFormals3I5ImageS1_idEE"
 "_ZTVN4Rcpp24CppFunction_WithFormals3I5ImageS1_iiEE"
 "_ZTVN4Rcpp24CppFunction_WithFormals3I5ImageS1_NS_6VectorILi14ENS_15PreserveStorageEEES4_EE"
 "_ZTVN4Rcpp24CppFunction_WithFormals3I5ImageS1_S1_iEE"
 "_ZTVN4Rcpp24CppFunction_WithFormals3IN4arma3MatIdEENS1_3ColIfEEddEE"
 "_ZTVN4Rcpp24CppFunction_WithFormals3INS_14DataFrame_ImplINS_15PreserveStorageEEE5ImageSsbEE"
 "_ZTVN4Rcpp24CppFunction_WithFormals3Iv5ImageNS_6MatrixILi13ENS_15PreserveStorageEEENS_6VectorILi13ES3_EEEE"
 "_ZTVN4Rcpp24CppFunction_WithFormals3IvSsiiEE"
 "_ZTVN4Rcpp24CppFunction_WithFormals4I5ImageS1_dS1_dEE"
 "_ZTVN4Rcpp24CppFunction_WithFormals4I5ImageS1_iddEE"
 "_ZTVN4Rcpp24CppFunction_WithFormals4I5ImageS1_iibEE"
 "_ZTVN4Rcpp24CppFunction_WithFormals4I5ImageS1_iidEE"
 "_ZTVN4Rcpp24CppFunction_WithFormals4I5ImageS1_iNS_6VectorILi14ENS_15PreserveStorageEEEiEE"
 "_ZTVN4Rcpp24CppFunction_WithFormals4I5ImageS1_S1_diEE"
 "_ZTVN4Rcpp24CppFunction_WithFormals4I5ImageS1_S1_iS1_EE"
 "_ZTVN4Rcpp24CppFunction_WithFormals4INS_6VectorILi14ENS_15PreserveStorageEEESsidiEE"
 "_ZTVN4Rcpp24CppFunction_WithFormals4INS_6VectorILi19ENS_15PreserveStorageEEE5ImageiiNS1_ILi14ES2_EEEE"
 "_ZTVN4Rcpp24CppFunction_WithFormals5I5ImageRS1_iiiiEE"
 "_ZTVN4Rcpp24CppFunction_WithFormals5I5ImageS1_iiddEE"
 "_ZTVN4Rcpp24CppFunction_WithFormals5I5ImageS1_iiidEE"
 "_ZTVN4Rcpp24CppFunction_WithFormals5Iv5ImageSsiiiEE"
 "_ZTVN4Rcpp24CppFunction_WithFormals6I5ImageS1_diiidEE"
 "_ZTVN4Rcpp24CppFunction_WithFormals6I5ImageS1_iiddiEE"
 "_ZTVN4Rcpp24CppFunction_WithFormals6I5ImageS1_iiiiiEE"
 "_ZTVN4Rcpp24CppFunction_WithFormals6I5ImageS1_N4arma3MatIfEENS_6VectorILi13ENS_15PreserveStorageEEEiiS7_EE"
 "_ZTVN4Rcpp24CppFunction_WithFormals6IN4arma3MatIfEE5ImageS4_iidiEE"
 "_ZTVN4Rcpp24CppFunction_WithFormals6Iv5ImageNS_6VectorILi14ENS_15PreserveStorageEEES4_NS2_ILi13ES3_EENS_6MatrixILi13ES3_EES5_EE"
 "_ZTVN4Rcpp24CppFunction_WithFormals7I5ImageRS1_iiiiiNS_6VectorILi13ENS_15PreserveStorageEEEEE"
 "_ZTVN4Rcpp24CppFunction_WithFormals7Iv5ImageNS_6VectorILi14ENS_15PreserveStorageEEES4_S4_S4_NS_6MatrixILi13ES3_EENS2_ILi13ES3_EEEE"
 "_ZTVN4Rcpp24CppFunction_WithFormals8IN4arma4CubeIdEE5ImageS4_diiiidEE"
 "_ZTVN4Rcpp24CppFunction_WithFormals8Iv5ImageNS_6VectorILi14ENS_15PreserveStorageEEES4_S4_S4_S4_NS_6MatrixILi13ES3_EENS2_ILi13ES3_EEEE"
 "_ZTVN4Rcpp24CppFunction_WithFormals9Iv5ImageNS_6VectorILi16ENS_15PreserveStorageEEENS2_ILi14ES3_EES5_NS2_ILi13ES3_EES5_NS_6MatrixILi13ES3_EES6_NS2_ILi10ES3_EEEE"
 "_ZTVN4Rcpp25CppFunction_WithFormals10Iv5ImageNS_6VectorILi14ENS_15PreserveStorageEEES4_S4_S4_S4_S4_S4_NS_6MatrixILi13ES3_EENS2_ILi13ES3_EEEE"
 "_ZTVN4Rcpp25CppFunction_WithFormals20INS_14DataFrame_ImplINS_15PreserveStorageEEE5ImagefffyfbffbhbffbffbffEE"
 "_ZTVN4Rcpp6class_I11VideoWriterEE"
 "_ZTVN4Rcpp6class_I5ImageEE"
 "_ZTVN4Rcpp6class_I5VideoEE"
 "_ZTVN4Rcpp6class_I6StreamEE"
 "_ZTVN4Rcpp8RostreamILb0EEE"
 "_ZTVN4Rcpp8RostreamILb1EEE"
 "_ZTVN4Rcpp9CppMethodI11VideoWriterEE"
 "_ZTVN4Rcpp9CppMethodI5ImageEE"
 "_ZTVN4Rcpp9CppMethodI5VideoEE"
 "_ZTVN4Rcpp9CppMethodI6StreamEE"
 "_ZTVN4Rcpp9exceptionE"
 "_ZTVN7cvflann7anyimpl14big_any_policyINS_17flann_algorithm_tEEE"
 "_ZTVN7cvflann7anyimpl14big_any_policyINS_20flann_centers_init_tEEE"
 "_ZTVN7cvflann7anyimpl14big_any_policyINS0_9empty_anyEEE"
 "_ZTVN7cvflann7anyimpl14big_any_policyISsEE"
 "_ZTVN7cvflann7anyimpl15base_any_policyE"
 "_ZTVN7cvflann7anyimpl16small_any_policyIbEE"
 "_ZTVN7cvflann7anyimpl16small_any_policyIfEE"
 "_ZTVN7cvflann7anyimpl16small_any_policyIiEE"
 "_ZTVN7cvflann7anyimpl16small_any_policyIjEE"
 "_ZTVN7cvflann7anyimpl16small_any_policyIPKcEE"
 "_ZTVN7cvflann7anyimpl21typed_base_any_policyIbEE"
 "_ZTVN7cvflann7anyimpl21typed_base_any_policyIfEE"
 "_ZTVN7cvflann7anyimpl21typed_base_any_policyIiEE"
 "_ZTVN7cvflann7anyimpl21typed_base_any_policyIjEE"
 "_ZTVN7cvflann7anyimpl21typed_base_any_policyINS_17flann_algorithm_tEEE"
 "_ZTVN7cvflann7anyimpl21typed_base_any_policyINS_20flann_centers_init_tEEE"
 "_ZTVN7cvflann7anyimpl21typed_base_any_policyINS0_9empty_anyEEE"
 "_ZTVN7cvflann7anyimpl21typed_base_any_policyIPKcEE"
 "_ZTVN7cvflann7anyimpl21typed_base_any_policyISsEE"
 "_ZZ11stack_tracePKciE3fun"
 "_ZZ15getCurrentScopevE3fun"
 "_ZZ15setCurrentScopePN4Rcpp6ModuleEE3fun"
 "_ZZ20rcpp_get_stack_tracevE3fun"
 "_ZZ20rcpp_set_stack_traceP7SEXPRECE3fun"
 "_ZZ7dataptrP7SEXPRECE3fun"
 "_ZZ8demangleRKSsE3fun"
 "_ZZN4arma16arma_cerr_streamIcEERSoPSoE11cerr_stream"
 "_ZZN4Rcpp24CppFunction_WithFormals0IvEclEPP7SEXPRECE8stop_sym"
 "_ZZN4Rcpp24CppFunction_WithFormals1I5ImageNS_6VectorILi19ENS_15PreserveStorageEEEEclEPP7SEXPRECE8stop_sym"
 "_ZZN4Rcpp24CppFunction_WithFormals1I5ImageRNS_6VectorILi19ENS_15PreserveStorageEEEEclEPP7SEXPRECE8stop_sym"
 "_ZZN4Rcpp24CppFunction_WithFormals1I5ImageS1_EclEPP7SEXPRECE8stop_sym"
 "_ZZN4Rcpp24CppFunction_WithFormals1Id5ImageEclEPP7SEXPRECE8stop_sym"
 "_ZZN4Rcpp24CppFunction_WithFormals1INS_14DataFrame_ImplINS_15PreserveStorageEEE5ImageEclEPP7SEXPRECE8stop_sym"
 "_ZZN4Rcpp24CppFunction_WithFormals1INS_14DataFrame_ImplINS_15PreserveStorageEEESsEclEPP7SEXPRECE8stop_sym"
 "_ZZN4Rcpp24CppFunction_WithFormals1INS_6MatrixILi14ENS_15PreserveStorageEEE5ImageEclEPP7SEXPRECE8stop_sym"
 "_ZZN4Rcpp24CppFunction_WithFormals1INS_6VectorILi19ENS_15PreserveStorageEEE5ImageEclEPP7SEXPRECE8stop_sym"
 "_ZZN4Rcpp24CppFunction_WithFormals1INS_6VectorILi19ENS_15PreserveStorageEEESsEclEPP7SEXPRECE8stop_sym"
 "_ZZN4Rcpp24CppFunction_WithFormals1IvSsEclEPP7SEXPRECE8stop_sym"
 "_ZZN4Rcpp24CppFunction_WithFormals2I5ImageS1_dEclEPP7SEXPRECE8stop_sym"
 "_ZZN4Rcpp24CppFunction_WithFormals2I5ImageS1_iEclEPP7SEXPRECE8stop_sym"
 "_ZZN4Rcpp24CppFunction_WithFormals2I5ImageS1_NS_6MatrixILi14ENS_15PreserveStorageEEEEclEPP7SEXPRECE8stop_sym"
 "_ZZN4Rcpp24CppFunction_WithFormals2I5ImageS1_S1_EclEPP7SEXPRECE8stop_sym"
 "_ZZN4Rcpp24CppFunction_WithFormals2Id5ImageS1_EclEPP7SEXPRECE8stop_sym"
 "_ZZN4Rcpp24CppFunction_WithFormals2INS_6VectorILi19ENS_15PreserveStorageEEE5ImageiEclEPP7SEXPRECE8stop_sym"
 "_ZZN4Rcpp24CppFunction_WithFormals3I5ImageS1_dbEclEPP7SEXPRECE8stop_sym"
 "_ZZN4Rcpp24CppFunction_WithFormals3I5ImageS1_idEclEPP7SEXPRECE8stop_sym"
 "_ZZN4Rcpp24CppFunction_WithFormals3I5ImageS1_iiEclEPP7SEXPRECE8stop_sym"
 "_ZZN4Rcpp24CppFunction_WithFormals3I5ImageS1_NS_6VectorILi14ENS_15PreserveStorageEEES4_EclEPP7SEXPRECE8stop_sym"
 "_ZZN4Rcpp24CppFunction_WithFormals3I5ImageS1_S1_iEclEPP7SEXPRECE8stop_sym"
 "_ZZN4Rcpp24CppFunction_WithFormals3IN4arma3MatIdEENS1_3ColIfEEddEclEPP7SEXPRECE8stop_sym"
 "_ZZN4Rcpp24CppFunction_WithFormals3INS_14DataFrame_ImplINS_15PreserveStorageEEE5ImageSsbEclEPP7SEXPRECE8stop_sym"
 "_ZZN4Rcpp24CppFunction_WithFormals3Iv5ImageNS_6MatrixILi13ENS_15PreserveStorageEEENS_6VectorILi13ES3_EEEclEPP7SEXPRECE8stop_sym"
 "_ZZN4Rcpp24CppFunction_WithFormals3IvSsiiEclEPP7SEXPRECE8stop_sym"
 "_ZZN4Rcpp24CppFunction_WithFormals4I5ImageS1_dS1_dEclEPP7SEXPRECE8stop_sym"
 "_ZZN4Rcpp24CppFunction_WithFormals4I5ImageS1_iddEclEPP7SEXPRECE8stop_sym"
 "_ZZN4Rcpp24CppFunction_WithFormals4I5ImageS1_iibEclEPP7SEXPRECE8stop_sym"
 "_ZZN4Rcpp24CppFunction_WithFormals4I5ImageS1_iidEclEPP7SEXPRECE8stop_sym"
 "_ZZN4Rcpp24CppFunction_WithFormals4I5ImageS1_iNS_6VectorILi14ENS_15PreserveStorageEEEiEclEPP7SEXPRECE8stop_sym"
 "_ZZN4Rcpp24CppFunction_WithFormals4I5ImageS1_S1_diEclEPP7SEXPRECE8stop_sym"
 "_ZZN4Rcpp24CppFunction_WithFormals4I5ImageS1_S1_iS1_EclEPP7SEXPRECE8stop_sym"
 "_ZZN4Rcpp24CppFunction_WithFormals4INS_6VectorILi14ENS_15PreserveStorageEEESsidiEclEPP7SEXPRECE8stop_sym"
 "_ZZN4Rcpp24CppFunction_WithFormals4INS_6VectorILi19ENS_15PreserveStorageEEE5ImageiiNS1_ILi14ES2_EEEclEPP7SEXPRECE8stop_sym"
 "_ZZN4Rcpp24CppFunction_WithFormals5I5ImageRS1_iiiiEclEPP7SEXPRECE8stop_sym"
 "_ZZN4Rcpp24CppFunction_WithFormals5I5ImageS1_iiddEclEPP7SEXPRECE8stop_sym"
 "_ZZN4Rcpp24CppFunction_WithFormals5I5ImageS1_iiidEclEPP7SEXPRECE8stop_sym"
 "_ZZN4Rcpp24CppFunction_WithFormals5Iv5ImageSsiiiEclEPP7SEXPRECE8stop_sym"
 "_ZZN4Rcpp24CppFunction_WithFormals6I5ImageS1_diiidEclEPP7SEXPRECE8stop_sym"
 "_ZZN4Rcpp24CppFunction_WithFormals6I5ImageS1_iiddiEclEPP7SEXPRECE8stop_sym"
 "_ZZN4Rcpp24CppFunction_WithFormals6I5ImageS1_iiiiiEclEPP7SEXPRECE8stop_sym"
 "_ZZN4Rcpp24CppFunction_WithFormals6I5ImageS1_N4arma3MatIfEENS_6VectorILi13ENS_15PreserveStorageEEEiiS7_EclEPP7SEXPRECE8stop_sym"
 "_ZZN4Rcpp24CppFunction_WithFormals6IN4arma3MatIfEE5ImageS4_iidiEclEPP7SEXPRECE8stop_sym"
 "_ZZN4Rcpp24CppFunction_WithFormals6Iv5ImageNS_6VectorILi14ENS_15PreserveStorageEEES4_NS2_ILi13ES3_EENS_6MatrixILi13ES3_EES5_EclEPP7SEXPRECE8stop_sym"
 "_ZZN4Rcpp24CppFunction_WithFormals7I5ImageRS1_iiiiiNS_6VectorILi13ENS_15PreserveStorageEEEEclEPP7SEXPRECE8stop_sym"
 "_ZZN4Rcpp24CppFunction_WithFormals7Iv5ImageNS_6VectorILi14ENS_15PreserveStorageEEES4_S4_S4_NS_6MatrixILi13ES3_EENS2_ILi13ES3_EEEclEPP7SEXPRECE8stop_sym"
 "_ZZN4Rcpp24CppFunction_WithFormals8IN4arma4CubeIdEE5ImageS4_diiiidEclEPP7SEXPRECE8stop_sym"
 "_ZZN4Rcpp24CppFunction_WithFormals8Iv5ImageNS_6VectorILi14ENS_15PreserveStorageEEES4_S4_S4_S4_NS_6MatrixILi13ES3_EENS2_ILi13ES3_EEEclEPP7SEXPRECE8stop_sym"
 "_ZZN4Rcpp24CppFunction_WithFormals9Iv5ImageNS_6VectorILi16ENS_15PreserveStorageEEENS2_ILi14ES3_EES5_NS2_ILi13ES3_EES5_NS_6MatrixILi13ES3_EES6_NS2_ILi10ES3_EEEclEPP7SEXPRECE8stop_sym"
 "_ZZN4Rcpp25CppFunction_WithFormals10Iv5ImageNS_6VectorILi14ENS_15PreserveStorageEEES4_S4_S4_S4_S4_S4_NS_6MatrixILi13ES3_EENS2_ILi13ES3_EEEclEPP7SEXPRECE8stop_sym"
 "_ZZN4Rcpp25CppFunction_WithFormals20INS_14DataFrame_ImplINS_15PreserveStorageEEE5ImagefffyfbffbhbffbffbffEclEPP7SEXPRECE8stop_sym"
 "_ZZN4Rcpp6class_I11VideoWriterE11getPropertyEP7SEXPRECS4_E8stop_sym"
 "_ZZN4Rcpp6class_I11VideoWriterE11invoke_voidEP7SEXPRECS4_PS4_iE8stop_sym"
 "_ZZN4Rcpp6class_I11VideoWriterE11newInstanceEPP7SEXPRECiE8stop_sym"
 "_ZZN4Rcpp6class_I11VideoWriterE11setPropertyEP7SEXPRECS4_S4_E8stop_sym"
 "_ZZN4Rcpp6class_I11VideoWriterE14invoke_notvoidEP7SEXPRECS4_PS4_iE8stop_sym"
 "_ZZN4Rcpp6class_I11VideoWriterE6invokeEP7SEXPRECS4_PS4_iE8stop_sym"
 "_ZZN4Rcpp6class_I5ImageE11getPropertyEP7SEXPRECS4_E8stop_sym"
 "_ZZN4Rcpp6class_I5ImageE11invoke_voidEP7SEXPRECS4_PS4_iE8stop_sym"
 "_ZZN4Rcpp6class_I5ImageE11newInstanceEPP7SEXPRECiE8stop_sym"
 "_ZZN4Rcpp6class_I5ImageE11setPropertyEP7SEXPRECS4_S4_E8stop_sym"
 "_ZZN4Rcpp6class_I5ImageE14invoke_notvoidEP7SEXPRECS4_PS4_iE8stop_sym"
 "_ZZN4Rcpp6class_I5ImageE6invokeEP7SEXPRECS4_PS4_iE8stop_sym"
 "_ZZN4Rcpp6class_I5VideoE11getPropertyEP7SEXPRECS4_E8stop_sym"
 "_ZZN4Rcpp6class_I5VideoE11invoke_voidEP7SEXPRECS4_PS4_iE8stop_sym"
 "_ZZN4Rcpp6class_I5VideoE11newInstanceEPP7SEXPRECiE8stop_sym"
 "_ZZN4Rcpp6class_I5VideoE11setPropertyEP7SEXPRECS4_S4_E8stop_sym"
 "_ZZN4Rcpp6class_I5VideoE14invoke_notvoidEP7SEXPRECS4_PS4_iE8stop_sym"
 "_ZZN4Rcpp6class_I5VideoE6invokeEP7SEXPRECS4_PS4_iE8stop_sym"
 "_ZZN4Rcpp6class_I6StreamE11getPropertyEP7SEXPRECS4_E8stop_sym"
 "_ZZN4Rcpp6class_I6StreamE11invoke_voidEP7SEXPRECS4_PS4_iE8stop_sym"
 "_ZZN4Rcpp6class_I6StreamE11newInstanceEPP7SEXPRECiE8stop_sym"
 "_ZZN4Rcpp6class_I6StreamE11setPropertyEP7SEXPRECS4_S4_E8stop_sym"
 "_ZZN4Rcpp6class_I6StreamE14invoke_notvoidEP7SEXPRECS4_PS4_iE8stop_sym"
 "_ZZN4Rcpp6class_I6StreamE6invokeEP7SEXPRECS4_PS4_iE8stop_sym"
 "_ZZN4Rcpp8internal18get_Rcpp_namespaceEvE3fun"
